
main.elf:     file format elf32-avr

Sections:
Idx Name          Size      VMA       LMA       File off  Algn
  0 .data         00000012  00800100  00002b54  00002be8  2**0
                  CONTENTS, ALLOC, LOAD, DATA
  1 .text         00002b54  00000000  00000000  00000094  2**1
                  CONTENTS, ALLOC, LOAD, READONLY, CODE
  2 .bss          000001c7  00800112  00800112  00002bfa  2**0
                  ALLOC
  3 .stab         00007644  00000000  00000000  00002bfc  2**2
                  CONTENTS, READONLY, DEBUGGING
  4 .stabstr      00002ff5  00000000  00000000  0000a240  2**0
                  CONTENTS, READONLY, DEBUGGING
  5 .comment      00000011  00000000  00000000  0000d235  2**0
                  CONTENTS, READONLY
  6 .note.gnu.avr.deviceinfo 00000040  00000000  00000000  0000d248  2**2
                  CONTENTS, READONLY
  7 .avr.prop     0000002c  00000000  00000000  0000d288  2**0
                  CONTENTS, READONLY
  8 .debug_info   000005f4  00000000  00000000  0000d2b4  2**0
                  CONTENTS, READONLY, DEBUGGING
  9 .debug_abbrev 000005a2  00000000  00000000  0000d8a8  2**0
                  CONTENTS, READONLY, DEBUGGING
 10 .debug_line   0000001a  00000000  00000000  0000de4a  2**0
                  CONTENTS, READONLY, DEBUGGING
 11 .debug_str    00000208  00000000  00000000  0000de64  2**0
                  CONTENTS, READONLY, DEBUGGING

Disassembly of section .text:

00000000 <__vectors>:
       0:	0c 94 34 00 	jmp	0x68	; 0x68 <__ctors_end>
       4:	0c 94 51 00 	jmp	0xa2	; 0xa2 <__bad_interrupt>
       8:	0c 94 51 00 	jmp	0xa2	; 0xa2 <__bad_interrupt>
       c:	0c 94 51 00 	jmp	0xa2	; 0xa2 <__bad_interrupt>
      10:	0c 94 51 00 	jmp	0xa2	; 0xa2 <__bad_interrupt>
      14:	0c 94 51 00 	jmp	0xa2	; 0xa2 <__bad_interrupt>
      18:	0c 94 51 00 	jmp	0xa2	; 0xa2 <__bad_interrupt>
      1c:	0c 94 51 00 	jmp	0xa2	; 0xa2 <__bad_interrupt>
      20:	0c 94 51 00 	jmp	0xa2	; 0xa2 <__bad_interrupt>
      24:	0c 94 51 00 	jmp	0xa2	; 0xa2 <__bad_interrupt>
      28:	0c 94 51 00 	jmp	0xa2	; 0xa2 <__bad_interrupt>
      2c:	0c 94 51 00 	jmp	0xa2	; 0xa2 <__bad_interrupt>
      30:	0c 94 51 00 	jmp	0xa2	; 0xa2 <__bad_interrupt>
      34:	0c 94 51 00 	jmp	0xa2	; 0xa2 <__bad_interrupt>
      38:	0c 94 05 01 	jmp	0x20a	; 0x20a <__vector_14>
      3c:	0c 94 51 00 	jmp	0xa2	; 0xa2 <__bad_interrupt>
      40:	0c 94 51 00 	jmp	0xa2	; 0xa2 <__bad_interrupt>
      44:	0c 94 51 00 	jmp	0xa2	; 0xa2 <__bad_interrupt>
      48:	0c 94 51 00 	jmp	0xa2	; 0xa2 <__bad_interrupt>
      4c:	0c 94 51 00 	jmp	0xa2	; 0xa2 <__bad_interrupt>
      50:	0c 94 51 00 	jmp	0xa2	; 0xa2 <__bad_interrupt>
      54:	0c 94 51 00 	jmp	0xa2	; 0xa2 <__bad_interrupt>
      58:	0c 94 51 00 	jmp	0xa2	; 0xa2 <__bad_interrupt>
      5c:	0c 94 51 00 	jmp	0xa2	; 0xa2 <__bad_interrupt>
      60:	0c 94 04 10 	jmp	0x2008	; 0x2008 <__vector_24>
      64:	0c 94 51 00 	jmp	0xa2	; 0xa2 <__bad_interrupt>

00000068 <__ctors_end>:
      68:	11 24       	eor	r1, r1
      6a:	1f be       	out	0x3f, r1	; 63
      6c:	cf ef       	ldi	r28, 0xFF	; 255
      6e:	d8 e0       	ldi	r29, 0x08	; 8
      70:	de bf       	out	0x3e, r29	; 62
      72:	cd bf       	out	0x3d, r28	; 61

00000074 <__do_copy_data>:
      74:	11 e0       	ldi	r17, 0x01	; 1
      76:	a0 e0       	ldi	r26, 0x00	; 0
      78:	b1 e0       	ldi	r27, 0x01	; 1
      7a:	e4 e5       	ldi	r30, 0x54	; 84
      7c:	fb e2       	ldi	r31, 0x2B	; 43
      7e:	02 c0       	rjmp	.+4      	; 0x84 <__do_copy_data+0x10>
      80:	05 90       	lpm	r0, Z+
      82:	0d 92       	st	X+, r0
      84:	a2 31       	cpi	r26, 0x12	; 18
      86:	b1 07       	cpc	r27, r17
      88:	d9 f7       	brne	.-10     	; 0x80 <__do_copy_data+0xc>

0000008a <__do_clear_bss>:
      8a:	22 e0       	ldi	r18, 0x02	; 2
      8c:	a2 e1       	ldi	r26, 0x12	; 18
      8e:	b1 e0       	ldi	r27, 0x01	; 1
      90:	01 c0       	rjmp	.+2      	; 0x94 <.do_clear_bss_start>

00000092 <.do_clear_bss_loop>:
      92:	1d 92       	st	X+, r1

00000094 <.do_clear_bss_start>:
      94:	a9 3d       	cpi	r26, 0xD9	; 217
      96:	b2 07       	cpc	r27, r18
      98:	e1 f7       	brne	.-8      	; 0x92 <.do_clear_bss_loop>
      9a:	0e 94 ed 11 	call	0x23da	; 0x23da <main>
      9e:	0c 94 a8 15 	jmp	0x2b50	; 0x2b50 <_exit>

000000a2 <__bad_interrupt>:
      a2:	0c 94 00 00 	jmp	0	; 0x0 <__vectors>

000000a6 <increment_hour>:
    new_state_start();
}
// ************************************************************************************************
void increment_hour(void)
{
    if (clock_time->hour < 23)
      a6:	e0 91 05 02 	lds	r30, 0x0205	; 0x800205 <clock_time>
      aa:	f0 91 06 02 	lds	r31, 0x0206	; 0x800206 <clock_time+0x1>
      ae:	84 81       	ldd	r24, Z+4	; 0x04
      b0:	95 81       	ldd	r25, Z+5	; 0x05
      b2:	87 31       	cpi	r24, 0x17	; 23
      b4:	91 05       	cpc	r25, r1
      b6:	1c f0       	brlt	.+6      	; 0xbe <increment_hour+0x18>
    {
        clock_time->hour++;
    }
    else
    {
        clock_time->hour = 0;
      b8:	15 82       	std	Z+5, r1	; 0x05
      ba:	14 82       	std	Z+4, r1	; 0x04
    }
}
      bc:	08 95       	ret
// ************************************************************************************************
void increment_hour(void)
{
    if (clock_time->hour < 23)
    {
        clock_time->hour++;
      be:	01 96       	adiw	r24, 0x01	; 1
      c0:	95 83       	std	Z+5, r25	; 0x05
      c2:	84 83       	std	Z+4, r24	; 0x04
      c4:	08 95       	ret

000000c6 <decrement_hour>:
    }
}

void decrement_hour(void)
{
    if (clock_time->hour > 0)
      c6:	e0 91 05 02 	lds	r30, 0x0205	; 0x800205 <clock_time>
      ca:	f0 91 06 02 	lds	r31, 0x0206	; 0x800206 <clock_time+0x1>
      ce:	84 81       	ldd	r24, Z+4	; 0x04
      d0:	95 81       	ldd	r25, Z+5	; 0x05
      d2:	18 16       	cp	r1, r24
      d4:	19 06       	cpc	r1, r25
      d6:	24 f4       	brge	.+8      	; 0xe0 <decrement_hour+0x1a>
    {
        clock_time->hour--;
      d8:	01 97       	sbiw	r24, 0x01	; 1
      da:	95 83       	std	Z+5, r25	; 0x05
      dc:	84 83       	std	Z+4, r24	; 0x04
      de:	08 95       	ret
    }
    else
    {
        clock_time->hour = 23;
      e0:	87 e1       	ldi	r24, 0x17	; 23
      e2:	90 e0       	ldi	r25, 0x00	; 0
      e4:	95 83       	std	Z+5, r25	; 0x05
      e6:	84 83       	std	Z+4, r24	; 0x04
    }
}
      e8:	08 95       	ret

000000ea <increment_minute>:

void increment_minute(void)
{
    if (clock_time->min < 59)
      ea:	e0 91 05 02 	lds	r30, 0x0205	; 0x800205 <clock_time>
      ee:	f0 91 06 02 	lds	r31, 0x0206	; 0x800206 <clock_time+0x1>
      f2:	82 81       	ldd	r24, Z+2	; 0x02
      f4:	93 81       	ldd	r25, Z+3	; 0x03
      f6:	8b 33       	cpi	r24, 0x3B	; 59
      f8:	91 05       	cpc	r25, r1
      fa:	1c f0       	brlt	.+6      	; 0x102 <increment_minute+0x18>
    {
        clock_time->min++;
    }
    else
    {
        clock_time->min = 0;
      fc:	13 82       	std	Z+3, r1	; 0x03
      fe:	12 82       	std	Z+2, r1	; 0x02
    }
}
     100:	08 95       	ret

void increment_minute(void)
{
    if (clock_time->min < 59)
    {
        clock_time->min++;
     102:	01 96       	adiw	r24, 0x01	; 1
     104:	93 83       	std	Z+3, r25	; 0x03
     106:	82 83       	std	Z+2, r24	; 0x02
     108:	08 95       	ret

0000010a <decrement_minute>:
    }
}

void decrement_minute(void)
{
    if (clock_time->min > 0)
     10a:	e0 91 05 02 	lds	r30, 0x0205	; 0x800205 <clock_time>
     10e:	f0 91 06 02 	lds	r31, 0x0206	; 0x800206 <clock_time+0x1>
     112:	82 81       	ldd	r24, Z+2	; 0x02
     114:	93 81       	ldd	r25, Z+3	; 0x03
     116:	18 16       	cp	r1, r24
     118:	19 06       	cpc	r1, r25
     11a:	24 f4       	brge	.+8      	; 0x124 <decrement_minute+0x1a>
    {
        clock_time->min--;
     11c:	01 97       	sbiw	r24, 0x01	; 1
     11e:	93 83       	std	Z+3, r25	; 0x03
     120:	82 83       	std	Z+2, r24	; 0x02
     122:	08 95       	ret
    }
    else
    {
        clock_time->min = 59;
     124:	8b e3       	ldi	r24, 0x3B	; 59
     126:	90 e0       	ldi	r25, 0x00	; 0
     128:	93 83       	std	Z+3, r25	; 0x03
     12a:	82 83       	std	Z+2, r24	; 0x02
    }
}
     12c:	08 95       	ret

0000012e <increment_month>:

void increment_month(void)
{
    if (clock_time->mon < 12)
     12e:	e0 91 05 02 	lds	r30, 0x0205	; 0x800205 <clock_time>
     132:	f0 91 06 02 	lds	r31, 0x0206	; 0x800206 <clock_time+0x1>
     136:	80 85       	ldd	r24, Z+8	; 0x08
     138:	91 85       	ldd	r25, Z+9	; 0x09
     13a:	8c 30       	cpi	r24, 0x0C	; 12
     13c:	91 05       	cpc	r25, r1
     13e:	2c f0       	brlt	.+10     	; 0x14a <increment_month+0x1c>
    {
        clock_time->mon++;
    }
    else
    {
        clock_time->mon = 1;
     140:	81 e0       	ldi	r24, 0x01	; 1
     142:	90 e0       	ldi	r25, 0x00	; 0
     144:	91 87       	std	Z+9, r25	; 0x09
     146:	80 87       	std	Z+8, r24	; 0x08
    }
}
     148:	08 95       	ret

void increment_month(void)
{
    if (clock_time->mon < 12)
    {
        clock_time->mon++;
     14a:	01 96       	adiw	r24, 0x01	; 1
     14c:	91 87       	std	Z+9, r25	; 0x09
     14e:	80 87       	std	Z+8, r24	; 0x08
     150:	08 95       	ret

00000152 <decrement_month>:
    }
}

void decrement_month(void)
{
    if (clock_time->mon > 1)
     152:	e0 91 05 02 	lds	r30, 0x0205	; 0x800205 <clock_time>
     156:	f0 91 06 02 	lds	r31, 0x0206	; 0x800206 <clock_time+0x1>
     15a:	80 85       	ldd	r24, Z+8	; 0x08
     15c:	91 85       	ldd	r25, Z+9	; 0x09
     15e:	82 30       	cpi	r24, 0x02	; 2
     160:	91 05       	cpc	r25, r1
     162:	24 f0       	brlt	.+8      	; 0x16c <decrement_month+0x1a>
    {
        clock_time->mon--;
     164:	01 97       	sbiw	r24, 0x01	; 1
     166:	91 87       	std	Z+9, r25	; 0x09
     168:	80 87       	std	Z+8, r24	; 0x08
     16a:	08 95       	ret
    }
    else
    {
        clock_time->mon = 12;
     16c:	8c e0       	ldi	r24, 0x0C	; 12
     16e:	90 e0       	ldi	r25, 0x00	; 0
     170:	91 87       	std	Z+9, r25	; 0x09
     172:	80 87       	std	Z+8, r24	; 0x08
    }
}
     174:	08 95       	ret

00000176 <increment_day>:

void increment_day(void)
{
    if (clock_time->mday < 31)
     176:	e0 91 05 02 	lds	r30, 0x0205	; 0x800205 <clock_time>
     17a:	f0 91 06 02 	lds	r31, 0x0206	; 0x800206 <clock_time+0x1>
     17e:	86 81       	ldd	r24, Z+6	; 0x06
     180:	97 81       	ldd	r25, Z+7	; 0x07
     182:	8f 31       	cpi	r24, 0x1F	; 31
     184:	91 05       	cpc	r25, r1
     186:	2c f0       	brlt	.+10     	; 0x192 <increment_day+0x1c>
    {
        clock_time->mday++;
    }
    else
    {
        clock_time->mday = 1;
     188:	81 e0       	ldi	r24, 0x01	; 1
     18a:	90 e0       	ldi	r25, 0x00	; 0
     18c:	97 83       	std	Z+7, r25	; 0x07
     18e:	86 83       	std	Z+6, r24	; 0x06
    }
}
     190:	08 95       	ret

void increment_day(void)
{
    if (clock_time->mday < 31)
    {
        clock_time->mday++;
     192:	01 96       	adiw	r24, 0x01	; 1
     194:	97 83       	std	Z+7, r25	; 0x07
     196:	86 83       	std	Z+6, r24	; 0x06
     198:	08 95       	ret

0000019a <decrement_day>:
    }
}

void decrement_day(void)
{
    if (clock_time->mday > 1)
     19a:	e0 91 05 02 	lds	r30, 0x0205	; 0x800205 <clock_time>
     19e:	f0 91 06 02 	lds	r31, 0x0206	; 0x800206 <clock_time+0x1>
     1a2:	86 81       	ldd	r24, Z+6	; 0x06
     1a4:	97 81       	ldd	r25, Z+7	; 0x07
     1a6:	82 30       	cpi	r24, 0x02	; 2
     1a8:	91 05       	cpc	r25, r1
     1aa:	24 f0       	brlt	.+8      	; 0x1b4 <decrement_day+0x1a>
    {
        clock_time->mday--;
     1ac:	01 97       	sbiw	r24, 0x01	; 1
     1ae:	97 83       	std	Z+7, r25	; 0x07
     1b0:	86 83       	std	Z+6, r24	; 0x06
     1b2:	08 95       	ret
    }
    else
    {
        clock_time->mday = 31;
     1b4:	8f e1       	ldi	r24, 0x1F	; 31
     1b6:	90 e0       	ldi	r25, 0x00	; 0
     1b8:	97 83       	std	Z+7, r25	; 0x07
     1ba:	86 83       	std	Z+6, r24	; 0x06
    }
}
     1bc:	08 95       	ret

000001be <increment_year>:

void increment_year(void)
{
    if (clock_time->year < MAX_YEAR)
     1be:	e0 91 05 02 	lds	r30, 0x0205	; 0x800205 <clock_time>
     1c2:	f0 91 06 02 	lds	r31, 0x0206	; 0x800206 <clock_time+0x1>
     1c6:	82 85       	ldd	r24, Z+10	; 0x0a
     1c8:	93 85       	ldd	r25, Z+11	; 0x0b
     1ca:	8f 3c       	cpi	r24, 0xCF	; 207
     1cc:	27 e0       	ldi	r18, 0x07	; 7
     1ce:	92 07       	cpc	r25, r18
     1d0:	2c f0       	brlt	.+10     	; 0x1dc <increment_year+0x1e>
    {
        clock_time->year++;
    }
    else
    {
        clock_time->year = MIN_YEAR;
     1d2:	8c e6       	ldi	r24, 0x6C	; 108
     1d4:	97 e0       	ldi	r25, 0x07	; 7
     1d6:	93 87       	std	Z+11, r25	; 0x0b
     1d8:	82 87       	std	Z+10, r24	; 0x0a
    }
}
     1da:	08 95       	ret

void increment_year(void)
{
    if (clock_time->year < MAX_YEAR)
    {
        clock_time->year++;
     1dc:	01 96       	adiw	r24, 0x01	; 1
     1de:	93 87       	std	Z+11, r25	; 0x0b
     1e0:	82 87       	std	Z+10, r24	; 0x0a
     1e2:	08 95       	ret

000001e4 <decrement_year>:
    }
}

void decrement_year(void)
{
    if (clock_time->year > MIN_YEAR)
     1e4:	e0 91 05 02 	lds	r30, 0x0205	; 0x800205 <clock_time>
     1e8:	f0 91 06 02 	lds	r31, 0x0206	; 0x800206 <clock_time+0x1>
     1ec:	82 85       	ldd	r24, Z+10	; 0x0a
     1ee:	93 85       	ldd	r25, Z+11	; 0x0b
     1f0:	8d 36       	cpi	r24, 0x6D	; 109
     1f2:	27 e0       	ldi	r18, 0x07	; 7
     1f4:	92 07       	cpc	r25, r18
     1f6:	2c f4       	brge	.+10     	; 0x202 <decrement_year+0x1e>
    {
        clock_time->year--;
    }
    else
    {
        clock_time->year = MAX_YEAR;
     1f8:	8f ec       	ldi	r24, 0xCF	; 207
     1fa:	97 e0       	ldi	r25, 0x07	; 7
     1fc:	93 87       	std	Z+11, r25	; 0x0b
     1fe:	82 87       	std	Z+10, r24	; 0x0a
    }
}
     200:	08 95       	ret

void decrement_year(void)
{
    if (clock_time->year > MIN_YEAR)
    {
        clock_time->year--;
     202:	01 97       	sbiw	r24, 0x01	; 1
     204:	93 87       	std	Z+11, r25	; 0x0b
     206:	82 87       	std	Z+10, r24	; 0x0a
     208:	08 95       	ret

0000020a <__vector_14>:

uint32_t prev_millis_read_rtc;

// interrupts
ISR(TIMER0_COMPA_vect)
{
     20a:	1f 92       	push	r1
     20c:	0f 92       	push	r0
     20e:	0f b6       	in	r0, 0x3f	; 63
     210:	0f 92       	push	r0
     212:	11 24       	eor	r1, r1
     214:	2f 93       	push	r18
     216:	3f 93       	push	r19
     218:	4f 93       	push	r20
     21a:	5f 93       	push	r21
     21c:	6f 93       	push	r22
     21e:	7f 93       	push	r23
     220:	8f 93       	push	r24
     222:	9f 93       	push	r25
     224:	af 93       	push	r26
     226:	bf 93       	push	r27
     228:	ef 93       	push	r30
     22a:	ff 93       	push	r31
    millis_timer_ISR_loop();
     22c:	0e 94 36 02 	call	0x46c	; 0x46c <millis_timer_ISR_loop>
    // piezo_loop_ISR();
    seven_segment_loop_isr();
     230:	0e 94 f2 04 	call	0x9e4	; 0x9e4 <seven_segment_loop_isr>
}
     234:	ff 91       	pop	r31
     236:	ef 91       	pop	r30
     238:	bf 91       	pop	r27
     23a:	af 91       	pop	r26
     23c:	9f 91       	pop	r25
     23e:	8f 91       	pop	r24
     240:	7f 91       	pop	r23
     242:	6f 91       	pop	r22
     244:	5f 91       	pop	r21
     246:	4f 91       	pop	r20
     248:	3f 91       	pop	r19
     24a:	2f 91       	pop	r18
     24c:	0f 90       	pop	r0
     24e:	0f be       	out	0x3f, r0	; 63
     250:	0f 90       	pop	r0
     252:	1f 90       	pop	r1
     254:	18 95       	reti

00000256 <new_state_start>:
 * set the state_start and display_updated flags false when a new main FSM state
 * is entered.
 */
void new_state_start()
{
    state_start = false;
     256:	10 92 dd 01 	sts	0x01DD, r1	; 0x8001dd <state_start>
    display_updated = false;
     25a:	10 92 dc 01 	sts	0x01DC, r1	; 0x8001dc <display_updated>
    seven_segment_flash_colon(0);
     25e:	80 e0       	ldi	r24, 0x00	; 0
     260:	0e 94 2d 06 	call	0xc5a	; 0xc5a <seven_segment_flash_colon>
    seven_segment_flash_digits_hours(0);
     264:	80 e0       	ldi	r24, 0x00	; 0
     266:	0e 94 33 06 	call	0xc66	; 0xc66 <seven_segment_flash_digits_hours>
    seven_segment_flash_digits_minutes(0);
     26a:	80 e0       	ldi	r24, 0x00	; 0
     26c:	0e 94 30 06 	call	0xc60	; 0xc60 <seven_segment_flash_digits_minutes>
    seven_segment_flash_all_digits(0);
     270:	80 e0       	ldi	r24, 0x00	; 0
     272:	0c 94 36 06 	jmp	0xc6c	; 0xc6c <seven_segment_flash_all_digits>

00000276 <increment_main_state>:
/**
 * button callback to increment through all main alarm clock FSM states.
 */
void increment_main_state(void)
{
    if (main_state == MAIN_STATE_TESTING)
     276:	80 91 b4 01 	lds	r24, 0x01B4	; 0x8001b4 <main_state>
     27a:	90 91 b5 01 	lds	r25, 0x01B5	; 0x8001b5 <main_state+0x1>
     27e:	06 97       	sbiw	r24, 0x06	; 6
     280:	71 f0       	breq	.+28     	; 0x29e <increment_main_state+0x28>
    {
        main_state = MAIN_STATE_HOUR_MIN;
    }
    else
    {
        main_state++;
     282:	80 91 b4 01 	lds	r24, 0x01B4	; 0x8001b4 <main_state>
     286:	90 91 b5 01 	lds	r25, 0x01B5	; 0x8001b5 <main_state+0x1>
     28a:	01 96       	adiw	r24, 0x01	; 1
     28c:	90 93 b5 01 	sts	0x01B5, r25	; 0x8001b5 <main_state+0x1>
     290:	80 93 b4 01 	sts	0x01B4, r24	; 0x8001b4 <main_state>
    }
    main_state_swapped = true;
     294:	81 e0       	ldi	r24, 0x01	; 1
     296:	80 93 04 02 	sts	0x0204, r24	; 0x800204 <main_state_swapped>
    new_state_start();
     29a:	0c 94 2b 01 	jmp	0x256	; 0x256 <new_state_start>
 */
void increment_main_state(void)
{
    if (main_state == MAIN_STATE_TESTING)
    {
        main_state = MAIN_STATE_HOUR_MIN;
     29e:	10 92 b5 01 	sts	0x01B5, r1	; 0x8001b5 <main_state+0x1>
     2a2:	10 92 b4 01 	sts	0x01B4, r1	; 0x8001b4 <main_state>
    }
    else
    {
        main_state++;
    }
    main_state_swapped = true;
     2a6:	81 e0       	ldi	r24, 0x01	; 1
     2a8:	80 93 04 02 	sts	0x0204, r24	; 0x800204 <main_state_swapped>
    new_state_start();
     2ac:	0c 94 2b 01 	jmp	0x256	; 0x256 <new_state_start>

000002b0 <decrement_main_state>:
/**
 * button callback to decrement through all main alarm clock FSM states.
 */
void decrement_main_state(void)
{
    if (main_state == MAIN_STATE_HOUR_MIN)
     2b0:	80 91 b4 01 	lds	r24, 0x01B4	; 0x8001b4 <main_state>
     2b4:	90 91 b5 01 	lds	r25, 0x01B5	; 0x8001b5 <main_state+0x1>
     2b8:	89 2b       	or	r24, r25
     2ba:	71 f0       	breq	.+28     	; 0x2d8 <decrement_main_state+0x28>
    {
        main_state = MAIN_STATE_TESTING;
    }
    else
    {
        main_state--;
     2bc:	80 91 b4 01 	lds	r24, 0x01B4	; 0x8001b4 <main_state>
     2c0:	90 91 b5 01 	lds	r25, 0x01B5	; 0x8001b5 <main_state+0x1>
     2c4:	01 97       	sbiw	r24, 0x01	; 1
     2c6:	90 93 b5 01 	sts	0x01B5, r25	; 0x8001b5 <main_state+0x1>
     2ca:	80 93 b4 01 	sts	0x01B4, r24	; 0x8001b4 <main_state>
    }
    main_state_swapped = true;
     2ce:	81 e0       	ldi	r24, 0x01	; 1
     2d0:	80 93 04 02 	sts	0x0204, r24	; 0x800204 <main_state_swapped>
    new_state_start();
     2d4:	0c 94 2b 01 	jmp	0x256	; 0x256 <new_state_start>
 */
void decrement_main_state(void)
{
    if (main_state == MAIN_STATE_HOUR_MIN)
    {
        main_state = MAIN_STATE_TESTING;
     2d8:	86 e0       	ldi	r24, 0x06	; 6
     2da:	90 e0       	ldi	r25, 0x00	; 0
     2dc:	90 93 b5 01 	sts	0x01B5, r25	; 0x8001b5 <main_state+0x1>
     2e0:	80 93 b4 01 	sts	0x01B4, r24	; 0x8001b4 <main_state>
    }
    else
    {
        main_state--;
    }
    main_state_swapped = true;
     2e4:	81 e0       	ldi	r24, 0x01	; 1
     2e6:	80 93 04 02 	sts	0x0204, r24	; 0x800204 <main_state_swapped>
    new_state_start();
     2ea:	0c 94 2b 01 	jmp	0x256	; 0x256 <new_state_start>

000002ee <swap_hour_min_state>:

/* swap through the different states in the hour minute state */
void swap_hour_min_state(void)
{
    /* update RTC time when exiting the hour and minute adjustment states */
    switch (hour_min_state)
     2ee:	80 91 b0 01 	lds	r24, 0x01B0	; 0x8001b0 <hour_min_state>
     2f2:	90 91 b1 01 	lds	r25, 0x01B1	; 0x8001b1 <hour_min_state+0x1>
     2f6:	01 97       	sbiw	r24, 0x01	; 1
     2f8:	02 97       	sbiw	r24, 0x02	; 2
     2fa:	a8 f0       	brcs	.+42     	; 0x326 <swap_hour_min_state+0x38>
        rtc_set_time(clock_time);
        break;
    default:
        break;
    }
    hour_min_state++;
     2fc:	80 91 b0 01 	lds	r24, 0x01B0	; 0x8001b0 <hour_min_state>
     300:	90 91 b1 01 	lds	r25, 0x01B1	; 0x8001b1 <hour_min_state+0x1>
     304:	01 96       	adiw	r24, 0x01	; 1
     306:	90 93 b1 01 	sts	0x01B1, r25	; 0x8001b1 <hour_min_state+0x1>
     30a:	80 93 b0 01 	sts	0x01B0, r24	; 0x8001b0 <hour_min_state>
    if (hour_min_state == HOUR_MIN_STATE_END)
     30e:	80 91 b0 01 	lds	r24, 0x01B0	; 0x8001b0 <hour_min_state>
     312:	90 91 b1 01 	lds	r25, 0x01B1	; 0x8001b1 <hour_min_state+0x1>
     316:	03 97       	sbiw	r24, 0x03	; 3
     318:	21 f4       	brne	.+8      	; 0x322 <swap_hour_min_state+0x34>
    {
        hour_min_state = HOUR_MIN_STATE_DISPLAY;
     31a:	10 92 b1 01 	sts	0x01B1, r1	; 0x8001b1 <hour_min_state+0x1>
     31e:	10 92 b0 01 	sts	0x01B0, r1	; 0x8001b0 <hour_min_state>
    }
    new_state_start();
     322:	0c 94 2b 01 	jmp	0x256	; 0x256 <new_state_start>
    switch (hour_min_state)
    {
    case HOUR_MIN_STATE_ADJUST_HOUR:

    case HOUR_MIN_STATE_ADJUST_MIN:
        clock_time->sec = 0;
     326:	80 91 05 02 	lds	r24, 0x0205	; 0x800205 <clock_time>
     32a:	90 91 06 02 	lds	r25, 0x0206	; 0x800206 <clock_time+0x1>
     32e:	fc 01       	movw	r30, r24
     330:	11 82       	std	Z+1, r1	; 0x01
     332:	10 82       	st	Z, r1
        rtc_set_time(clock_time);
     334:	0e 94 3a 0a 	call	0x1474	; 0x1474 <rtc_set_time>
        break;
     338:	e1 cf       	rjmp	.-62     	; 0x2fc <swap_hour_min_state+0xe>

0000033a <swap_month_day_state>:

/* swap through the different states in the month day state */
void swap_month_day_state(void)
{
    /* update RTC time when exiting the month and day adjustment states */
    switch (month_day_state)
     33a:	80 91 88 01 	lds	r24, 0x0188	; 0x800188 <month_day_state>
     33e:	90 91 89 01 	lds	r25, 0x0189	; 0x800189 <month_day_state+0x1>
     342:	01 97       	sbiw	r24, 0x01	; 1
     344:	02 97       	sbiw	r24, 0x02	; 2
     346:	a8 f0       	brcs	.+42     	; 0x372 <swap_month_day_state+0x38>
        rtc_set_time(clock_time);
        break;
    default:
        break;
    }
    month_day_state++;
     348:	80 91 88 01 	lds	r24, 0x0188	; 0x800188 <month_day_state>
     34c:	90 91 89 01 	lds	r25, 0x0189	; 0x800189 <month_day_state+0x1>
     350:	01 96       	adiw	r24, 0x01	; 1
     352:	90 93 89 01 	sts	0x0189, r25	; 0x800189 <month_day_state+0x1>
     356:	80 93 88 01 	sts	0x0188, r24	; 0x800188 <month_day_state>
    if (month_day_state == MONTH_DAY_STATE_END)
     35a:	80 91 88 01 	lds	r24, 0x0188	; 0x800188 <month_day_state>
     35e:	90 91 89 01 	lds	r25, 0x0189	; 0x800189 <month_day_state+0x1>
     362:	03 97       	sbiw	r24, 0x03	; 3
     364:	21 f4       	brne	.+8      	; 0x36e <swap_month_day_state+0x34>
    {
        month_day_state = MONTH_DAY_STATE_DISPLAY;
     366:	10 92 89 01 	sts	0x0189, r1	; 0x800189 <month_day_state+0x1>
     36a:	10 92 88 01 	sts	0x0188, r1	; 0x800188 <month_day_state>
    }
    new_state_start();
     36e:	0c 94 2b 01 	jmp	0x256	; 0x256 <new_state_start>
    /* update RTC time when exiting the month and day adjustment states */
    switch (month_day_state)
    {
    case MONTH_DAY_STATE_ADJUST_MONTH:
    case MONTH_DAY_STATE_ADJUST_DAY:
        rtc_set_time(clock_time);
     372:	80 91 05 02 	lds	r24, 0x0205	; 0x800205 <clock_time>
     376:	90 91 06 02 	lds	r25, 0x0206	; 0x800206 <clock_time+0x1>
     37a:	0e 94 3a 0a 	call	0x1474	; 0x1474 <rtc_set_time>
        break;
     37e:	e4 cf       	rjmp	.-56     	; 0x348 <swap_month_day_state+0xe>

00000380 <swap_year_state>:

/* swap through the different states in the year state */
void swap_year_state(void)
{
    /* update RTC time when exiting the year adjustment states */
    switch (year_state)
     380:	80 91 86 01 	lds	r24, 0x0186	; 0x800186 <year_state>
     384:	90 91 87 01 	lds	r25, 0x0187	; 0x800187 <year_state+0x1>
     388:	01 97       	sbiw	r24, 0x01	; 1
     38a:	a9 f0       	breq	.+42     	; 0x3b6 <swap_year_state+0x36>
        rtc_set_time(clock_time);
        break;
    default:
        break;
    }
    year_state++;
     38c:	80 91 86 01 	lds	r24, 0x0186	; 0x800186 <year_state>
     390:	90 91 87 01 	lds	r25, 0x0187	; 0x800187 <year_state+0x1>
     394:	01 96       	adiw	r24, 0x01	; 1
     396:	90 93 87 01 	sts	0x0187, r25	; 0x800187 <year_state+0x1>
     39a:	80 93 86 01 	sts	0x0186, r24	; 0x800186 <year_state>
    if (year_state == YEAR_STATE_END)
     39e:	80 91 86 01 	lds	r24, 0x0186	; 0x800186 <year_state>
     3a2:	90 91 87 01 	lds	r25, 0x0187	; 0x800187 <year_state+0x1>
     3a6:	02 97       	sbiw	r24, 0x02	; 2
     3a8:	21 f4       	brne	.+8      	; 0x3b2 <swap_year_state+0x32>
    {
        year_state = YEAR_STATE_DISPLAY;
     3aa:	10 92 87 01 	sts	0x0187, r1	; 0x800187 <year_state+0x1>
     3ae:	10 92 86 01 	sts	0x0186, r1	; 0x800186 <year_state>
    }
    new_state_start();
     3b2:	0c 94 2b 01 	jmp	0x256	; 0x256 <new_state_start>
{
    /* update RTC time when exiting the year adjustment states */
    switch (year_state)
    {
    case YEAR_STATE_ADJUST_YEAR:
        rtc_set_time(clock_time);
     3b6:	80 91 05 02 	lds	r24, 0x0205	; 0x800205 <clock_time>
     3ba:	90 91 06 02 	lds	r25, 0x0206	; 0x800206 <clock_time+0x1>
     3be:	0e 94 3a 0a 	call	0x1474	; 0x1474 <rtc_set_time>
        break;
     3c2:	e4 cf       	rjmp	.-56     	; 0x38c <swap_year_state+0xc>

000003c4 <swap_testing_state>:
}

/* swap through the different states in the display testing state */
void swap_testing_state(void)
{
    testing_state++;
     3c4:	80 91 ae 01 	lds	r24, 0x01AE	; 0x8001ae <testing_state>
     3c8:	90 91 af 01 	lds	r25, 0x01AF	; 0x8001af <testing_state+0x1>
     3cc:	01 96       	adiw	r24, 0x01	; 1
     3ce:	90 93 af 01 	sts	0x01AF, r25	; 0x8001af <testing_state+0x1>
     3d2:	80 93 ae 01 	sts	0x01AE, r24	; 0x8001ae <testing_state>
    if (testing_state == TESTING_STATE_END)
     3d6:	80 91 ae 01 	lds	r24, 0x01AE	; 0x8001ae <testing_state>
     3da:	90 91 af 01 	lds	r25, 0x01AF	; 0x8001af <testing_state+0x1>
     3de:	02 97       	sbiw	r24, 0x02	; 2
     3e0:	21 f4       	brne	.+8      	; 0x3ea <swap_testing_state+0x26>
    {
        testing_state = TESTING_STATE_ALL_OFF;
     3e2:	10 92 af 01 	sts	0x01AF, r1	; 0x8001af <testing_state+0x1>
     3e6:	10 92 ae 01 	sts	0x01AE, r1	; 0x8001ae <testing_state>
    }
    new_state_start();
     3ea:	0c 94 2b 01 	jmp	0x256	; 0x256 <new_state_start>

000003ee <swap_alarm_state>:
}

/* swap through the different states in the alarm state */
void swap_alarm_state(void)
{
    alarm_state++;
     3ee:	80 91 b2 01 	lds	r24, 0x01B2	; 0x8001b2 <alarm_state>
     3f2:	90 91 b3 01 	lds	r25, 0x01B3	; 0x8001b3 <alarm_state+0x1>
     3f6:	01 96       	adiw	r24, 0x01	; 1
     3f8:	90 93 b3 01 	sts	0x01B3, r25	; 0x8001b3 <alarm_state+0x1>
     3fc:	80 93 b2 01 	sts	0x01B2, r24	; 0x8001b2 <alarm_state>
    if (alarm_state == ALARM_STATE_END)
     400:	80 91 b2 01 	lds	r24, 0x01B2	; 0x8001b2 <alarm_state>
     404:	90 91 b3 01 	lds	r25, 0x01B3	; 0x8001b3 <alarm_state+0x1>
     408:	03 97       	sbiw	r24, 0x03	; 3
     40a:	21 f4       	brne	.+8      	; 0x414 <__EEPROM_REGION_LENGTH__+0x14>
    {
        alarm_state = ALARM_STATE_DISPLAY;
     40c:	10 92 b3 01 	sts	0x01B3, r1	; 0x8001b3 <alarm_state+0x1>
     410:	10 92 b2 01 	sts	0x01B2, r1	; 0x8001b2 <alarm_state>
    }
    new_state_start();
     414:	0c 94 2b 01 	jmp	0x256	; 0x256 <new_state_start>

00000418 <swap_temperature_state>:
}

/* swap through the different states in the temperature state */
void swap_temperature_state(void)
{
    temperature_state++;
     418:	80 91 02 02 	lds	r24, 0x0202	; 0x800202 <temperature_state>
     41c:	90 91 03 02 	lds	r25, 0x0203	; 0x800203 <temperature_state+0x1>
     420:	01 96       	adiw	r24, 0x01	; 1
     422:	90 93 03 02 	sts	0x0203, r25	; 0x800203 <temperature_state+0x1>
     426:	80 93 02 02 	sts	0x0202, r24	; 0x800202 <temperature_state>
    if (temperature_state == TEMPERATURE_STATE_END)
     42a:	80 91 02 02 	lds	r24, 0x0202	; 0x800202 <temperature_state>
     42e:	90 91 03 02 	lds	r25, 0x0203	; 0x800203 <temperature_state+0x1>
     432:	01 97       	sbiw	r24, 0x01	; 1
     434:	21 f4       	brne	.+8      	; 0x43e <swap_temperature_state+0x26>
    {
        temperature_state = TEMPERATURE_STATE_DISPLAY_TEMPERATURE;
     436:	10 92 03 02 	sts	0x0203, r1	; 0x800203 <temperature_state+0x1>
     43a:	10 92 02 02 	sts	0x0202, r1	; 0x800202 <temperature_state>
    }
    new_state_start();
     43e:	0c 94 2b 01 	jmp	0x256	; 0x256 <new_state_start>

00000442 <swap_humidity_state>:
}

/* swap through the different states in the humidity state */
void swap_humidity_state(void)
{
    humidity_state++;
     442:	80 91 b6 01 	lds	r24, 0x01B6	; 0x8001b6 <humidity_state>
     446:	90 91 b7 01 	lds	r25, 0x01B7	; 0x8001b7 <humidity_state+0x1>
     44a:	01 96       	adiw	r24, 0x01	; 1
     44c:	90 93 b7 01 	sts	0x01B7, r25	; 0x8001b7 <humidity_state+0x1>
     450:	80 93 b6 01 	sts	0x01B6, r24	; 0x8001b6 <humidity_state>
    if (humidity_state == HUMIDITY_STATE_END)
     454:	80 91 b6 01 	lds	r24, 0x01B6	; 0x8001b6 <humidity_state>
     458:	90 91 b7 01 	lds	r25, 0x01B7	; 0x8001b7 <humidity_state+0x1>
     45c:	01 97       	sbiw	r24, 0x01	; 1
     45e:	21 f4       	brne	.+8      	; 0x468 <swap_humidity_state+0x26>
    {
        humidity_state = HUMIDITY_STATE_DISPLAY_HUMIDITY;
     460:	10 92 b7 01 	sts	0x01B7, r1	; 0x8001b7 <humidity_state+0x1>
     464:	10 92 b6 01 	sts	0x01B6, r1	; 0x8001b6 <humidity_state>
    }
    new_state_start();
     468:	0c 94 2b 01 	jmp	0x256	; 0x256 <new_state_start>

0000046c <millis_timer_ISR_loop>:
/**
 * ISR TIMER0_COMPA_VECT runs every 1ms
 */
void millis_timer_ISR_loop(void)
{
    millis++;
     46c:	80 91 0f 02 	lds	r24, 0x020F	; 0x80020f <millis>
     470:	90 91 10 02 	lds	r25, 0x0210	; 0x800210 <millis+0x1>
     474:	a0 91 11 02 	lds	r26, 0x0211	; 0x800211 <millis+0x2>
     478:	b0 91 12 02 	lds	r27, 0x0212	; 0x800212 <millis+0x3>
     47c:	01 96       	adiw	r24, 0x01	; 1
     47e:	a1 1d       	adc	r26, r1
     480:	b1 1d       	adc	r27, r1
     482:	80 93 0f 02 	sts	0x020F, r24	; 0x80020f <millis>
     486:	90 93 10 02 	sts	0x0210, r25	; 0x800210 <millis+0x1>
     48a:	a0 93 11 02 	sts	0x0211, r26	; 0x800211 <millis+0x2>
     48e:	b0 93 12 02 	sts	0x0212, r27	; 0x800212 <millis+0x3>
}
     492:	08 95       	ret

00000494 <millis_timer_init>:
    // TCCR0A = 0x00;
    // TCCR0B = 0x00;
    // TCCR0B |= _BV(CS01) | _BV(CS00);
    // TIMSK0 |= _BV(TOIE0);
    // sei();
    millis = 0;
     494:	10 92 0f 02 	sts	0x020F, r1	; 0x80020f <millis>
     498:	10 92 10 02 	sts	0x0210, r1	; 0x800210 <millis+0x1>
     49c:	10 92 11 02 	sts	0x0211, r1	; 0x800211 <millis+0x2>
     4a0:	10 92 12 02 	sts	0x0212, r1	; 0x800212 <millis+0x3>

    TCCR0A = 0x00;
     4a4:	14 bc       	out	0x24, r1	; 36
    TCCR0B = 0x00;
     4a6:	15 bc       	out	0x25, r1	; 37
    // WGM0 = 0b010, CTC mode
    // COM0A = 0b00, COM0B = 0b00, normal port operation
    TCCR0A |= _BV(WGM01);
     4a8:	84 b5       	in	r24, 0x24	; 36
     4aa:	82 60       	ori	r24, 0x02	; 2
     4ac:	84 bd       	out	0x24, r24	; 36
    // CS0 = 0b011, prescaler 64
    // each tick is 4 us
    TCCR0B |= _BV(CS01) | _BV(CS00);
     4ae:	85 b5       	in	r24, 0x25	; 37
     4b0:	83 60       	ori	r24, 0x03	; 3
     4b2:	85 bd       	out	0x25, r24	; 37
    // TCNT0 counts from 0 to 249 (restart every 250 counts)
    OCR0A = 249;
     4b4:	89 ef       	ldi	r24, 0xF9	; 249
     4b6:	87 bd       	out	0x27, r24	; 39
    OCR0B = 0;
     4b8:	18 bc       	out	0x28, r1	; 40
    // OCIE0B = 0b1, OCIE0A = 0b1
    TIMSK0 |= _BV(OCIE0A);
     4ba:	ee e6       	ldi	r30, 0x6E	; 110
     4bc:	f0 e0       	ldi	r31, 0x00	; 0
     4be:	80 81       	ld	r24, Z
     4c0:	82 60       	ori	r24, 0x02	; 2
     4c2:	80 83       	st	Z, r24
    // TIMSK0 |= _BV(OCIE0B);
    // TIMSK0
    // TIFR0
    sei();
     4c4:	78 94       	sei
}
     4c6:	08 95       	ret

000004c8 <get_millis>:
 * @brief get current milliseconds since boot
 */
uint32_t get_millis(void)
{
    uint32_t m;
    ATOMIC_BLOCK(ATOMIC_RESTORESTATE)
     4c8:	2f b7       	in	r18, 0x3f	; 63
    return 1;
}

static __inline__ uint8_t __iCliRetVal(void)
{
    cli();
     4ca:	f8 94       	cli
    {
        m = millis;
     4cc:	60 91 0f 02 	lds	r22, 0x020F	; 0x80020f <millis>
     4d0:	70 91 10 02 	lds	r23, 0x0210	; 0x800210 <millis+0x1>
     4d4:	80 91 11 02 	lds	r24, 0x0211	; 0x800211 <millis+0x2>
     4d8:	90 91 12 02 	lds	r25, 0x0212	; 0x800212 <millis+0x3>
    (void)__s;
}

static __inline__ void __iRestore(const  uint8_t *__s)
{
    SREG = *__s;
     4dc:	2f bf       	out	0x3f, r18	; 63
    }
    return m;
}
     4de:	08 95       	ret

000004e0 <get_micros>:
/**
 * @brief get current microseconds since boot
 *  get_micros has a resolution of 4us.
 */
uint32_t get_micros(void)
{
     4e0:	0f 93       	push	r16
     4e2:	1f 93       	push	r17
    uint32_t m;
    uint8_t t;

    ATOMIC_BLOCK(ATOMIC_RESTORESTATE)
     4e4:	8f b7       	in	r24, 0x3f	; 63
    return 1;
}

static __inline__ uint8_t __iCliRetVal(void)
{
    cli();
     4e6:	f8 94       	cli
    {
        // m = micros;
        m = millis;
     4e8:	20 91 0f 02 	lds	r18, 0x020F	; 0x80020f <millis>
     4ec:	30 91 10 02 	lds	r19, 0x0210	; 0x800210 <millis+0x1>
     4f0:	40 91 11 02 	lds	r20, 0x0211	; 0x800211 <millis+0x2>
     4f4:	50 91 12 02 	lds	r21, 0x0212	; 0x800212 <millis+0x3>
        t = TCNT0;
     4f8:	e6 b5       	in	r30, 0x26	; 38
        // if timer has overflowed but ISR hasn't run yet
        if ((TIFR0 & (1 << OCF0A)) && (t < 249))
     4fa:	a9 9b       	sbis	0x15, 1	; 21
     4fc:	06 c0       	rjmp	.+12     	; 0x50a <get_micros+0x2a>
     4fe:	e9 3f       	cpi	r30, 0xF9	; 249
     500:	20 f4       	brcc	.+8      	; 0x50a <get_micros+0x2a>
        {
            m++;
     502:	2f 5f       	subi	r18, 0xFF	; 255
     504:	3f 4f       	sbci	r19, 0xFF	; 255
     506:	4f 4f       	sbci	r20, 0xFF	; 255
     508:	5f 4f       	sbci	r21, 0xFF	; 255
        }
        sei();
     50a:	78 94       	sei
    (void)__s;
}

static __inline__ void __iRestore(const  uint8_t *__s)
{
    SREG = *__s;
     50c:	8f bf       	out	0x3f, r24	; 63
    }
    return m * 1000 + t * 4;
     50e:	a8 ee       	ldi	r26, 0xE8	; 232
     510:	b3 e0       	ldi	r27, 0x03	; 3
     512:	0e 94 58 14 	call	0x28b0	; 0x28b0 <__muluhisi3>
     516:	2e 2f       	mov	r18, r30
     518:	30 e0       	ldi	r19, 0x00	; 0
     51a:	22 0f       	add	r18, r18
     51c:	33 1f       	adc	r19, r19
     51e:	22 0f       	add	r18, r18
     520:	33 1f       	adc	r19, r19
     522:	89 01       	movw	r16, r18
     524:	33 0f       	add	r19, r19
     526:	22 0b       	sbc	r18, r18
     528:	33 0b       	sbc	r19, r19
     52a:	60 0f       	add	r22, r16
     52c:	71 1f       	adc	r23, r17
     52e:	82 1f       	adc	r24, r18
     530:	93 1f       	adc	r25, r19
     532:	1f 91       	pop	r17
     534:	0f 91       	pop	r16
     536:	08 95       	ret

00000538 <gpio_set_pin_output>:
#include "gpio.h"

void gpio_set_pin_output(Pin *pin)
{
     538:	dc 01       	movw	r26, r24
    *pin->ddr |= _BV(pin->pin_num);
     53a:	ed 91       	ld	r30, X+
     53c:	fc 91       	ld	r31, X
     53e:	11 97       	sbiw	r26, 0x01	; 1
     540:	90 81       	ld	r25, Z
     542:	16 96       	adiw	r26, 0x06	; 6
     544:	8c 91       	ld	r24, X
     546:	21 e0       	ldi	r18, 0x01	; 1
     548:	30 e0       	ldi	r19, 0x00	; 0
     54a:	01 c0       	rjmp	.+2      	; 0x54e <gpio_set_pin_output+0x16>
     54c:	22 0f       	add	r18, r18
     54e:	8a 95       	dec	r24
     550:	ea f7       	brpl	.-6      	; 0x54c <gpio_set_pin_output+0x14>
     552:	89 2f       	mov	r24, r25
     554:	82 2b       	or	r24, r18
     556:	80 83       	st	Z, r24
}
     558:	08 95       	ret

0000055a <gpio_set_pin_input>:

void gpio_set_pin_input(Pin *pin)
{
     55a:	dc 01       	movw	r26, r24
    *pin->ddr &= ~_BV(pin->pin_num);
     55c:	ed 91       	ld	r30, X+
     55e:	fc 91       	ld	r31, X
     560:	11 97       	sbiw	r26, 0x01	; 1
     562:	20 81       	ld	r18, Z
     564:	16 96       	adiw	r26, 0x06	; 6
     566:	3c 91       	ld	r19, X
     568:	81 e0       	ldi	r24, 0x01	; 1
     56a:	90 e0       	ldi	r25, 0x00	; 0
     56c:	01 c0       	rjmp	.+2      	; 0x570 <gpio_set_pin_input+0x16>
     56e:	88 0f       	add	r24, r24
     570:	3a 95       	dec	r19
     572:	ea f7       	brpl	.-6      	; 0x56e <gpio_set_pin_input+0x14>
     574:	80 95       	com	r24
     576:	82 23       	and	r24, r18
     578:	80 83       	st	Z, r24
}
     57a:	08 95       	ret

0000057c <gpio_set_pin_input_pullup>:

void gpio_set_pin_input_pullup(Pin *pin)
{
     57c:	fc 01       	movw	r30, r24
    *pin->ddr |= _BV(pin->pin_num);
}

void gpio_set_pin_input(Pin *pin)
{
    *pin->ddr &= ~_BV(pin->pin_num);
     57e:	a0 81       	ld	r26, Z
     580:	b1 81       	ldd	r27, Z+1	; 0x01
     582:	8c 91       	ld	r24, X
     584:	96 81       	ldd	r25, Z+6	; 0x06
     586:	41 e0       	ldi	r20, 0x01	; 1
     588:	50 e0       	ldi	r21, 0x00	; 0
     58a:	9a 01       	movw	r18, r20
     58c:	01 c0       	rjmp	.+2      	; 0x590 <gpio_set_pin_input_pullup+0x14>
     58e:	22 0f       	add	r18, r18
     590:	9a 95       	dec	r25
     592:	ea f7       	brpl	.-6      	; 0x58e <gpio_set_pin_input_pullup+0x12>
     594:	20 95       	com	r18
     596:	28 23       	and	r18, r24
     598:	2c 93       	st	X, r18
    }
}

void gpio_set_pin_high(Pin *pin)
{
    *pin->port |= _BV(pin->pin_num);
     59a:	a2 81       	ldd	r26, Z+2	; 0x02
     59c:	b3 81       	ldd	r27, Z+3	; 0x03
     59e:	8c 91       	ld	r24, X
     5a0:	96 81       	ldd	r25, Z+6	; 0x06
     5a2:	01 c0       	rjmp	.+2      	; 0x5a6 <gpio_set_pin_input_pullup+0x2a>
     5a4:	44 0f       	add	r20, r20
     5a6:	9a 95       	dec	r25
     5a8:	ea f7       	brpl	.-6      	; 0x5a4 <gpio_set_pin_input_pullup+0x28>
     5aa:	48 2b       	or	r20, r24
     5ac:	4c 93       	st	X, r20

void gpio_set_pin_input_pullup(Pin *pin)
{
    gpio_set_pin_input(pin);
    gpio_set_pin_high(pin);
}
     5ae:	08 95       	ret

000005b0 <gpio_toggle_pin_mode>:

void gpio_toggle_pin_mode(Pin *pin)
{
     5b0:	dc 01       	movw	r26, r24
    *pin->ddr ^= _BV(pin->pin_num);
     5b2:	ed 91       	ld	r30, X+
     5b4:	fc 91       	ld	r31, X
     5b6:	11 97       	sbiw	r26, 0x01	; 1
     5b8:	90 81       	ld	r25, Z
     5ba:	16 96       	adiw	r26, 0x06	; 6
     5bc:	8c 91       	ld	r24, X
     5be:	21 e0       	ldi	r18, 0x01	; 1
     5c0:	30 e0       	ldi	r19, 0x00	; 0
     5c2:	01 c0       	rjmp	.+2      	; 0x5c6 <gpio_toggle_pin_mode+0x16>
     5c4:	22 0f       	add	r18, r18
     5c6:	8a 95       	dec	r24
     5c8:	ea f7       	brpl	.-6      	; 0x5c4 <gpio_toggle_pin_mode+0x14>
     5ca:	89 2f       	mov	r24, r25
     5cc:	82 27       	eor	r24, r18
     5ce:	80 83       	st	Z, r24
}
     5d0:	08 95       	ret

000005d2 <gpio_read_pin>:

uint8_t gpio_read_pin(Pin *pin)
{
    if (*pin->pin & _BV(pin->pin_num))
     5d2:	dc 01       	movw	r26, r24
     5d4:	14 96       	adiw	r26, 0x04	; 4
     5d6:	ed 91       	ld	r30, X+
     5d8:	fc 91       	ld	r31, X
     5da:	15 97       	sbiw	r26, 0x05	; 5
     5dc:	20 81       	ld	r18, Z
     5de:	30 e0       	ldi	r19, 0x00	; 0
     5e0:	16 96       	adiw	r26, 0x06	; 6
     5e2:	8c 91       	ld	r24, X
     5e4:	f9 01       	movw	r30, r18
     5e6:	02 c0       	rjmp	.+4      	; 0x5ec <gpio_read_pin+0x1a>
     5e8:	f5 95       	asr	r31
     5ea:	e7 95       	ror	r30
     5ec:	8a 95       	dec	r24
     5ee:	e2 f7       	brpl	.-8      	; 0x5e8 <gpio_read_pin+0x16>
     5f0:	cf 01       	movw	r24, r30
    }
    else
    {
        return 0;
    }
}
     5f2:	81 70       	andi	r24, 0x01	; 1
     5f4:	08 95       	ret

000005f6 <gpio_set_pin_val>:
void gpio_set_pin_val(Pin *pin, uint8_t value)
{
     5f6:	dc 01       	movw	r26, r24
     5f8:	12 96       	adiw	r26, 0x02	; 2
     5fa:	ed 91       	ld	r30, X+
     5fc:	fc 91       	ld	r31, X
     5fe:	13 97       	sbiw	r26, 0x03	; 3
     600:	16 96       	adiw	r26, 0x06	; 6
     602:	2c 91       	ld	r18, X
     604:	81 e0       	ldi	r24, 0x01	; 1
     606:	90 e0       	ldi	r25, 0x00	; 0
     608:	01 c0       	rjmp	.+2      	; 0x60c <gpio_set_pin_val+0x16>
     60a:	88 0f       	add	r24, r24
     60c:	2a 95       	dec	r18
     60e:	ea f7       	brpl	.-6      	; 0x60a <gpio_set_pin_val+0x14>
    }
}

void gpio_set_pin_high(Pin *pin)
{
    *pin->port |= _BV(pin->pin_num);
     610:	90 81       	ld	r25, Z
        return 0;
    }
}
void gpio_set_pin_val(Pin *pin, uint8_t value)
{
    if (value)
     612:	61 11       	cpse	r22, r1
     614:	04 c0       	rjmp	.+8      	; 0x61e <gpio_set_pin_val+0x28>
    *pin->port |= _BV(pin->pin_num);
}

void gpio_set_pin_low(Pin *pin)
{
    *pin->port &= ~_BV(pin->pin_num);
     616:	80 95       	com	r24
     618:	89 23       	and	r24, r25
     61a:	80 83       	st	Z, r24
    }
    else
    {
        gpio_set_pin_low(pin);
    }
}
     61c:	08 95       	ret

void gpio_set_pin_high(Pin *pin)
{
    *pin->port |= _BV(pin->pin_num);
     61e:	89 2b       	or	r24, r25
     620:	80 83       	st	Z, r24
     622:	08 95       	ret

00000624 <gpio_set_pin_high>:
        gpio_set_pin_low(pin);
    }
}

void gpio_set_pin_high(Pin *pin)
{
     624:	dc 01       	movw	r26, r24
    *pin->port |= _BV(pin->pin_num);
     626:	12 96       	adiw	r26, 0x02	; 2
     628:	ed 91       	ld	r30, X+
     62a:	fc 91       	ld	r31, X
     62c:	13 97       	sbiw	r26, 0x03	; 3
     62e:	90 81       	ld	r25, Z
     630:	16 96       	adiw	r26, 0x06	; 6
     632:	8c 91       	ld	r24, X
     634:	21 e0       	ldi	r18, 0x01	; 1
     636:	30 e0       	ldi	r19, 0x00	; 0
     638:	01 c0       	rjmp	.+2      	; 0x63c <gpio_set_pin_high+0x18>
     63a:	22 0f       	add	r18, r18
     63c:	8a 95       	dec	r24
     63e:	ea f7       	brpl	.-6      	; 0x63a <gpio_set_pin_high+0x16>
     640:	89 2f       	mov	r24, r25
     642:	82 2b       	or	r24, r18
     644:	80 83       	st	Z, r24
}
     646:	08 95       	ret

00000648 <gpio_set_pin_low>:

void gpio_set_pin_low(Pin *pin)
{
     648:	dc 01       	movw	r26, r24
    *pin->port &= ~_BV(pin->pin_num);
     64a:	12 96       	adiw	r26, 0x02	; 2
     64c:	ed 91       	ld	r30, X+
     64e:	fc 91       	ld	r31, X
     650:	13 97       	sbiw	r26, 0x03	; 3
     652:	20 81       	ld	r18, Z
     654:	16 96       	adiw	r26, 0x06	; 6
     656:	3c 91       	ld	r19, X
     658:	81 e0       	ldi	r24, 0x01	; 1
     65a:	90 e0       	ldi	r25, 0x00	; 0
     65c:	01 c0       	rjmp	.+2      	; 0x660 <gpio_set_pin_low+0x18>
     65e:	88 0f       	add	r24, r24
     660:	3a 95       	dec	r19
     662:	ea f7       	brpl	.-6      	; 0x65e <gpio_set_pin_low+0x16>
     664:	80 95       	com	r24
     666:	82 23       	and	r24, r18
     668:	80 83       	st	Z, r24
}
     66a:	08 95       	ret

0000066c <gpio_toggle_pin_output>:

void gpio_toggle_pin_output(Pin *pin)
{
     66c:	dc 01       	movw	r26, r24
    *pin->port ^= _BV(pin->pin_num);
     66e:	12 96       	adiw	r26, 0x02	; 2
     670:	ed 91       	ld	r30, X+
     672:	fc 91       	ld	r31, X
     674:	13 97       	sbiw	r26, 0x03	; 3
     676:	90 81       	ld	r25, Z
     678:	16 96       	adiw	r26, 0x06	; 6
     67a:	8c 91       	ld	r24, X
     67c:	21 e0       	ldi	r18, 0x01	; 1
     67e:	30 e0       	ldi	r19, 0x00	; 0
     680:	01 c0       	rjmp	.+2      	; 0x684 <gpio_toggle_pin_output+0x18>
     682:	22 0f       	add	r18, r18
     684:	8a 95       	dec	r24
     686:	ea f7       	brpl	.-6      	; 0x682 <gpio_toggle_pin_output+0x16>
     688:	89 2f       	mov	r24, r25
     68a:	82 27       	eor	r24, r18
     68c:	80 83       	st	Z, r24
     68e:	08 95       	ret

00000690 <button_setup>:
#include "button.h"

void button_setup(Button *btn)
{
     690:	cf 93       	push	r28
     692:	df 93       	push	r29
     694:	ec 01       	movw	r28, r24
    /*
    default time values
    */
    gpio_set_pin_input(&btn->button_pin);
     696:	0e 94 ad 02 	call	0x55a	; 0x55a <gpio_set_pin_input>
    gpio_set_pin_high(&btn->button_pin);
     69a:	ce 01       	movw	r24, r28
     69c:	0e 94 12 03 	call	0x624	; 0x624 <gpio_set_pin_high>
    btn->debounce_ms = 10;
     6a0:	8a e0       	ldi	r24, 0x0A	; 10
     6a2:	90 e0       	ldi	r25, 0x00	; 0
     6a4:	98 87       	std	Y+8, r25	; 0x08
     6a6:	8f 83       	std	Y+7, r24	; 0x07
    btn->click_period_timeout_ms = 60;
     6a8:	8c e3       	ldi	r24, 0x3C	; 60
     6aa:	90 e0       	ldi	r25, 0x00	; 0
     6ac:	9a 87       	std	Y+10, r25	; 0x0a
     6ae:	89 87       	std	Y+9, r24	; 0x09
    btn->longpress_ms = 1000;
     6b0:	88 ee       	ldi	r24, 0xE8	; 232
     6b2:	93 e0       	ldi	r25, 0x03	; 3
     6b4:	9c 87       	std	Y+12, r25	; 0x0c
     6b6:	8b 87       	std	Y+11, r24	; 0x0b
    btn->_state = BUTTON_STATE_INIT;
     6b8:	1a a2       	std	Y+34, r1	; 0x22
     6ba:	19 a2       	std	Y+33, r1	; 0x21
    btn->num_clicks = 0;
     6bc:	1b a2       	std	Y+35, r1	; 0x23
    btn->_debouncedBState = 1;
     6be:	81 e0       	ldi	r24, 0x01	; 1
     6c0:	8c 8b       	std	Y+20, r24	; 0x14
}
     6c2:	df 91       	pop	r29
     6c4:	cf 91       	pop	r28
     6c6:	08 95       	ret

000006c8 <button_set_debounce_ms>:
    button_fsm(btn, button_debounce(btn));
}

void button_set_debounce_ms(Button *btn, uint16_t ms)
{
    btn->debounce_ms = ms;
     6c8:	fc 01       	movw	r30, r24
     6ca:	70 87       	std	Z+8, r23	; 0x08
     6cc:	67 83       	std	Z+7, r22	; 0x07
}
     6ce:	08 95       	ret

000006d0 <button_set_click_ms>:

void button_set_click_ms(Button *btn, uint16_t ms)
{
    btn->click_period_timeout_ms = ms;
     6d0:	fc 01       	movw	r30, r24
     6d2:	72 87       	std	Z+10, r23	; 0x0a
     6d4:	61 87       	std	Z+9, r22	; 0x09
}
     6d6:	08 95       	ret

000006d8 <button_set_press_ms>:

void button_set_press_ms(Button *btn, uint16_t ms)
{
    btn->longpress_ms = ms;
     6d8:	fc 01       	movw	r30, r24
     6da:	74 87       	std	Z+12, r23	; 0x0c
     6dc:	63 87       	std	Z+11, r22	; 0x0b
}
     6de:	08 95       	ret

000006e0 <button_attach_single_click>:

void button_attach_single_click(Button *btn,
                                button_action_t action)
{
    btn->single_click_action = action;
     6e0:	fc 01       	movw	r30, r24
     6e2:	76 87       	std	Z+14, r23	; 0x0e
     6e4:	65 87       	std	Z+13, r22	; 0x0d
}
     6e6:	08 95       	ret

000006e8 <button_attach_double_click>:

void button_attach_double_click(Button *btn,
                                button_action_t action)
{
    btn->double_click_action = action;
     6e8:	fc 01       	movw	r30, r24
     6ea:	70 8b       	std	Z+16, r23	; 0x10
     6ec:	67 87       	std	Z+15, r22	; 0x0f
}
     6ee:	08 95       	ret

000006f0 <button_attach_long_press>:

void button_attach_long_press(Button *btn,
                              button_action_t action)
{
    btn->long_press_action = action;
     6f0:	fc 01       	movw	r30, r24
     6f2:	72 8b       	std	Z+18, r23	; 0x12
     6f4:	61 8b       	std	Z+17, r22	; 0x11
}
     6f6:	08 95       	ret

000006f8 <button_debounce>:

// , button_action_t f1, button_action_t f2
uint8_t button_debounce(Button *btn)
{
     6f8:	0f 93       	push	r16
     6fa:	1f 93       	push	r17
     6fc:	cf 93       	push	r28
     6fe:	df 93       	push	r29
     700:	ec 01       	movw	r28, r24
    btn->now = get_millis();
     702:	0e 94 64 02 	call	0x4c8	; 0x4c8 <get_millis>
     706:	6d 8b       	std	Y+21, r22	; 0x15
     708:	7e 8b       	std	Y+22, r23	; 0x16
     70a:	8f 8b       	std	Y+23, r24	; 0x17
     70c:	98 8f       	std	Y+24, r25	; 0x18
    uint8_t rawState = gpio_read_pin(&btn->button_pin);
     70e:	ce 01       	movw	r24, r28
     710:	0e 94 e9 02 	call	0x5d2	; 0x5d2 <gpio_read_pin>
    if (btn->_lastDebouncedBState == rawState)
     714:	9b 89       	ldd	r25, Y+19	; 0x13
     716:	98 17       	cp	r25, r24
     718:	79 f0       	breq	.+30     	; 0x738 <button_debounce+0x40>
            btn->_debouncedBState = rawState;
        }
    }
    else
    {
        btn->_lastDebouncedTime = btn->now;
     71a:	4d 89       	ldd	r20, Y+21	; 0x15
     71c:	5e 89       	ldd	r21, Y+22	; 0x16
     71e:	6f 89       	ldd	r22, Y+23	; 0x17
     720:	78 8d       	ldd	r23, Y+24	; 0x18
     722:	49 8f       	std	Y+25, r20	; 0x19
     724:	5a 8f       	std	Y+26, r21	; 0x1a
     726:	6b 8f       	std	Y+27, r22	; 0x1b
     728:	7c 8f       	std	Y+28, r23	; 0x1c
        btn->_lastDebouncedBState = rawState;
     72a:	8b 8b       	std	Y+19, r24	; 0x13
     72c:	8c 89       	ldd	r24, Y+20	; 0x14
    }
    return btn->_debouncedBState;
}
     72e:	df 91       	pop	r29
     730:	cf 91       	pop	r28
     732:	1f 91       	pop	r17
     734:	0f 91       	pop	r16
     736:	08 95       	ret
{
    btn->now = get_millis();
    uint8_t rawState = gpio_read_pin(&btn->button_pin);
    if (btn->_lastDebouncedBState == rawState)
    {
        if ((btn->now - btn->_lastDebouncedTime) > btn->debounce_ms)
     738:	0d 89       	ldd	r16, Y+21	; 0x15
     73a:	1e 89       	ldd	r17, Y+22	; 0x16
     73c:	2f 89       	ldd	r18, Y+23	; 0x17
     73e:	38 8d       	ldd	r19, Y+24	; 0x18
     740:	49 8d       	ldd	r20, Y+25	; 0x19
     742:	5a 8d       	ldd	r21, Y+26	; 0x1a
     744:	6b 8d       	ldd	r22, Y+27	; 0x1b
     746:	7c 8d       	ldd	r23, Y+28	; 0x1c
     748:	04 1b       	sub	r16, r20
     74a:	15 0b       	sbc	r17, r21
     74c:	26 0b       	sbc	r18, r22
     74e:	37 0b       	sbc	r19, r23
     750:	4f 81       	ldd	r20, Y+7	; 0x07
     752:	58 85       	ldd	r21, Y+8	; 0x08
     754:	70 e0       	ldi	r23, 0x00	; 0
     756:	60 e0       	ldi	r22, 0x00	; 0
     758:	40 17       	cp	r20, r16
     75a:	51 07       	cpc	r21, r17
     75c:	62 07       	cpc	r22, r18
     75e:	73 07       	cpc	r23, r19
     760:	28 f7       	brcc	.-54     	; 0x72c <button_debounce+0x34>
        {
            btn->_debouncedBState = rawState;
     762:	8c 8b       	std	Y+20, r24	; 0x14
    {
        btn->_lastDebouncedTime = btn->now;
        btn->_lastDebouncedBState = rawState;
    }
    return btn->_debouncedBState;
}
     764:	df 91       	pop	r29
     766:	cf 91       	pop	r28
     768:	1f 91       	pop	r17
     76a:	0f 91       	pop	r16
     76c:	08 95       	ret

0000076e <_newState>:

void _newState(Button *btn, enum button_state state)
{
     76e:	cf 93       	push	r28
     770:	df 93       	push	r29
     772:	ec 01       	movw	r28, r24
    btn->_state = state;
     774:	7a a3       	std	Y+34, r23	; 0x22
     776:	69 a3       	std	Y+33, r22	; 0x21
    btn->_startTime = get_millis();
     778:	0e 94 64 02 	call	0x4c8	; 0x4c8 <get_millis>
     77c:	6d 8f       	std	Y+29, r22	; 0x1d
     77e:	7e 8f       	std	Y+30, r23	; 0x1e
     780:	8f 8f       	std	Y+31, r24	; 0x1f
     782:	98 a3       	std	Y+32, r25	; 0x20
}
     784:	df 91       	pop	r29
     786:	cf 91       	pop	r28
     788:	08 95       	ret

0000078a <button_reset>:

void button_reset(Button *btn)
{
     78a:	cf 93       	push	r28
     78c:	df 93       	push	r29
     78e:	ec 01       	movw	r28, r24
    btn->_state = BUTTON_STATE_INIT;
     790:	1a a2       	std	Y+34, r1	; 0x22
     792:	19 a2       	std	Y+33, r1	; 0x21
    btn->num_clicks = 0;
     794:	1b a2       	std	Y+35, r1	; 0x23
    btn->_startTime = get_millis();
     796:	0e 94 64 02 	call	0x4c8	; 0x4c8 <get_millis>
     79a:	6d 8f       	std	Y+29, r22	; 0x1d
     79c:	7e 8f       	std	Y+30, r23	; 0x1e
     79e:	8f 8f       	std	Y+31, r24	; 0x1f
     7a0:	98 a3       	std	Y+32, r25	; 0x20
}
     7a2:	df 91       	pop	r29
     7a4:	cf 91       	pop	r28
     7a6:	08 95       	ret

000007a8 <button_fsm>:

void button_fsm(Button *btn, uint8_t debouncedBState)
{
     7a8:	cf 93       	push	r28
     7aa:	df 93       	push	r29
     7ac:	ec 01       	movw	r28, r24
     7ae:	26 2f       	mov	r18, r22
    uint32_t waitTime = btn->now - btn->_startTime;
     7b0:	8d 89       	ldd	r24, Y+21	; 0x15
     7b2:	9e 89       	ldd	r25, Y+22	; 0x16
     7b4:	af 89       	ldd	r26, Y+23	; 0x17
     7b6:	b8 8d       	ldd	r27, Y+24	; 0x18
     7b8:	4d 8d       	ldd	r20, Y+29	; 0x1d
     7ba:	5e 8d       	ldd	r21, Y+30	; 0x1e
     7bc:	6f 8d       	ldd	r22, Y+31	; 0x1f
     7be:	78 a1       	ldd	r23, Y+32	; 0x20
     7c0:	84 1b       	sub	r24, r20
     7c2:	95 0b       	sbc	r25, r21
     7c4:	a6 0b       	sbc	r26, r22
     7c6:	b7 0b       	sbc	r27, r23
    switch (btn->_state)
     7c8:	49 a1       	ldd	r20, Y+33	; 0x21
     7ca:	5a a1       	ldd	r21, Y+34	; 0x22
     7cc:	42 30       	cpi	r20, 0x02	; 2
     7ce:	51 05       	cpc	r21, r1
     7d0:	09 f4       	brne	.+2      	; 0x7d4 <button_fsm+0x2c>
     7d2:	6a c0       	rjmp	.+212    	; 0x8a8 <__DATA_REGION_LENGTH__+0xa8>
     7d4:	98 f0       	brcs	.+38     	; 0x7fc <button_fsm+0x54>
     7d6:	43 30       	cpi	r20, 0x03	; 3
     7d8:	51 05       	cpc	r21, r1
     7da:	09 f4       	brne	.+2      	; 0x7de <button_fsm+0x36>
     7dc:	3f c0       	rjmp	.+126    	; 0x85c <__DATA_REGION_LENGTH__+0x5c>
     7de:	44 30       	cpi	r20, 0x04	; 4
     7e0:	51 05       	cpc	r21, r1
     7e2:	79 f1       	breq	.+94     	; 0x842 <__DATA_REGION_LENGTH__+0x42>
    btn->_startTime = get_millis();
}

void button_reset(Button *btn)
{
    btn->_state = BUTTON_STATE_INIT;
     7e4:	1a a2       	std	Y+34, r1	; 0x22
     7e6:	19 a2       	std	Y+33, r1	; 0x21
    btn->num_clicks = 0;
     7e8:	1b a2       	std	Y+35, r1	; 0x23
    btn->_startTime = get_millis();
     7ea:	0e 94 64 02 	call	0x4c8	; 0x4c8 <get_millis>
     7ee:	6d 8f       	std	Y+29, r22	; 0x1d
     7f0:	7e 8f       	std	Y+30, r23	; 0x1e
     7f2:	8f 8f       	std	Y+31, r24	; 0x1f
     7f4:	98 a3       	std	Y+32, r25	; 0x20
     */
    default:
        button_reset(btn);
        break;
    }
}
     7f6:	df 91       	pop	r29
     7f8:	cf 91       	pop	r28
     7fa:	08 95       	ret
}

void button_fsm(Button *btn, uint8_t debouncedBState)
{
    uint32_t waitTime = btn->now - btn->_startTime;
    switch (btn->_state)
     7fc:	41 15       	cp	r20, r1
     7fe:	51 05       	cpc	r21, r1
     800:	09 f4       	brne	.+2      	; 0x804 <__DATA_REGION_LENGTH__+0x4>
     802:	44 c0       	rjmp	.+136    	; 0x88c <__DATA_REGION_LENGTH__+0x8c>
     804:	41 30       	cpi	r20, 0x01	; 1
     806:	51 05       	cpc	r21, r1
     808:	69 f7       	brne	.-38     	; 0x7e4 <button_fsm+0x3c>
    case BUTTON_STATE_DOWN:
        /**
         * if in BUTTON_STATE_DOWN and button debounced state is HIGH,
         * change state to BUTTON_STATE_UP
         */
        if (debouncedBState)
     80a:	21 11       	cpse	r18, r1
     80c:	64 c0       	rjmp	.+200    	; 0x8d6 <__DATA_REGION_LENGTH__+0xd6>
        /**
         * if in BUTTON_STATE_DOWN and the waiting time exceeds the long press time,
         * run button long press function
         * change button state to BUTTON_STATE_PRESS
         */
        else if (waitTime > btn->longpress_ms)
     80e:	2b 85       	ldd	r18, Y+11	; 0x0b
     810:	3c 85       	ldd	r19, Y+12	; 0x0c
     812:	a9 01       	movw	r20, r18
     814:	70 e0       	ldi	r23, 0x00	; 0
     816:	60 e0       	ldi	r22, 0x00	; 0
     818:	48 17       	cp	r20, r24
     81a:	59 07       	cpc	r21, r25
     81c:	6a 07       	cpc	r22, r26
     81e:	7b 07       	cpc	r23, r27
     820:	50 f7       	brcc	.-44     	; 0x7f6 <button_fsm+0x4e>
        {
            if (btn->long_press_action)
     822:	e9 89       	ldd	r30, Y+17	; 0x11
     824:	fa 89       	ldd	r31, Y+18	; 0x12
     826:	30 97       	sbiw	r30, 0x00	; 0
     828:	09 f0       	breq	.+2      	; 0x82c <__DATA_REGION_LENGTH__+0x2c>
                btn->long_press_action();
     82a:	09 95       	icall
    return btn->_debouncedBState;
}

void _newState(Button *btn, enum button_state state)
{
    btn->_state = state;
     82c:	84 e0       	ldi	r24, 0x04	; 4
     82e:	90 e0       	ldi	r25, 0x00	; 0
     830:	9a a3       	std	Y+34, r25	; 0x22
     832:	89 a3       	std	Y+33, r24	; 0x21
    btn->_startTime = get_millis();
     834:	0e 94 64 02 	call	0x4c8	; 0x4c8 <get_millis>
     838:	6d 8f       	std	Y+29, r22	; 0x1d
     83a:	7e 8f       	std	Y+30, r23	; 0x1e
     83c:	8f 8f       	std	Y+31, r24	; 0x1f
     83e:	98 a3       	std	Y+32, r25	; 0x20
     840:	da cf       	rjmp	.-76     	; 0x7f6 <button_fsm+0x4e>
     */
    case BUTTON_STATE_PRESS:
        /**
         * if button has been released, change state to BUTTON_STATE_PRESSEND.
         */
        if (debouncedBState)
     842:	22 23       	and	r18, r18
     844:	c1 f2       	breq	.-80     	; 0x7f6 <button_fsm+0x4e>
    return btn->_debouncedBState;
}

void _newState(Button *btn, enum button_state state)
{
    btn->_state = state;
     846:	85 e0       	ldi	r24, 0x05	; 5
     848:	90 e0       	ldi	r25, 0x00	; 0
     84a:	9a a3       	std	Y+34, r25	; 0x22
     84c:	89 a3       	std	Y+33, r24	; 0x21
    btn->_startTime = get_millis();
     84e:	0e 94 64 02 	call	0x4c8	; 0x4c8 <get_millis>
     852:	6d 8f       	std	Y+29, r22	; 0x1d
     854:	7e 8f       	std	Y+30, r23	; 0x1e
     856:	8f 8f       	std	Y+31, r24	; 0x1f
     858:	98 a3       	std	Y+32, r25	; 0x20
     85a:	cd cf       	rjmp	.-102    	; 0x7f6 <button_fsm+0x4e>
         * else if in BUTTON_STATE_COUNT and the waiting time exceeded the
         * click time,
         * execute the appropriate callback based on the number of clicks.
         *
         */
        if (!debouncedBState)
     85c:	22 23       	and	r18, r18
     85e:	09 f4       	brne	.+2      	; 0x862 <__DATA_REGION_LENGTH__+0x62>
     860:	45 c0       	rjmp	.+138    	; 0x8ec <__DATA_REGION_LENGTH__+0xec>
        {
            _newState(btn, BUTTON_STATE_DOWN);
            btn->_startTime = btn->now;
        }
        else if (waitTime > btn->click_period_timeout_ms)
     862:	29 85       	ldd	r18, Y+9	; 0x09
     864:	3a 85       	ldd	r19, Y+10	; 0x0a
     866:	a9 01       	movw	r20, r18
     868:	70 e0       	ldi	r23, 0x00	; 0
     86a:	60 e0       	ldi	r22, 0x00	; 0
     86c:	48 17       	cp	r20, r24
     86e:	59 07       	cpc	r21, r25
     870:	6a 07       	cpc	r22, r26
     872:	7b 07       	cpc	r23, r27
     874:	08 f0       	brcs	.+2      	; 0x878 <__DATA_REGION_LENGTH__+0x78>
     876:	bf cf       	rjmp	.-130    	; 0x7f6 <button_fsm+0x4e>
        {
            switch (btn->num_clicks)
     878:	8b a1       	ldd	r24, Y+35	; 0x23
     87a:	81 30       	cpi	r24, 0x01	; 1
     87c:	29 f5       	brne	.+74     	; 0x8c8 <__DATA_REGION_LENGTH__+0xc8>
            {
            case 1:
                if (btn->single_click_action)
     87e:	ed 85       	ldd	r30, Y+13	; 0x0d
     880:	fe 85       	ldd	r31, Y+14	; 0x0e
     882:	30 97       	sbiw	r30, 0x00	; 0
     884:	09 f4       	brne	.+2      	; 0x888 <__DATA_REGION_LENGTH__+0x88>
     886:	ae cf       	rjmp	.-164    	; 0x7e4 <button_fsm+0x3c>
                    btn->single_click_action();
                break;
            default:
                if (btn->double_click_action)
                    btn->double_click_action();
     888:	09 95       	icall
     88a:	ac cf       	rjmp	.-168    	; 0x7e4 <button_fsm+0x3c>
        /**
         * if in BUTTON_STATE_INIT and button debounced state is LOW,
         * save the time to _startTime
         * change state to BUTTON_STATE_DOWN
         */
        if (!debouncedBState)
     88c:	21 11       	cpse	r18, r1
     88e:	b3 cf       	rjmp	.-154    	; 0x7f6 <button_fsm+0x4e>
        {
            btn->num_clicks = 0;
     890:	1b a2       	std	Y+35, r1	; 0x23
    return btn->_debouncedBState;
}

void _newState(Button *btn, enum button_state state)
{
    btn->_state = state;
     892:	81 e0       	ldi	r24, 0x01	; 1
     894:	90 e0       	ldi	r25, 0x00	; 0
     896:	9a a3       	std	Y+34, r25	; 0x22
     898:	89 a3       	std	Y+33, r24	; 0x21
    btn->_startTime = get_millis();
     89a:	0e 94 64 02 	call	0x4c8	; 0x4c8 <get_millis>
     89e:	6d 8f       	std	Y+29, r22	; 0x1d
     8a0:	7e 8f       	std	Y+30, r23	; 0x1e
     8a2:	8f 8f       	std	Y+31, r24	; 0x1f
     8a4:	98 a3       	std	Y+32, r25	; 0x20
     8a6:	a7 cf       	rjmp	.-178    	; 0x7f6 <button_fsm+0x4e>
    case BUTTON_STATE_UP:
        /**
         * If in BUTTON_STATE_UP, increment button click counter then
         * change button state to BUTTON_STATE_COUNT
         */
        btn->num_clicks++;
     8a8:	8b a1       	ldd	r24, Y+35	; 0x23
     8aa:	8f 5f       	subi	r24, 0xFF	; 255
     8ac:	8b a3       	std	Y+35, r24	; 0x23
    return btn->_debouncedBState;
}

void _newState(Button *btn, enum button_state state)
{
    btn->_state = state;
     8ae:	83 e0       	ldi	r24, 0x03	; 3
     8b0:	90 e0       	ldi	r25, 0x00	; 0
     8b2:	9a a3       	std	Y+34, r25	; 0x22
     8b4:	89 a3       	std	Y+33, r24	; 0x21
    btn->_startTime = get_millis();
     8b6:	0e 94 64 02 	call	0x4c8	; 0x4c8 <get_millis>
     8ba:	6d 8f       	std	Y+29, r22	; 0x1d
     8bc:	7e 8f       	std	Y+30, r23	; 0x1e
     8be:	8f 8f       	std	Y+31, r24	; 0x1f
     8c0:	98 a3       	std	Y+32, r25	; 0x20
     */
    default:
        button_reset(btn);
        break;
    }
}
     8c2:	df 91       	pop	r29
     8c4:	cf 91       	pop	r28
     8c6:	08 95       	ret
            case 1:
                if (btn->single_click_action)
                    btn->single_click_action();
                break;
            default:
                if (btn->double_click_action)
     8c8:	ef 85       	ldd	r30, Y+15	; 0x0f
     8ca:	f8 89       	ldd	r31, Y+16	; 0x10
     8cc:	30 97       	sbiw	r30, 0x00	; 0
     8ce:	09 f4       	brne	.+2      	; 0x8d2 <__DATA_REGION_LENGTH__+0xd2>
     8d0:	89 cf       	rjmp	.-238    	; 0x7e4 <button_fsm+0x3c>
                    btn->double_click_action();
     8d2:	09 95       	icall
     8d4:	87 cf       	rjmp	.-242    	; 0x7e4 <button_fsm+0x3c>
    return btn->_debouncedBState;
}

void _newState(Button *btn, enum button_state state)
{
    btn->_state = state;
     8d6:	82 e0       	ldi	r24, 0x02	; 2
     8d8:	90 e0       	ldi	r25, 0x00	; 0
     8da:	9a a3       	std	Y+34, r25	; 0x22
     8dc:	89 a3       	std	Y+33, r24	; 0x21
    btn->_startTime = get_millis();
     8de:	0e 94 64 02 	call	0x4c8	; 0x4c8 <get_millis>
     8e2:	6d 8f       	std	Y+29, r22	; 0x1d
     8e4:	7e 8f       	std	Y+30, r23	; 0x1e
     8e6:	8f 8f       	std	Y+31, r24	; 0x1f
     8e8:	98 a3       	std	Y+32, r25	; 0x20
     8ea:	85 cf       	rjmp	.-246    	; 0x7f6 <button_fsm+0x4e>
    return btn->_debouncedBState;
}

void _newState(Button *btn, enum button_state state)
{
    btn->_state = state;
     8ec:	81 e0       	ldi	r24, 0x01	; 1
     8ee:	90 e0       	ldi	r25, 0x00	; 0
     8f0:	9a a3       	std	Y+34, r25	; 0x22
     8f2:	89 a3       	std	Y+33, r24	; 0x21
    btn->_startTime = get_millis();
     8f4:	0e 94 64 02 	call	0x4c8	; 0x4c8 <get_millis>
         *
         */
        if (!debouncedBState)
        {
            _newState(btn, BUTTON_STATE_DOWN);
            btn->_startTime = btn->now;
     8f8:	8d 89       	ldd	r24, Y+21	; 0x15
     8fa:	9e 89       	ldd	r25, Y+22	; 0x16
     8fc:	af 89       	ldd	r26, Y+23	; 0x17
     8fe:	b8 8d       	ldd	r27, Y+24	; 0x18
     900:	8d 8f       	std	Y+29, r24	; 0x1d
     902:	9e 8f       	std	Y+30, r25	; 0x1e
     904:	af 8f       	std	Y+31, r26	; 0x1f
     906:	b8 a3       	std	Y+32, r27	; 0x20
     908:	76 cf       	rjmp	.-276    	; 0x7f6 <button_fsm+0x4e>

0000090a <button_loop>:
    btn->num_clicks = 0;
    btn->_debouncedBState = 1;
}

void button_loop(Button *btn)
{
     90a:	cf 93       	push	r28
     90c:	df 93       	push	r29
     90e:	ec 01       	movw	r28, r24
    button_fsm(btn, button_debounce(btn));
     910:	0e 94 7c 03 	call	0x6f8	; 0x6f8 <button_debounce>
     914:	68 2f       	mov	r22, r24
     916:	ce 01       	movw	r24, r28
}
     918:	df 91       	pop	r29
     91a:	cf 91       	pop	r28
    btn->_debouncedBState = 1;
}

void button_loop(Button *btn)
{
    button_fsm(btn, button_debounce(btn));
     91c:	0c 94 d4 03 	jmp	0x7a8	; 0x7a8 <button_fsm>

00000920 <seven_segment_init>:
Pin colon_pin;
uint32_t prev_millis_flash;
uint8_t flash_colon, flash_digits_minutes, flash_digits_hours, flash_all_digits;

void seven_segment_init()
{
     920:	cf 92       	push	r12
     922:	df 92       	push	r13
     924:	ef 92       	push	r14
     926:	ff 92       	push	r15
     928:	0f 93       	push	r16
     92a:	1f 93       	push	r17
     92c:	cf 93       	push	r28
     92e:	df 93       	push	r29
     930:	c9 e4       	ldi	r28, 0x49	; 73
     932:	d2 e0       	ldi	r29, 0x02	; 2
     934:	10 e0       	ldi	r17, 0x00	; 0
    for (int i = 0; i < 8; i++)
    {
        segment_pins[i].ddr = &SEGMENTS_DDR;
     936:	3a e2       	ldi	r19, 0x2A	; 42
     938:	c3 2e       	mov	r12, r19
     93a:	d1 2c       	mov	r13, r1
        segment_pins[i].port = &SEGMENTS_PORT;
     93c:	4b e2       	ldi	r20, 0x2B	; 43
     93e:	e4 2e       	mov	r14, r20
     940:	f1 2c       	mov	r15, r1

void seven_segment_init()
{
    for (int i = 0; i < 8; i++)
    {
        segment_pins[i].ddr = &SEGMENTS_DDR;
     942:	d9 82       	std	Y+1, r13	; 0x01
     944:	c8 82       	st	Y, r12
        segment_pins[i].port = &SEGMENTS_PORT;
     946:	fb 82       	std	Y+3, r15	; 0x03
     948:	ea 82       	std	Y+2, r14	; 0x02
        segment_pins[i].pin_num = i;
     94a:	1e 83       	std	Y+6, r17	; 0x06
        gpio_set_pin_output(&segment_pins[i]);
     94c:	ce 01       	movw	r24, r28
     94e:	0e 94 9c 02 	call	0x538	; 0x538 <gpio_set_pin_output>
     952:	27 96       	adiw	r28, 0x07	; 7
     954:	1f 5f       	subi	r17, 0xFF	; 255
uint32_t prev_millis_flash;
uint8_t flash_colon, flash_digits_minutes, flash_digits_hours, flash_all_digits;

void seven_segment_init()
{
    for (int i = 0; i < 8; i++)
     956:	18 30       	cpi	r17, 0x08	; 8
     958:	a1 f7       	brne	.-24     	; 0x942 <seven_segment_init+0x22>
     95a:	f1 2c       	mov	r15, r1
     95c:	e1 2c       	mov	r14, r1
        segment_pins[i].ddr = &SEGMENTS_DDR;
        segment_pins[i].port = &SEGMENTS_PORT;
        segment_pins[i].pin_num = i;
        gpio_set_pin_output(&segment_pins[i]);
    }
    int i1 = 0;
     95e:	90 e0       	ldi	r25, 0x00	; 0
     960:	80 e0       	ldi	r24, 0x00	; 0
        // gpio_set_pin_output(&digit_pins[i]);

        // skip PB1
        if (i != 1)
        {
            digit_pins[i1].ddr = &DIGITS_DDR;
     962:	04 e2       	ldi	r16, 0x24	; 36
     964:	10 e0       	ldi	r17, 0x00	; 0
            digit_pins[i1].port = &DIGITS_PORT;
     966:	c5 e2       	ldi	r28, 0x25	; 37
     968:	d0 e0       	ldi	r29, 0x00	; 0
     96a:	fc 01       	movw	r30, r24
     96c:	ee 0f       	add	r30, r30
     96e:	ff 1f       	adc	r31, r31
     970:	ee 0f       	add	r30, r30
     972:	ff 1f       	adc	r31, r31
     974:	ee 0f       	add	r30, r30
     976:	ff 1f       	adc	r31, r31
     978:	e8 1b       	sub	r30, r24
     97a:	f9 0b       	sbc	r31, r25
     97c:	e6 5e       	subi	r30, 0xE6	; 230
     97e:	fd 4f       	sbci	r31, 0xFD	; 253
     980:	6c 01       	movw	r12, r24
     982:	2f ef       	ldi	r18, 0xFF	; 255
     984:	c2 1a       	sub	r12, r18
     986:	d2 0a       	sbc	r13, r18
        // // digit_pins[i].pin = &PINB;
        // digit_pins[i].pin_num = i;
        // gpio_set_pin_output(&digit_pins[i]);

        // skip PB1
        if (i != 1)
     988:	21 e0       	ldi	r18, 0x01	; 1
     98a:	e2 16       	cp	r14, r18
     98c:	f1 04       	cpc	r15, r1
     98e:	41 f1       	breq	.+80     	; 0x9e0 <seven_segment_init+0xc0>
        {
            digit_pins[i1].ddr = &DIGITS_DDR;
     990:	11 83       	std	Z+1, r17	; 0x01
     992:	00 83       	st	Z, r16
            digit_pins[i1].port = &DIGITS_PORT;
     994:	d3 83       	std	Z+3, r29	; 0x03
     996:	c2 83       	std	Z+2, r28	; 0x02
            // digit_pins[i].pin = &PINB;
            digit_pins[i1].pin_num = i;
     998:	e6 82       	std	Z+6, r14	; 0x06
            gpio_set_pin_output(&digit_pins[i1]);
     99a:	cf 01       	movw	r24, r30
     99c:	0e 94 9c 02 	call	0x538	; 0x538 <gpio_set_pin_output>
        segment_pins[i].port = &SEGMENTS_PORT;
        segment_pins[i].pin_num = i;
        gpio_set_pin_output(&segment_pins[i]);
    }
    int i1 = 0;
    for (int i = 0; i < 5; i++)
     9a0:	84 e0       	ldi	r24, 0x04	; 4
     9a2:	e8 16       	cp	r14, r24
     9a4:	f1 04       	cpc	r15, r1
     9a6:	29 f0       	breq	.+10     	; 0x9b2 <seven_segment_init+0x92>
     9a8:	2f ef       	ldi	r18, 0xFF	; 255
     9aa:	e2 1a       	sub	r14, r18
     9ac:	f2 0a       	sbc	r15, r18
     9ae:	c6 01       	movw	r24, r12
     9b0:	dc cf       	rjmp	.-72     	; 0x96a <seven_segment_init+0x4a>
            gpio_set_pin_output(&digit_pins[i1]);
            i1++;
        }
    }

    colon_pin.ddr = &COLON_DDR;
     9b2:	10 93 14 02 	sts	0x0214, r17	; 0x800214 <colon_pin+0x1>
     9b6:	00 93 13 02 	sts	0x0213, r16	; 0x800213 <colon_pin>
    colon_pin.port = &COLON_PORT;
     9ba:	d0 93 16 02 	sts	0x0216, r29	; 0x800216 <colon_pin+0x3>
     9be:	c0 93 15 02 	sts	0x0215, r28	; 0x800215 <colon_pin+0x2>
    colon_pin.pin_num = COLON_PIN_NUM;
     9c2:	85 e0       	ldi	r24, 0x05	; 5
     9c4:	80 93 19 02 	sts	0x0219, r24	; 0x800219 <colon_pin+0x6>
    gpio_set_pin_output(&colon_pin);
     9c8:	83 e1       	ldi	r24, 0x13	; 19
     9ca:	92 e0       	ldi	r25, 0x02	; 2
}
     9cc:	df 91       	pop	r29
     9ce:	cf 91       	pop	r28
     9d0:	1f 91       	pop	r17
     9d2:	0f 91       	pop	r16
     9d4:	ff 90       	pop	r15
     9d6:	ef 90       	pop	r14
     9d8:	df 90       	pop	r13
     9da:	cf 90       	pop	r12
    }

    colon_pin.ddr = &COLON_DDR;
    colon_pin.port = &COLON_PORT;
    colon_pin.pin_num = COLON_PIN_NUM;
    gpio_set_pin_output(&colon_pin);
     9dc:	0c 94 9c 02 	jmp	0x538	; 0x538 <gpio_set_pin_output>
     9e0:	6c 01       	movw	r12, r24
     9e2:	e2 cf       	rjmp	.-60     	; 0x9a8 <seven_segment_init+0x88>

000009e4 <seven_segment_loop_isr>:
}

void seven_segment_loop_isr(void)
{

    gpio_set_pin_val(&colon_pin, display_data.colon);
     9e4:	60 91 3e 02 	lds	r22, 0x023E	; 0x80023e <display_data+0x8>
     9e8:	83 e1       	ldi	r24, 0x13	; 19
     9ea:	92 e0       	ldi	r25, 0x02	; 2
     9ec:	0e 94 fb 02 	call	0x5f6	; 0x5f6 <gpio_set_pin_val>
    // DIGITS_PORT |= 0x0F;
    DIGITS_PORT |= 0x1D; // skip PB1
     9f0:	85 b1       	in	r24, 0x05	; 5
     9f2:	8d 61       	ori	r24, 0x1D	; 29
     9f4:	85 b9       	out	0x05, r24	; 5
    // DIGITS_PORT &= ~(_BV(3 - display_data.cur_digit_index));
    // if current digit index is enabled, display the digit.
    if (display_data.enable_digits[display_data.cur_digit_index])
     9f6:	80 91 3f 02 	lds	r24, 0x023F	; 0x80023f <display_data+0x9>
     9fa:	68 2f       	mov	r22, r24
     9fc:	70 e0       	ldi	r23, 0x00	; 0
     9fe:	fb 01       	movw	r30, r22
     a00:	ea 5c       	subi	r30, 0xCA	; 202
     a02:	fd 4f       	sbci	r31, 0xFD	; 253
     a04:	94 81       	ldd	r25, Z+4	; 0x04
     a06:	99 23       	and	r25, r25
     a08:	21 f1       	breq	.+72     	; 0xa52 <seven_segment_loop_isr+0x6e>
    {
        DIGITS_PORT &= ~(_BV(digit_pins[3 - display_data.cur_digit_index].pin_num));
     a0a:	95 b1       	in	r25, 0x05	; 5
     a0c:	43 e0       	ldi	r20, 0x03	; 3
     a0e:	50 e0       	ldi	r21, 0x00	; 0
     a10:	46 1b       	sub	r20, r22
     a12:	57 0b       	sbc	r21, r23
     a14:	da 01       	movw	r26, r20
     a16:	aa 0f       	add	r26, r26
     a18:	bb 1f       	adc	r27, r27
     a1a:	aa 0f       	add	r26, r26
     a1c:	bb 1f       	adc	r27, r27
     a1e:	aa 0f       	add	r26, r26
     a20:	bb 1f       	adc	r27, r27
     a22:	a4 1b       	sub	r26, r20
     a24:	b5 0b       	sbc	r27, r21
     a26:	a6 5e       	subi	r26, 0xE6	; 230
     a28:	bd 4f       	sbci	r27, 0xFD	; 253
     a2a:	16 96       	adiw	r26, 0x06	; 6
     a2c:	4c 91       	ld	r20, X
     a2e:	21 e0       	ldi	r18, 0x01	; 1
     a30:	30 e0       	ldi	r19, 0x00	; 0
     a32:	01 c0       	rjmp	.+2      	; 0xa36 <seven_segment_loop_isr+0x52>
     a34:	22 0f       	add	r18, r18
     a36:	4a 95       	dec	r20
     a38:	ea f7       	brpl	.-6      	; 0xa34 <seven_segment_loop_isr+0x50>
     a3a:	20 95       	com	r18
     a3c:	29 23       	and	r18, r25
     a3e:	25 b9       	out	0x05, r18	; 5
        SEGMENTS_PORT = ~(display_data.display_digits[display_data.cur_digit_index] |
                          display_data.enable_decimal_points[display_data.cur_digit_index] << 7);
     a40:	92 85       	ldd	r25, Z+10	; 0x0a
     a42:	40 e8       	ldi	r20, 0x80	; 128
     a44:	94 9f       	mul	r25, r20
     a46:	90 01       	movw	r18, r0
     a48:	11 24       	eor	r1, r1
    // DIGITS_PORT &= ~(_BV(3 - display_data.cur_digit_index));
    // if current digit index is enabled, display the digit.
    if (display_data.enable_digits[display_data.cur_digit_index])
    {
        DIGITS_PORT &= ~(_BV(digit_pins[3 - display_data.cur_digit_index].pin_num));
        SEGMENTS_PORT = ~(display_data.display_digits[display_data.cur_digit_index] |
     a4a:	90 81       	ld	r25, Z
     a4c:	92 2b       	or	r25, r18
     a4e:	90 95       	com	r25
     a50:	9b b9       	out	0x0b, r25	; 11
                          display_data.enable_decimal_points[display_data.cur_digit_index] << 7);
    }
    display_data.cur_digit_index++;
     a52:	8f 5f       	subi	r24, 0xFF	; 255
    if (display_data.cur_digit_index > 3)
     a54:	84 30       	cpi	r24, 0x04	; 4
     a56:	18 f0       	brcs	.+6      	; 0xa5e <seven_segment_loop_isr+0x7a>
    {
        display_data.cur_digit_index = 0;
     a58:	10 92 3f 02 	sts	0x023F, r1	; 0x80023f <display_data+0x9>
    }
}
     a5c:	08 95       	ret
    {
        DIGITS_PORT &= ~(_BV(digit_pins[3 - display_data.cur_digit_index].pin_num));
        SEGMENTS_PORT = ~(display_data.display_digits[display_data.cur_digit_index] |
                          display_data.enable_decimal_points[display_data.cur_digit_index] << 7);
    }
    display_data.cur_digit_index++;
     a5e:	80 93 3f 02 	sts	0x023F, r24	; 0x80023f <display_data+0x9>
     a62:	08 95       	ret

00000a64 <seven_segment_clear_all>:
 */
void seven_segment_clear_all(void)
{
    for (int i = 0; i < 4; i++)
    {
        display_data.display_digits[i] = 0;
     a64:	e6 e3       	ldi	r30, 0x36	; 54
     a66:	f2 e0       	ldi	r31, 0x02	; 2
     a68:	10 82       	st	Z, r1
        display_data.enable_digits[i] = 0;
     a6a:	14 82       	std	Z+4, r1	; 0x04
 */
void seven_segment_clear_all(void)
{
    for (int i = 0; i < 4; i++)
    {
        display_data.display_digits[i] = 0;
     a6c:	11 82       	std	Z+1, r1	; 0x01
        display_data.enable_digits[i] = 0;
     a6e:	15 82       	std	Z+5, r1	; 0x05
 */
void seven_segment_clear_all(void)
{
    for (int i = 0; i < 4; i++)
    {
        display_data.display_digits[i] = 0;
     a70:	12 82       	std	Z+2, r1	; 0x02
        display_data.enable_digits[i] = 0;
     a72:	16 82       	std	Z+6, r1	; 0x06
 */
void seven_segment_clear_all(void)
{
    for (int i = 0; i < 4; i++)
    {
        display_data.display_digits[i] = 0;
     a74:	13 82       	std	Z+3, r1	; 0x03
        display_data.enable_digits[i] = 0;
     a76:	17 82       	std	Z+7, r1	; 0x07
    }
    display_data.colon = 0;
     a78:	10 86       	std	Z+8, r1	; 0x08
}
     a7a:	08 95       	ret

00000a7c <seven_segment_set_all>:

void seven_segment_set_all(void)
{
     a7c:	e6 e3       	ldi	r30, 0x36	; 54
     a7e:	f2 e0       	ldi	r31, 0x02	; 2
    for (int i = 0; i < 4; i++)
    {
        display_data.display_digits[i] = 255;
     a80:	9f ef       	ldi	r25, 0xFF	; 255
        display_data.enable_digits[i] = 1;
     a82:	81 e0       	ldi	r24, 0x01	; 1

void seven_segment_set_all(void)
{
    for (int i = 0; i < 4; i++)
    {
        display_data.display_digits[i] = 255;
     a84:	91 93       	st	Z+, r25
        display_data.enable_digits[i] = 1;
     a86:	83 83       	std	Z+3, r24	; 0x03
        display_data.enable_decimal_points[i] = 1;
     a88:	81 87       	std	Z+9, r24	; 0x09
    display_data.colon = 0;
}

void seven_segment_set_all(void)
{
    for (int i = 0; i < 4; i++)
     a8a:	22 e0       	ldi	r18, 0x02	; 2
     a8c:	ea 33       	cpi	r30, 0x3A	; 58
     a8e:	f2 07       	cpc	r31, r18
     a90:	c9 f7       	brne	.-14     	; 0xa84 <seven_segment_set_all+0x8>
    {
        display_data.display_digits[i] = 255;
        display_data.enable_digits[i] = 1;
        display_data.enable_decimal_points[i] = 1;
    }
    display_data.colon = 1;
     a92:	80 93 3e 02 	sts	0x023E, r24	; 0x80023e <display_data+0x8>
}
     a96:	08 95       	ret

00000a98 <seven_segment_write_byte_to_digit>:

void seven_segment_write_byte_to_digit(uint8_t byte, uint8_t digit)
{
    display_data.display_digits[digit] = byte;
     a98:	e6 2f       	mov	r30, r22
     a9a:	f0 e0       	ldi	r31, 0x00	; 0
     a9c:	ea 5c       	subi	r30, 0xCA	; 202
     a9e:	fd 4f       	sbci	r31, 0xFD	; 253
     aa0:	80 83       	st	Z, r24
    uint8_t is_flashing;
    switch (digit)
     aa2:	62 30       	cpi	r22, 0x02	; 2
     aa4:	60 f0       	brcs	.+24     	; 0xabe <seven_segment_write_byte_to_digit+0x26>
     aa6:	64 30       	cpi	r22, 0x04	; 4
     aa8:	08 f0       	brcs	.+2      	; 0xaac <seven_segment_write_byte_to_digit+0x14>
        {
            display_data.enable_digits[digit] = 1;
        }
        break;
    }
}
     aaa:	08 95       	ret
    uint8_t is_flashing;
    switch (digit)
    {
    case 3:
    case 2:
        is_flashing = flash_all_digits | flash_digits_minutes;
     aac:	80 91 82 02 	lds	r24, 0x0282	; 0x800282 <flash_all_digits>
     ab0:	90 91 81 02 	lds	r25, 0x0281	; 0x800281 <flash_digits_minutes>
     ab4:	89 2b       	or	r24, r25
        if (!is_flashing)
     ab6:	c9 f7       	brne	.-14     	; 0xaaa <seven_segment_write_byte_to_digit+0x12>
    case 1:
    case 0:
        is_flashing = flash_all_digits | flash_digits_hours;
        if (!is_flashing)
        {
            display_data.enable_digits[digit] = 1;
     ab8:	81 e0       	ldi	r24, 0x01	; 1
     aba:	84 83       	std	Z+4, r24	; 0x04
        }
        break;
    }
}
     abc:	08 95       	ret
            display_data.enable_digits[digit] = 1;
        }
        break;
    case 1:
    case 0:
        is_flashing = flash_all_digits | flash_digits_hours;
     abe:	80 91 82 02 	lds	r24, 0x0282	; 0x800282 <flash_all_digits>
     ac2:	90 91 83 02 	lds	r25, 0x0283	; 0x800283 <flash_digits_hours>
     ac6:	89 2b       	or	r24, r25
        if (!is_flashing)
     ac8:	81 f7       	brne	.-32     	; 0xaaa <seven_segment_write_byte_to_digit+0x12>
        {
            display_data.enable_digits[digit] = 1;
     aca:	81 e0       	ldi	r24, 0x01	; 1
     acc:	84 83       	std	Z+4, r24	; 0x04
     ace:	f6 cf       	rjmp	.-20     	; 0xabc <seven_segment_write_byte_to_digit+0x24>

00000ad0 <seven_segment_write_bytes>:
        break;
    }
}

void seven_segment_write_bytes(uint8_t bytes[4])
{
     ad0:	0f 93       	push	r16
     ad2:	1f 93       	push	r17
     ad4:	cf 93       	push	r28
     ad6:	8c 01       	movw	r16, r24
     ad8:	c0 e0       	ldi	r28, 0x00	; 0
    for (int i = 0; i < 4; i++)
    {
        seven_segment_write_byte_to_digit(bytes[i], i);
     ada:	6c 2f       	mov	r22, r28
     adc:	f8 01       	movw	r30, r16
     ade:	81 91       	ld	r24, Z+
     ae0:	8f 01       	movw	r16, r30
     ae2:	0e 94 4c 05 	call	0xa98	; 0xa98 <seven_segment_write_byte_to_digit>
     ae6:	cf 5f       	subi	r28, 0xFF	; 255
    }
}

void seven_segment_write_bytes(uint8_t bytes[4])
{
    for (int i = 0; i < 4; i++)
     ae8:	c4 30       	cpi	r28, 0x04	; 4
     aea:	b9 f7       	brne	.-18     	; 0xada <seven_segment_write_bytes+0xa>
    {
        seven_segment_write_byte_to_digit(bytes[i], i);
    }
}
     aec:	cf 91       	pop	r28
     aee:	1f 91       	pop	r17
     af0:	0f 91       	pop	r16
     af2:	08 95       	ret

00000af4 <seven_segment_write_digit_val_to_digit>:

void seven_segment_write_digit_val_to_digit(uint8_t digit_index, uint8_t digit)
{
    seven_segment_write_byte_to_digit(digit_values[digit_index], digit);
     af4:	e8 2f       	mov	r30, r24
     af6:	f0 e0       	ldi	r31, 0x00	; 0
     af8:	e0 50       	subi	r30, 0x00	; 0
     afa:	ff 4f       	sbci	r31, 0xFF	; 255
     afc:	80 81       	ld	r24, Z
     afe:	0c 94 4c 05 	jmp	0xa98	; 0xa98 <seven_segment_write_byte_to_digit>

00000b02 <seven_segment_write_digit_vals>:
}

void seven_segment_write_digit_vals(uint8_t digit_indices[4])
{
     b02:	0f 93       	push	r16
     b04:	1f 93       	push	r17
     b06:	cf 93       	push	r28
     b08:	8c 01       	movw	r16, r24
     b0a:	c0 e0       	ldi	r28, 0x00	; 0
    for (int i = 0; i < 4; i++)
    {
        seven_segment_write_digit_val_to_digit(digit_indices[i], i);
     b0c:	d8 01       	movw	r26, r16
     b0e:	ed 91       	ld	r30, X+
     b10:	8d 01       	movw	r16, r26
    }
}

void seven_segment_write_digit_val_to_digit(uint8_t digit_index, uint8_t digit)
{
    seven_segment_write_byte_to_digit(digit_values[digit_index], digit);
     b12:	f0 e0       	ldi	r31, 0x00	; 0
     b14:	e0 50       	subi	r30, 0x00	; 0
     b16:	ff 4f       	sbci	r31, 0xFF	; 255
     b18:	6c 2f       	mov	r22, r28
     b1a:	80 81       	ld	r24, Z
     b1c:	0e 94 4c 05 	call	0xa98	; 0xa98 <seven_segment_write_byte_to_digit>
     b20:	cf 5f       	subi	r28, 0xFF	; 255
}

void seven_segment_write_digit_vals(uint8_t digit_indices[4])
{
    for (int i = 0; i < 4; i++)
     b22:	c4 30       	cpi	r28, 0x04	; 4
     b24:	99 f7       	brne	.-26     	; 0xb0c <seven_segment_write_digit_vals+0xa>
    {
        seven_segment_write_digit_val_to_digit(digit_indices[i], i);
    }
}
     b26:	cf 91       	pop	r28
     b28:	1f 91       	pop	r17
     b2a:	0f 91       	pop	r16
     b2c:	08 95       	ret

00000b2e <seven_segment_set_colon>:

void seven_segment_set_colon(uint8_t state)
{
    display_data.colon = state;
     b2e:	80 93 3e 02 	sts	0x023E, r24	; 0x80023e <display_data+0x8>
}
     b32:	08 95       	ret

00000b34 <seven_segment_set_decimal_point>:

void seven_segment_set_decimal_point(uint8_t digit, uint8_t state)
{
     b34:	90 e0       	ldi	r25, 0x00	; 0
    if (state)
    {
        display_data.enable_decimal_points[digit] = 1;
     b36:	8a 5c       	subi	r24, 0xCA	; 202
     b38:	9d 4f       	sbci	r25, 0xFD	; 253
    display_data.colon = state;
}

void seven_segment_set_decimal_point(uint8_t digit, uint8_t state)
{
    if (state)
     b3a:	61 11       	cpse	r22, r1
     b3c:	03 c0       	rjmp	.+6      	; 0xb44 <seven_segment_set_decimal_point+0x10>
    {
        display_data.enable_decimal_points[digit] = 1;
    }
    else
    {
        display_data.enable_decimal_points[digit] = 0;
     b3e:	fc 01       	movw	r30, r24
     b40:	12 86       	std	Z+10, r1	; 0x0a
    }
}
     b42:	08 95       	ret

void seven_segment_set_decimal_point(uint8_t digit, uint8_t state)
{
    if (state)
    {
        display_data.enable_decimal_points[digit] = 1;
     b44:	21 e0       	ldi	r18, 0x01	; 1
     b46:	fc 01       	movw	r30, r24
     b48:	22 87       	std	Z+10, r18	; 0x0a
     b4a:	08 95       	ret

00000b4c <seven_segment_flashing_loop>:
    }
}

/* flashing loop */
void seven_segment_flashing_loop(uint32_t t_millis)
{
     b4c:	cf 92       	push	r12
     b4e:	df 92       	push	r13
     b50:	ef 92       	push	r14
     b52:	ff 92       	push	r15
     b54:	0f 93       	push	r16
     b56:	1f 93       	push	r17
    if (t_millis - prev_millis_flash > 500)
     b58:	00 91 45 02 	lds	r16, 0x0245	; 0x800245 <prev_millis_flash>
     b5c:	10 91 46 02 	lds	r17, 0x0246	; 0x800246 <prev_millis_flash+0x1>
     b60:	20 91 47 02 	lds	r18, 0x0247	; 0x800247 <prev_millis_flash+0x2>
     b64:	30 91 48 02 	lds	r19, 0x0248	; 0x800248 <prev_millis_flash+0x3>
     b68:	6b 01       	movw	r12, r22
     b6a:	7c 01       	movw	r14, r24
     b6c:	c0 1a       	sub	r12, r16
     b6e:	d1 0a       	sbc	r13, r17
     b70:	e2 0a       	sbc	r14, r18
     b72:	f3 0a       	sbc	r15, r19
     b74:	97 01       	movw	r18, r14
     b76:	86 01       	movw	r16, r12
     b78:	05 3f       	cpi	r16, 0xF5	; 245
     b7a:	11 40       	sbci	r17, 0x01	; 1
     b7c:	21 05       	cpc	r18, r1
     b7e:	31 05       	cpc	r19, r1
     b80:	c0 f1       	brcs	.+112    	; 0xbf2 <seven_segment_flashing_loop+0xa6>
    {
        prev_millis_flash = t_millis;
     b82:	60 93 45 02 	sts	0x0245, r22	; 0x800245 <prev_millis_flash>
     b86:	70 93 46 02 	sts	0x0246, r23	; 0x800246 <prev_millis_flash+0x1>
     b8a:	80 93 47 02 	sts	0x0247, r24	; 0x800247 <prev_millis_flash+0x2>
     b8e:	90 93 48 02 	sts	0x0248, r25	; 0x800248 <prev_millis_flash+0x3>

        // flash colon
        if (flash_colon)
     b92:	80 91 44 02 	lds	r24, 0x0244	; 0x800244 <flash_colon>
     b96:	88 23       	and	r24, r24
     b98:	39 f0       	breq	.+14     	; 0xba8 <seven_segment_flashing_loop+0x5c>
        {
            if (display_data.colon)
     b9a:	81 e0       	ldi	r24, 0x01	; 1
     b9c:	90 91 3e 02 	lds	r25, 0x023E	; 0x80023e <display_data+0x8>
     ba0:	91 11       	cpse	r25, r1
     ba2:	44 c0       	rjmp	.+136    	; 0xc2c <seven_segment_flashing_loop+0xe0>
            }
            else
            {
                seven_segment_set_colon(0);
            }
            display_data.colon = !display_data.colon;
     ba4:	80 93 3e 02 	sts	0x023E, r24	; 0x80023e <display_data+0x8>
        }
        // flash digits 32
        if (flash_digits_minutes)
     ba8:	80 91 81 02 	lds	r24, 0x0281	; 0x800281 <flash_digits_minutes>
     bac:	88 23       	and	r24, r24
     bae:	41 f0       	breq	.+16     	; 0xbc0 <seven_segment_flashing_loop+0x74>
        {
            if (display_data.enable_digits[3])
     bb0:	80 91 3d 02 	lds	r24, 0x023D	; 0x80023d <display_data+0x7>
     bb4:	88 23       	and	r24, r24
     bb6:	f1 f1       	breq	.+124    	; 0xc34 <seven_segment_flashing_loop+0xe8>
            {
                display_data.enable_digits[3] = 0;
     bb8:	10 92 3d 02 	sts	0x023D, r1	; 0x80023d <display_data+0x7>
                display_data.enable_digits[2] = 0;
     bbc:	10 92 3c 02 	sts	0x023C, r1	; 0x80023c <display_data+0x6>
     bc0:	80 91 82 02 	lds	r24, 0x0282	; 0x800282 <flash_all_digits>
                display_data.enable_digits[3] = 1;
                display_data.enable_digits[2] = 1;
            }
        }
        // flash digits 10
        if (flash_digits_hours)
     bc4:	90 91 83 02 	lds	r25, 0x0283	; 0x800283 <flash_digits_hours>
     bc8:	99 23       	and	r25, r25
     bca:	d1 f0       	breq	.+52     	; 0xc00 <seven_segment_flashing_loop+0xb4>
        {
            if (display_data.enable_digits[1])
     bcc:	90 91 3b 02 	lds	r25, 0x023B	; 0x80023b <display_data+0x5>
     bd0:	91 11       	cpse	r25, r1
     bd2:	3c c0       	rjmp	.+120    	; 0xc4c <seven_segment_flashing_loop+0x100>
                display_data.enable_digits[1] = 0;
                display_data.enable_digits[0] = 0;
            }
            else
            {
                display_data.enable_digits[1] = 1;
     bd4:	91 e0       	ldi	r25, 0x01	; 1
     bd6:	90 93 3b 02 	sts	0x023B, r25	; 0x80023b <display_data+0x5>
                display_data.enable_digits[0] = 1;
     bda:	90 93 3a 02 	sts	0x023A, r25	; 0x80023a <display_data+0x4>
            }
        }
        // flash all digits
        if (flash_all_digits)
     bde:	88 23       	and	r24, r24
     be0:	41 f0       	breq	.+16     	; 0xbf2 <seven_segment_flashing_loop+0xa6>
        {
            if (display_data.enable_digits[1])
            {
                display_data.enable_digits[3] = 0;
     be2:	10 92 3d 02 	sts	0x023D, r1	; 0x80023d <display_data+0x7>
                display_data.enable_digits[2] = 0;
     be6:	10 92 3c 02 	sts	0x023C, r1	; 0x80023c <display_data+0x6>
                display_data.enable_digits[1] = 0;
     bea:	10 92 3b 02 	sts	0x023B, r1	; 0x80023b <display_data+0x5>
                display_data.enable_digits[0] = 0;
     bee:	10 92 3a 02 	sts	0x023A, r1	; 0x80023a <display_data+0x4>
                display_data.enable_digits[1] = 1;
                display_data.enable_digits[0] = 1;
            }
        }
    }
}
     bf2:	1f 91       	pop	r17
     bf4:	0f 91       	pop	r16
     bf6:	ff 90       	pop	r15
     bf8:	ef 90       	pop	r14
     bfa:	df 90       	pop	r13
     bfc:	cf 90       	pop	r12
     bfe:	08 95       	ret
                display_data.enable_digits[1] = 1;
                display_data.enable_digits[0] = 1;
            }
        }
        // flash all digits
        if (flash_all_digits)
     c00:	88 23       	and	r24, r24
     c02:	b9 f3       	breq	.-18     	; 0xbf2 <seven_segment_flashing_loop+0xa6>
        {
            if (display_data.enable_digits[1])
     c04:	80 91 3b 02 	lds	r24, 0x023B	; 0x80023b <display_data+0x5>
     c08:	81 11       	cpse	r24, r1
     c0a:	eb cf       	rjmp	.-42     	; 0xbe2 <seven_segment_flashing_loop+0x96>
                display_data.enable_digits[1] = 0;
                display_data.enable_digits[0] = 0;
            }
            else
            {
                display_data.enable_digits[3] = 1;
     c0c:	81 e0       	ldi	r24, 0x01	; 1
     c0e:	80 93 3d 02 	sts	0x023D, r24	; 0x80023d <display_data+0x7>
                display_data.enable_digits[2] = 1;
     c12:	80 93 3c 02 	sts	0x023C, r24	; 0x80023c <display_data+0x6>
                display_data.enable_digits[1] = 1;
     c16:	80 93 3b 02 	sts	0x023B, r24	; 0x80023b <display_data+0x5>
                display_data.enable_digits[0] = 1;
     c1a:	80 93 3a 02 	sts	0x023A, r24	; 0x80023a <display_data+0x4>
            }
        }
    }
}
     c1e:	1f 91       	pop	r17
     c20:	0f 91       	pop	r16
     c22:	ff 90       	pop	r15
     c24:	ef 90       	pop	r14
     c26:	df 90       	pop	r13
     c28:	cf 90       	pop	r12
     c2a:	08 95       	ret
        prev_millis_flash = t_millis;

        // flash colon
        if (flash_colon)
        {
            if (display_data.colon)
     c2c:	80 e0       	ldi	r24, 0x00	; 0
            }
            else
            {
                seven_segment_set_colon(0);
            }
            display_data.colon = !display_data.colon;
     c2e:	80 93 3e 02 	sts	0x023E, r24	; 0x80023e <display_data+0x8>
     c32:	ba cf       	rjmp	.-140    	; 0xba8 <seven_segment_flashing_loop+0x5c>
                display_data.enable_digits[3] = 0;
                display_data.enable_digits[2] = 0;
            }
            else
            {
                display_data.enable_digits[3] = 1;
     c34:	81 e0       	ldi	r24, 0x01	; 1
     c36:	80 93 3d 02 	sts	0x023D, r24	; 0x80023d <display_data+0x7>
                display_data.enable_digits[2] = 1;
     c3a:	80 93 3c 02 	sts	0x023C, r24	; 0x80023c <display_data+0x6>
     c3e:	80 91 82 02 	lds	r24, 0x0282	; 0x800282 <flash_all_digits>
            }
        }
        // flash digits 10
        if (flash_digits_hours)
     c42:	90 91 83 02 	lds	r25, 0x0283	; 0x800283 <flash_digits_hours>
     c46:	99 23       	and	r25, r25
     c48:	d9 f2       	breq	.-74     	; 0xc00 <seven_segment_flashing_loop+0xb4>
     c4a:	c0 cf       	rjmp	.-128    	; 0xbcc <seven_segment_flashing_loop+0x80>
        {
            if (display_data.enable_digits[1])
            {
                display_data.enable_digits[1] = 0;
     c4c:	10 92 3b 02 	sts	0x023B, r1	; 0x80023b <display_data+0x5>
                display_data.enable_digits[0] = 0;
     c50:	10 92 3a 02 	sts	0x023A, r1	; 0x80023a <display_data+0x4>
                display_data.enable_digits[1] = 1;
                display_data.enable_digits[0] = 1;
            }
        }
        // flash all digits
        if (flash_all_digits)
     c54:	81 11       	cpse	r24, r1
     c56:	da cf       	rjmp	.-76     	; 0xc0c <seven_segment_flashing_loop+0xc0>
     c58:	cc cf       	rjmp	.-104    	; 0xbf2 <seven_segment_flashing_loop+0xa6>

00000c5a <seven_segment_flash_colon>:
    }
}
/* flash the colon */
void seven_segment_flash_colon(uint8_t bool_flash)
{
    flash_colon = bool_flash;
     c5a:	80 93 44 02 	sts	0x0244, r24	; 0x800244 <flash_colon>
}
     c5e:	08 95       	ret

00000c60 <seven_segment_flash_digits_minutes>:

/* flash digits 3 and 2 */
void seven_segment_flash_digits_minutes(uint8_t bool_flash)
{
    flash_digits_minutes = bool_flash;
     c60:	80 93 81 02 	sts	0x0281, r24	; 0x800281 <flash_digits_minutes>
}
     c64:	08 95       	ret

00000c66 <seven_segment_flash_digits_hours>:
/* flash digits 1 and 0 */
void seven_segment_flash_digits_hours(uint8_t bool_flash)
{
    flash_digits_hours = bool_flash;
     c66:	80 93 83 02 	sts	0x0283, r24	; 0x800283 <flash_digits_hours>
}
     c6a:	08 95       	ret

00000c6c <seven_segment_flash_all_digits>:
/* flash all digits */
void seven_segment_flash_all_digits(uint8_t bool_flash)
{
    flash_all_digits = bool_flash;
     c6c:	80 93 82 02 	sts	0x0282, r24	; 0x800282 <flash_all_digits>
}
     c70:	08 95       	ret

00000c72 <seven_segment_show_hour_minute>:

void seven_segment_show_hour_minute(uint8_t hour, uint8_t minute)
{
     c72:	ef 92       	push	r14
     c74:	ff 92       	push	r15
     c76:	1f 93       	push	r17
     c78:	cf 93       	push	r28
     c7a:	df 93       	push	r29
     c7c:	00 d0       	rcall	.+0      	; 0xc7e <seven_segment_show_hour_minute+0xc>
     c7e:	00 d0       	rcall	.+0      	; 0xc80 <seven_segment_show_hour_minute+0xe>
     c80:	cd b7       	in	r28, 0x3d	; 61
     c82:	de b7       	in	r29, 0x3e	; 62
     c84:	88 31       	cpi	r24, 0x18	; 24
     c86:	08 f0       	brcs	.+2      	; 0xc8a <seven_segment_show_hour_minute+0x18>
     c88:	87 e1       	ldi	r24, 0x17	; 23
     c8a:	6c 33       	cpi	r22, 0x3C	; 60
     c8c:	08 f0       	brcs	.+2      	; 0xc90 <seven_segment_show_hour_minute+0x1e>
     c8e:	6b e3       	ldi	r22, 0x3B	; 59
    }

    uint8_t digit_indices[4];

    // get hour tens digit
    digit_indices[0] = hour / 10;
     c90:	9d ec       	ldi	r25, 0xCD	; 205
     c92:	89 9f       	mul	r24, r25
     c94:	e1 2d       	mov	r30, r1
     c96:	11 24       	eor	r1, r1
     c98:	e6 95       	lsr	r30
     c9a:	e6 95       	lsr	r30
     c9c:	e6 95       	lsr	r30
     c9e:	e9 83       	std	Y+1, r30	; 0x01
    // get hour ones digit
    digit_indices[1] = hour % 10;
     ca0:	2e 2f       	mov	r18, r30
     ca2:	22 0f       	add	r18, r18
     ca4:	22 0f       	add	r18, r18
     ca6:	2e 0f       	add	r18, r30
     ca8:	22 0f       	add	r18, r18
     caa:	82 1b       	sub	r24, r18
     cac:	8a 83       	std	Y+2, r24	; 0x02

    // get minute tens digit
    digit_indices[2] = minute / 10;
     cae:	69 9f       	mul	r22, r25
     cb0:	81 2d       	mov	r24, r1
     cb2:	11 24       	eor	r1, r1
     cb4:	86 95       	lsr	r24
     cb6:	86 95       	lsr	r24
     cb8:	86 95       	lsr	r24
     cba:	8b 83       	std	Y+3, r24	; 0x03
    // get minute ones digit
    digit_indices[3] = minute % 10;
     cbc:	98 2f       	mov	r25, r24
     cbe:	99 0f       	add	r25, r25
     cc0:	99 0f       	add	r25, r25
     cc2:	89 0f       	add	r24, r25
     cc4:	88 0f       	add	r24, r24
     cc6:	68 1b       	sub	r22, r24
     cc8:	6c 83       	std	Y+4, r22	; 0x04
    {
        display_data.enable_decimal_points[digit] = 1;
    }
    else
    {
        display_data.enable_decimal_points[digit] = 0;
     cca:	10 92 43 02 	sts	0x0243, r1	; 0x800243 <display_data+0xd>
     cce:	10 92 42 02 	sts	0x0242, r1	; 0x800242 <display_data+0xc>
     cd2:	10 92 41 02 	sts	0x0241, r1	; 0x800241 <display_data+0xb>
     cd6:	10 92 40 02 	sts	0x0240, r1	; 0x800240 <display_data+0xa>
     cda:	7e 01       	movw	r14, r28
     cdc:	82 e0       	ldi	r24, 0x02	; 2
     cde:	e8 0e       	add	r14, r24
     ce0:	f1 1c       	adc	r15, r1
     ce2:	10 e0       	ldi	r17, 0x00	; 0
    }
}

void seven_segment_write_digit_val_to_digit(uint8_t digit_index, uint8_t digit)
{
    seven_segment_write_byte_to_digit(digit_values[digit_index], digit);
     ce4:	f0 e0       	ldi	r31, 0x00	; 0
     ce6:	e0 50       	subi	r30, 0x00	; 0
     ce8:	ff 4f       	sbci	r31, 0xFF	; 255
     cea:	61 2f       	mov	r22, r17
     cec:	80 81       	ld	r24, Z
     cee:	0e 94 4c 05 	call	0xa98	; 0xa98 <seven_segment_write_byte_to_digit>
     cf2:	1f 5f       	subi	r17, 0xFF	; 255
}

void seven_segment_write_digit_vals(uint8_t digit_indices[4])
{
    for (int i = 0; i < 4; i++)
     cf4:	14 30       	cpi	r17, 0x04	; 4
     cf6:	21 f0       	breq	.+8      	; 0xd00 <seven_segment_show_hour_minute+0x8e>
     cf8:	d7 01       	movw	r26, r14
     cfa:	ed 91       	ld	r30, X+
     cfc:	7d 01       	movw	r14, r26
     cfe:	f2 cf       	rjmp	.-28     	; 0xce4 <seven_segment_show_hour_minute+0x72>
    seven_segment_set_decimal_point(1, 0);
    seven_segment_set_decimal_point(0, 0);

    // write to display
    seven_segment_write_digit_vals(digit_indices);
}
     d00:	0f 90       	pop	r0
     d02:	0f 90       	pop	r0
     d04:	0f 90       	pop	r0
     d06:	0f 90       	pop	r0
     d08:	df 91       	pop	r29
     d0a:	cf 91       	pop	r28
     d0c:	1f 91       	pop	r17
     d0e:	ff 90       	pop	r15
     d10:	ef 90       	pop	r14
     d12:	08 95       	ret

00000d14 <seven_segment_show_month_day>:

void seven_segment_show_month_day(uint8_t month, uint8_t day)
{
     d14:	ef 92       	push	r14
     d16:	ff 92       	push	r15
     d18:	1f 93       	push	r17
     d1a:	cf 93       	push	r28
     d1c:	df 93       	push	r29
     d1e:	00 d0       	rcall	.+0      	; 0xd20 <seven_segment_show_month_day+0xc>
     d20:	00 d0       	rcall	.+0      	; 0xd22 <seven_segment_show_month_day+0xe>
     d22:	cd b7       	in	r28, 0x3d	; 61
     d24:	de b7       	in	r29, 0x3e	; 62
    // error checking
    if (month < 1)
     d26:	88 23       	and	r24, r24
     d28:	09 f4       	brne	.+2      	; 0xd2c <seven_segment_show_month_day+0x18>
     d2a:	5b c0       	rjmp	.+182    	; 0xde2 <seven_segment_show_month_day+0xce>
     d2c:	8d 30       	cpi	r24, 0x0D	; 13
     d2e:	08 f0       	brcs	.+2      	; 0xd32 <seven_segment_show_month_day+0x1e>
     d30:	5e c0       	rjmp	.+188    	; 0xdee <seven_segment_show_month_day+0xda>
     d32:	2d ec       	ldi	r18, 0xCD	; 205
     d34:	82 9f       	mul	r24, r18
     d36:	21 2d       	mov	r18, r1
     d38:	11 24       	eor	r1, r1
     d3a:	26 95       	lsr	r18
     d3c:	26 95       	lsr	r18
     d3e:	26 95       	lsr	r18
     d40:	92 2f       	mov	r25, r18
     d42:	99 0f       	add	r25, r25
     d44:	99 0f       	add	r25, r25
     d46:	92 0f       	add	r25, r18
     d48:	99 0f       	add	r25, r25
     d4a:	89 1b       	sub	r24, r25
     d4c:	98 2f       	mov	r25, r24
     d4e:	e2 2f       	mov	r30, r18
     d50:	f0 e0       	ldi	r31, 0x00	; 0
     d52:	e0 50       	subi	r30, 0x00	; 0
     d54:	ff 4f       	sbci	r31, 0xFF	; 255
     d56:	80 81       	ld	r24, Z
    }
    else if (month > 12)
    {
        month = 12;
    }
    if (day < 1)
     d58:	66 23       	and	r22, r22
     d5a:	09 f4       	brne	.+2      	; 0xd5e <seven_segment_show_month_day+0x4a>
     d5c:	3f c0       	rjmp	.+126    	; 0xddc <seven_segment_show_month_day+0xc8>
     d5e:	60 32       	cpi	r22, 0x20	; 32
     d60:	08 f0       	brcs	.+2      	; 0xd64 <seven_segment_show_month_day+0x50>
     d62:	43 c0       	rjmp	.+134    	; 0xdea <seven_segment_show_month_day+0xd6>
     d64:	3d ec       	ldi	r19, 0xCD	; 205
     d66:	63 9f       	mul	r22, r19
     d68:	31 2d       	mov	r19, r1
     d6a:	11 24       	eor	r1, r1
     d6c:	36 95       	lsr	r19
     d6e:	36 95       	lsr	r19
     d70:	36 95       	lsr	r19
     d72:	43 2f       	mov	r20, r19
     d74:	44 0f       	add	r20, r20
     d76:	44 0f       	add	r20, r20
     d78:	43 0f       	add	r20, r19
     d7a:	44 0f       	add	r20, r20
     d7c:	64 1b       	sub	r22, r20
    }

    uint8_t digit_indices[4];

    // get hour tens digit
    digit_indices[0] = month / 10;
     d7e:	29 83       	std	Y+1, r18	; 0x01
    // get hour ones digit
    digit_indices[1] = month % 10;
     d80:	9a 83       	std	Y+2, r25	; 0x02

    // get minute tens digit
    digit_indices[2] = day / 10;
     d82:	3b 83       	std	Y+3, r19	; 0x03
    // get minute ones digit
    digit_indices[3] = day % 10;
     d84:	6c 83       	std	Y+4, r22	; 0x04

void seven_segment_set_decimal_point(uint8_t digit, uint8_t state)
{
    if (state)
    {
        display_data.enable_decimal_points[digit] = 1;
     d86:	91 e0       	ldi	r25, 0x01	; 1
     d88:	90 93 43 02 	sts	0x0243, r25	; 0x800243 <display_data+0xd>
    }
    else
    {
        display_data.enable_decimal_points[digit] = 0;
     d8c:	10 92 42 02 	sts	0x0242, r1	; 0x800242 <display_data+0xc>

void seven_segment_set_decimal_point(uint8_t digit, uint8_t state)
{
    if (state)
    {
        display_data.enable_decimal_points[digit] = 1;
     d90:	90 93 41 02 	sts	0x0241, r25	; 0x800241 <display_data+0xb>
    }
    else
    {
        display_data.enable_decimal_points[digit] = 0;
     d94:	10 92 40 02 	sts	0x0240, r1	; 0x800240 <display_data+0xa>
     d98:	7e 01       	movw	r14, r28
     d9a:	92 e0       	ldi	r25, 0x02	; 2
     d9c:	e9 0e       	add	r14, r25
     d9e:	f1 1c       	adc	r15, r1
     da0:	10 e0       	ldi	r17, 0x00	; 0
    }
}

void seven_segment_write_digit_val_to_digit(uint8_t digit_index, uint8_t digit)
{
    seven_segment_write_byte_to_digit(digit_values[digit_index], digit);
     da2:	61 2f       	mov	r22, r17
     da4:	0e 94 4c 05 	call	0xa98	; 0xa98 <seven_segment_write_byte_to_digit>
     da8:	1f 5f       	subi	r17, 0xFF	; 255
}

void seven_segment_write_digit_vals(uint8_t digit_indices[4])
{
    for (int i = 0; i < 4; i++)
     daa:	14 30       	cpi	r17, 0x04	; 4
     dac:	69 f0       	breq	.+26     	; 0xdc8 <seven_segment_show_month_day+0xb4>
     dae:	d7 01       	movw	r26, r14
     db0:	ed 91       	ld	r30, X+
     db2:	7d 01       	movw	r14, r26
     db4:	f0 e0       	ldi	r31, 0x00	; 0
     db6:	e0 50       	subi	r30, 0x00	; 0
     db8:	ff 4f       	sbci	r31, 0xFF	; 255
     dba:	80 81       	ld	r24, Z
    }
}

void seven_segment_write_digit_val_to_digit(uint8_t digit_index, uint8_t digit)
{
    seven_segment_write_byte_to_digit(digit_values[digit_index], digit);
     dbc:	61 2f       	mov	r22, r17
     dbe:	0e 94 4c 05 	call	0xa98	; 0xa98 <seven_segment_write_byte_to_digit>
     dc2:	1f 5f       	subi	r17, 0xFF	; 255
}

void seven_segment_write_digit_vals(uint8_t digit_indices[4])
{
    for (int i = 0; i < 4; i++)
     dc4:	14 30       	cpi	r17, 0x04	; 4
     dc6:	99 f7       	brne	.-26     	; 0xdae <seven_segment_show_month_day+0x9a>
    seven_segment_set_decimal_point(1, 1);
    seven_segment_set_decimal_point(0, 0);

    // write to display
    seven_segment_write_digit_vals(digit_indices);
}
     dc8:	0f 90       	pop	r0
     dca:	0f 90       	pop	r0
     dcc:	0f 90       	pop	r0
     dce:	0f 90       	pop	r0
     dd0:	df 91       	pop	r29
     dd2:	cf 91       	pop	r28
     dd4:	1f 91       	pop	r17
     dd6:	ff 90       	pop	r15
     dd8:	ef 90       	pop	r14
     dda:	08 95       	ret
     ddc:	61 e0       	ldi	r22, 0x01	; 1
     dde:	30 e0       	ldi	r19, 0x00	; 0
     de0:	ce cf       	rjmp	.-100    	; 0xd7e <seven_segment_show_month_day+0x6a>
     de2:	8f e3       	ldi	r24, 0x3F	; 63
     de4:	91 e0       	ldi	r25, 0x01	; 1
     de6:	20 e0       	ldi	r18, 0x00	; 0
     de8:	b7 cf       	rjmp	.-146    	; 0xd58 <seven_segment_show_month_day+0x44>
     dea:	6f e1       	ldi	r22, 0x1F	; 31
     dec:	bb cf       	rjmp	.-138    	; 0xd64 <seven_segment_show_month_day+0x50>
     dee:	8c e0       	ldi	r24, 0x0C	; 12
     df0:	a0 cf       	rjmp	.-192    	; 0xd32 <seven_segment_show_month_day+0x1e>

00000df2 <seven_segment_show_year>:

void seven_segment_show_year(uint16_t year)
{
     df2:	ef 92       	push	r14
     df4:	ff 92       	push	r15
     df6:	0f 93       	push	r16
     df8:	1f 93       	push	r17
     dfa:	cf 93       	push	r28
     dfc:	df 93       	push	r29
     dfe:	00 d0       	rcall	.+0      	; 0xe00 <seven_segment_show_year+0xe>
     e00:	00 d0       	rcall	.+0      	; 0xe02 <seven_segment_show_year+0x10>
     e02:	cd b7       	in	r28, 0x3d	; 61
     e04:	de b7       	in	r29, 0x3e	; 62
     e06:	9c 01       	movw	r18, r24
     e08:	20 31       	cpi	r18, 0x10	; 16
     e0a:	87 e2       	ldi	r24, 0x27	; 39
     e0c:	38 07       	cpc	r19, r24
     e0e:	10 f0       	brcs	.+4      	; 0xe14 <seven_segment_show_year+0x22>
     e10:	2f e0       	ldi	r18, 0x0F	; 15
     e12:	37 e2       	ldi	r19, 0x27	; 39
    else if (year > 9999)
    {
        year = 9999;
    }
    uint8_t digit_indices[4];
    digit_indices[0] = year / 1000;
     e14:	c9 01       	movw	r24, r18
     e16:	68 ee       	ldi	r22, 0xE8	; 232
     e18:	73 e0       	ldi	r23, 0x03	; 3
     e1a:	0e 94 3e 14 	call	0x287c	; 0x287c <__divmodhi4>
     e1e:	e6 2f       	mov	r30, r22
     e20:	69 83       	std	Y+1, r22	; 0x01
    digit_indices[1] = (year % 1000) / 100;
     e22:	04 e6       	ldi	r16, 0x64	; 100
     e24:	10 e0       	ldi	r17, 0x00	; 0
     e26:	b8 01       	movw	r22, r16
     e28:	0e 94 3e 14 	call	0x287c	; 0x287c <__divmodhi4>
     e2c:	6a 83       	std	Y+2, r22	; 0x02
    digit_indices[2] = (year % 100) / 10;
     e2e:	c9 01       	movw	r24, r18
     e30:	b8 01       	movw	r22, r16
     e32:	0e 94 3e 14 	call	0x287c	; 0x287c <__divmodhi4>
     e36:	0a e0       	ldi	r16, 0x0A	; 10
     e38:	10 e0       	ldi	r17, 0x00	; 0
     e3a:	b8 01       	movw	r22, r16
     e3c:	0e 94 3e 14 	call	0x287c	; 0x287c <__divmodhi4>
     e40:	6b 83       	std	Y+3, r22	; 0x03
    digit_indices[3] = year % 10;
     e42:	c9 01       	movw	r24, r18
     e44:	b8 01       	movw	r22, r16
     e46:	0e 94 3e 14 	call	0x287c	; 0x287c <__divmodhi4>
     e4a:	8c 83       	std	Y+4, r24	; 0x04

void seven_segment_set_decimal_point(uint8_t digit, uint8_t state)
{
    if (state)
    {
        display_data.enable_decimal_points[digit] = 1;
     e4c:	81 e0       	ldi	r24, 0x01	; 1
     e4e:	80 93 43 02 	sts	0x0243, r24	; 0x800243 <display_data+0xd>
    }
    else
    {
        display_data.enable_decimal_points[digit] = 0;
     e52:	10 92 42 02 	sts	0x0242, r1	; 0x800242 <display_data+0xc>
     e56:	10 92 41 02 	sts	0x0241, r1	; 0x800241 <display_data+0xb>
     e5a:	10 92 40 02 	sts	0x0240, r1	; 0x800240 <display_data+0xa>
     e5e:	7e 01       	movw	r14, r28
     e60:	a2 e0       	ldi	r26, 0x02	; 2
     e62:	ea 0e       	add	r14, r26
     e64:	f1 1c       	adc	r15, r1
     e66:	10 e0       	ldi	r17, 0x00	; 0
    }
}

void seven_segment_write_digit_val_to_digit(uint8_t digit_index, uint8_t digit)
{
    seven_segment_write_byte_to_digit(digit_values[digit_index], digit);
     e68:	f0 e0       	ldi	r31, 0x00	; 0
     e6a:	e0 50       	subi	r30, 0x00	; 0
     e6c:	ff 4f       	sbci	r31, 0xFF	; 255
     e6e:	61 2f       	mov	r22, r17
     e70:	80 81       	ld	r24, Z
     e72:	0e 94 4c 05 	call	0xa98	; 0xa98 <seven_segment_write_byte_to_digit>
     e76:	1f 5f       	subi	r17, 0xFF	; 255
}

void seven_segment_write_digit_vals(uint8_t digit_indices[4])
{
    for (int i = 0; i < 4; i++)
     e78:	14 30       	cpi	r17, 0x04	; 4
     e7a:	21 f0       	breq	.+8      	; 0xe84 <seven_segment_show_year+0x92>
     e7c:	d7 01       	movw	r26, r14
     e7e:	ed 91       	ld	r30, X+
     e80:	7d 01       	movw	r14, r26
     e82:	f2 cf       	rjmp	.-28     	; 0xe68 <seven_segment_show_year+0x76>
    seven_segment_set_decimal_point(3, 1);
    seven_segment_set_decimal_point(2, 0);
    seven_segment_set_decimal_point(1, 0);
    seven_segment_set_decimal_point(0, 0);
    seven_segment_write_digit_vals(digit_indices);
}
     e84:	0f 90       	pop	r0
     e86:	0f 90       	pop	r0
     e88:	0f 90       	pop	r0
     e8a:	0f 90       	pop	r0
     e8c:	df 91       	pop	r29
     e8e:	cf 91       	pop	r28
     e90:	1f 91       	pop	r17
     e92:	0f 91       	pop	r16
     e94:	ff 90       	pop	r15
     e96:	ef 90       	pop	r14
     e98:	08 95       	ret

00000e9a <seven_segment_show_temperature>:

void seven_segment_show_temperature(float temperature_celsius)
{
     e9a:	af 92       	push	r10
     e9c:	bf 92       	push	r11
     e9e:	cf 92       	push	r12
     ea0:	df 92       	push	r13
     ea2:	ef 92       	push	r14
     ea4:	ff 92       	push	r15
     ea6:	0f 93       	push	r16
     ea8:	1f 93       	push	r17
     eaa:	cf 93       	push	r28
     eac:	df 93       	push	r29
     eae:	00 d0       	rcall	.+0      	; 0xeb0 <seven_segment_show_temperature+0x16>
     eb0:	00 d0       	rcall	.+0      	; 0xeb2 <seven_segment_show_temperature+0x18>
     eb2:	cd b7       	in	r28, 0x3d	; 61
     eb4:	de b7       	in	r29, 0x3e	; 62
     eb6:	6b 01       	movw	r12, r22
     eb8:	7c 01       	movw	r14, r24
    int16_t temperature_int;
    // 27.0C
    if (temperature_celsius < -40.)
     eba:	20 e0       	ldi	r18, 0x00	; 0
     ebc:	30 e0       	ldi	r19, 0x00	; 0
     ebe:	40 e2       	ldi	r20, 0x20	; 32
     ec0:	52 ec       	ldi	r21, 0xC2	; 194
     ec2:	0e 94 86 14 	call	0x290c	; 0x290c <__cmpsf2>
     ec6:	87 fd       	sbrc	r24, 7
     ec8:	3a c0       	rjmp	.+116    	; 0xf3e <seven_segment_show_temperature+0xa4>
    {
        temperature_celsius = -40.;
    }
    else if (temperature_celsius > 125.)
     eca:	20 e0       	ldi	r18, 0x00	; 0
     ecc:	30 e0       	ldi	r19, 0x00	; 0
     ece:	4a ef       	ldi	r20, 0xFA	; 250
     ed0:	52 e4       	ldi	r21, 0x42	; 66
     ed2:	c7 01       	movw	r24, r14
     ed4:	b6 01       	movw	r22, r12
     ed6:	0e 94 0e 15 	call	0x2a1c	; 0x2a1c <__gesf2>
     eda:	18 16       	cp	r1, r24
     edc:	0c f4       	brge	.+2      	; 0xee0 <seven_segment_show_temperature+0x46>
     ede:	7a c0       	rjmp	.+244    	; 0xfd4 <seven_segment_show_temperature+0x13a>
    {
        temperature_celsius = 125.;
    }
    uint8_t digit_indices[4];
    // get tens digit
    if (temperature_celsius < 0.)
     ee0:	20 e0       	ldi	r18, 0x00	; 0
     ee2:	30 e0       	ldi	r19, 0x00	; 0
     ee4:	a9 01       	movw	r20, r18
     ee6:	c7 01       	movw	r24, r14
     ee8:	b6 01       	movw	r22, r12
     eea:	0e 94 86 14 	call	0x290c	; 0x290c <__cmpsf2>
     eee:	20 e0       	ldi	r18, 0x00	; 0
     ef0:	30 e0       	ldi	r19, 0x00	; 0
     ef2:	40 e2       	ldi	r20, 0x20	; 32
     ef4:	51 ec       	ldi	r21, 0xC1	; 193
     ef6:	87 fd       	sbrc	r24, 7
     ef8:	04 c0       	rjmp	.+8      	; 0xf02 <seven_segment_show_temperature+0x68>
     efa:	20 e0       	ldi	r18, 0x00	; 0
     efc:	30 e0       	ldi	r19, 0x00	; 0
     efe:	40 e2       	ldi	r20, 0x20	; 32
     f00:	51 e4       	ldi	r21, 0x41	; 65
     f02:	c7 01       	movw	r24, r14
     f04:	b6 01       	movw	r22, r12
     f06:	0e 94 13 15 	call	0x2a26	; 0x2a26 <__mulsf3>
     f0a:	0e 94 8b 14 	call	0x2916	; 0x2916 <__fixsfsi>
     f0e:	8b 01       	movw	r16, r22
     f10:	cb 01       	movw	r24, r22
     f12:	64 e6       	ldi	r22, 0x64	; 100
     f14:	70 e0       	ldi	r23, 0x00	; 0
     f16:	0e 94 3e 14 	call	0x287c	; 0x287c <__divmodhi4>
     f1a:	fb 01       	movw	r30, r22
     f1c:	36 2f       	mov	r19, r22
     f1e:	5a e0       	ldi	r21, 0x0A	; 10
     f20:	a5 2e       	mov	r10, r21
     f22:	b1 2c       	mov	r11, r1
     f24:	b5 01       	movw	r22, r10
     f26:	0e 94 3e 14 	call	0x287c	; 0x287c <__divmodhi4>
     f2a:	26 2f       	mov	r18, r22
     f2c:	c8 01       	movw	r24, r16
     f2e:	b5 01       	movw	r22, r10
     f30:	0e 94 3e 14 	call	0x287c	; 0x287c <__divmodhi4>
     f34:	ff 27       	eor	r31, r31
     f36:	e0 50       	subi	r30, 0x00	; 0
     f38:	ff 4f       	sbci	r31, 0xFF	; 255
     f3a:	00 81       	ld	r16, Z
     f3c:	0a c0       	rjmp	.+20     	; 0xf52 <seven_segment_show_temperature+0xb8>
     f3e:	06 e6       	ldi	r16, 0x66	; 102
     f40:	80 e0       	ldi	r24, 0x00	; 0
     f42:	20 e0       	ldi	r18, 0x00	; 0
     f44:	34 e0       	ldi	r19, 0x04	; 4
{
    int16_t temperature_int;
    // 27.0C
    if (temperature_celsius < -40.)
    {
        temperature_celsius = -40.;
     f46:	c1 2c       	mov	r12, r1
     f48:	d1 2c       	mov	r13, r1
     f4a:	40 e2       	ldi	r20, 0x20	; 32
     f4c:	e4 2e       	mov	r14, r20
     f4e:	42 ec       	ldi	r20, 0xC2	; 194
     f50:	f4 2e       	mov	r15, r20
    else
    {
        temperature_int = temperature_celsius * 10;
    }

    digit_indices[0] = temperature_int / 100;
     f52:	39 83       	std	Y+1, r19	; 0x01
    // get ones digit
    digit_indices[1] = (temperature_int % 100) / 10;
     f54:	2a 83       	std	Y+2, r18	; 0x02

    // get tenths digit
    digit_indices[2] = (temperature_int % 10);
     f56:	8b 83       	std	Y+3, r24	; 0x03
    // ones digit gets decimal point
    // last digit get C for celsius
    digit_indices[3] = 0xc;
     f58:	8c e0       	ldi	r24, 0x0C	; 12
     f5a:	8c 83       	std	Y+4, r24	; 0x04
    {
        display_data.enable_decimal_points[digit] = 1;
    }
    else
    {
        display_data.enable_decimal_points[digit] = 0;
     f5c:	10 92 43 02 	sts	0x0243, r1	; 0x800243 <display_data+0xd>
     f60:	10 92 42 02 	sts	0x0242, r1	; 0x800242 <display_data+0xc>

void seven_segment_set_decimal_point(uint8_t digit, uint8_t state)
{
    if (state)
    {
        display_data.enable_decimal_points[digit] = 1;
     f64:	81 e0       	ldi	r24, 0x01	; 1
     f66:	80 93 41 02 	sts	0x0241, r24	; 0x800241 <display_data+0xb>
    // decimal points
    seven_segment_set_decimal_point(3, 0);
    seven_segment_set_decimal_point(2, 0);
    seven_segment_set_decimal_point(1, 1);
    // if temperature sub zero, light up the 0th decimal point
    if (temperature_celsius < 0.)
     f6a:	20 e0       	ldi	r18, 0x00	; 0
     f6c:	30 e0       	ldi	r19, 0x00	; 0
     f6e:	a9 01       	movw	r20, r18
     f70:	c7 01       	movw	r24, r14
     f72:	b6 01       	movw	r22, r12
     f74:	0e 94 86 14 	call	0x290c	; 0x290c <__cmpsf2>
    {
        display_data.enable_decimal_points[digit] = 1;
    }
    else
    {
        display_data.enable_decimal_points[digit] = 0;
     f78:	88 1f       	adc	r24, r24
     f7a:	88 27       	eor	r24, r24
     f7c:	88 1f       	adc	r24, r24
     f7e:	80 93 40 02 	sts	0x0240, r24	; 0x800240 <display_data+0xa>
     f82:	7e 01       	movw	r14, r28
     f84:	82 e0       	ldi	r24, 0x02	; 2
     f86:	e8 0e       	add	r14, r24
     f88:	f1 1c       	adc	r15, r1
    {
        temperature_celsius = -40.;
    }
    else if (temperature_celsius > 125.)
    {
        temperature_celsius = 125.;
     f8a:	10 e0       	ldi	r17, 0x00	; 0
    }
}

void seven_segment_write_digit_val_to_digit(uint8_t digit_index, uint8_t digit)
{
    seven_segment_write_byte_to_digit(digit_values[digit_index], digit);
     f8c:	61 2f       	mov	r22, r17
     f8e:	80 2f       	mov	r24, r16
     f90:	0e 94 4c 05 	call	0xa98	; 0xa98 <seven_segment_write_byte_to_digit>
     f94:	1f 5f       	subi	r17, 0xFF	; 255
}

void seven_segment_write_digit_vals(uint8_t digit_indices[4])
{
    for (int i = 0; i < 4; i++)
     f96:	14 30       	cpi	r17, 0x04	; 4
     f98:	71 f0       	breq	.+28     	; 0xfb6 <seven_segment_show_temperature+0x11c>
     f9a:	d7 01       	movw	r26, r14
     f9c:	ed 91       	ld	r30, X+
     f9e:	7d 01       	movw	r14, r26
     fa0:	f0 e0       	ldi	r31, 0x00	; 0
     fa2:	e0 50       	subi	r30, 0x00	; 0
     fa4:	ff 4f       	sbci	r31, 0xFF	; 255
     fa6:	00 81       	ld	r16, Z
    }
}

void seven_segment_write_digit_val_to_digit(uint8_t digit_index, uint8_t digit)
{
    seven_segment_write_byte_to_digit(digit_values[digit_index], digit);
     fa8:	61 2f       	mov	r22, r17
     faa:	80 2f       	mov	r24, r16
     fac:	0e 94 4c 05 	call	0xa98	; 0xa98 <seven_segment_write_byte_to_digit>
     fb0:	1f 5f       	subi	r17, 0xFF	; 255
}

void seven_segment_write_digit_vals(uint8_t digit_indices[4])
{
    for (int i = 0; i < 4; i++)
     fb2:	14 30       	cpi	r17, 0x04	; 4
     fb4:	91 f7       	brne	.-28     	; 0xf9a <seven_segment_show_temperature+0x100>
    {
        seven_segment_set_decimal_point(0, 0);
    }

    seven_segment_write_digit_vals(digit_indices);
}
     fb6:	0f 90       	pop	r0
     fb8:	0f 90       	pop	r0
     fba:	0f 90       	pop	r0
     fbc:	0f 90       	pop	r0
     fbe:	df 91       	pop	r29
     fc0:	cf 91       	pop	r28
     fc2:	1f 91       	pop	r17
     fc4:	0f 91       	pop	r16
     fc6:	ff 90       	pop	r15
     fc8:	ef 90       	pop	r14
     fca:	df 90       	pop	r13
     fcc:	cf 90       	pop	r12
     fce:	bf 90       	pop	r11
     fd0:	af 90       	pop	r10
     fd2:	08 95       	ret
     fd4:	09 e3       	ldi	r16, 0x39	; 57
     fd6:	80 e0       	ldi	r24, 0x00	; 0
     fd8:	25 e0       	ldi	r18, 0x05	; 5
     fda:	3c e0       	ldi	r19, 0x0C	; 12
    {
        temperature_celsius = -40.;
    }
    else if (temperature_celsius > 125.)
    {
        temperature_celsius = 125.;
     fdc:	c1 2c       	mov	r12, r1
     fde:	d1 2c       	mov	r13, r1
     fe0:	9a ef       	ldi	r25, 0xFA	; 250
     fe2:	e9 2e       	mov	r14, r25
     fe4:	92 e4       	ldi	r25, 0x42	; 66
     fe6:	f9 2e       	mov	r15, r25
     fe8:	b4 cf       	rjmp	.-152    	; 0xf52 <seven_segment_show_temperature+0xb8>

00000fea <seven_segment_show_humidity>:

    seven_segment_write_digit_vals(digit_indices);
}

void seven_segment_show_humidity(float humidity)
{
     fea:	cf 92       	push	r12
     fec:	df 92       	push	r13
     fee:	ef 92       	push	r14
     ff0:	ff 92       	push	r15
     ff2:	0f 93       	push	r16
     ff4:	1f 93       	push	r17
     ff6:	cf 93       	push	r28
     ff8:	df 93       	push	r29
     ffa:	00 d0       	rcall	.+0      	; 0xffc <seven_segment_show_humidity+0x12>
     ffc:	00 d0       	rcall	.+0      	; 0xffe <seven_segment_show_humidity+0x14>
     ffe:	cd b7       	in	r28, 0x3d	; 61
    1000:	de b7       	in	r29, 0x3e	; 62
    1002:	6b 01       	movw	r12, r22
    1004:	7c 01       	movw	r14, r24
    // 60.0h
    if (humidity < 0.)
    1006:	20 e0       	ldi	r18, 0x00	; 0
    1008:	30 e0       	ldi	r19, 0x00	; 0
    100a:	a9 01       	movw	r20, r18
    100c:	0e 94 86 14 	call	0x290c	; 0x290c <__cmpsf2>
    1010:	87 fd       	sbrc	r24, 7
    1012:	64 c0       	rjmp	.+200    	; 0x10dc <seven_segment_show_humidity+0xf2>
    {
        humidity = 0.;
    }
    else if (humidity > 100.)
    1014:	20 e0       	ldi	r18, 0x00	; 0
    1016:	30 e0       	ldi	r19, 0x00	; 0
    1018:	48 ec       	ldi	r20, 0xC8	; 200
    101a:	52 e4       	ldi	r21, 0x42	; 66
    101c:	c7 01       	movw	r24, r14
    101e:	b6 01       	movw	r22, r12
    1020:	0e 94 0e 15 	call	0x2a1c	; 0x2a1c <__gesf2>
    1024:	18 16       	cp	r1, r24
    1026:	0c f4       	brge	.+2      	; 0x102a <seven_segment_show_humidity+0x40>
    1028:	54 c0       	rjmp	.+168    	; 0x10d2 <seven_segment_show_humidity+0xe8>
    102a:	20 e0       	ldi	r18, 0x00	; 0
    102c:	30 e0       	ldi	r19, 0x00	; 0
    102e:	40 e2       	ldi	r20, 0x20	; 32
    1030:	51 e4       	ldi	r21, 0x41	; 65
    1032:	c7 01       	movw	r24, r14
    1034:	b6 01       	movw	r22, r12
    1036:	0e 94 13 15 	call	0x2a26	; 0x2a26 <__mulsf3>
    103a:	0e 94 8b 14 	call	0x2916	; 0x2916 <__fixsfsi>
    103e:	7b 01       	movw	r14, r22
    1040:	cb 01       	movw	r24, r22
    1042:	64 e6       	ldi	r22, 0x64	; 100
    1044:	70 e0       	ldi	r23, 0x00	; 0
    1046:	0e 94 3e 14 	call	0x287c	; 0x287c <__divmodhi4>
    104a:	fb 01       	movw	r30, r22
    104c:	36 2f       	mov	r19, r22
    104e:	0a e0       	ldi	r16, 0x0A	; 10
    1050:	10 e0       	ldi	r17, 0x00	; 0
    1052:	b8 01       	movw	r22, r16
    1054:	0e 94 3e 14 	call	0x287c	; 0x287c <__divmodhi4>
    1058:	26 2f       	mov	r18, r22
    105a:	c7 01       	movw	r24, r14
    105c:	b8 01       	movw	r22, r16
    105e:	0e 94 3e 14 	call	0x287c	; 0x287c <__divmodhi4>
    1062:	98 2f       	mov	r25, r24
    1064:	ff 27       	eor	r31, r31
    1066:	e0 50       	subi	r30, 0x00	; 0
    1068:	ff 4f       	sbci	r31, 0xFF	; 255
    106a:	80 81       	ld	r24, Z
        humidity = 100.;
    }
    uint8_t digit_indices[4];
    // get tens digit
    int16_t humidity_int = humidity * 10;
    digit_indices[0] = humidity_int / 100;
    106c:	39 83       	std	Y+1, r19	; 0x01
    // get ones digit
    digit_indices[1] = (humidity_int % 100) / 10;
    106e:	2a 83       	std	Y+2, r18	; 0x02

    // get tenths digit
    digit_indices[2] = (humidity_int % 10);
    1070:	9b 83       	std	Y+3, r25	; 0x03
    // ones digit gets decimal point
    // last digit get C for celsius
    digit_indices[3] = 0x10;
    1072:	90 e1       	ldi	r25, 0x10	; 16
    1074:	9c 83       	std	Y+4, r25	; 0x04

void seven_segment_set_decimal_point(uint8_t digit, uint8_t state)
{
    if (state)
    {
        display_data.enable_decimal_points[digit] = 1;
    1076:	91 e0       	ldi	r25, 0x01	; 1
    1078:	90 93 43 02 	sts	0x0243, r25	; 0x800243 <display_data+0xd>
    }
    else
    {
        display_data.enable_decimal_points[digit] = 0;
    107c:	10 92 42 02 	sts	0x0242, r1	; 0x800242 <display_data+0xc>

void seven_segment_set_decimal_point(uint8_t digit, uint8_t state)
{
    if (state)
    {
        display_data.enable_decimal_points[digit] = 1;
    1080:	90 93 41 02 	sts	0x0241, r25	; 0x800241 <display_data+0xb>
    }
    else
    {
        display_data.enable_decimal_points[digit] = 0;
    1084:	10 92 40 02 	sts	0x0240, r1	; 0x800240 <display_data+0xa>
    1088:	7e 01       	movw	r14, r28
    108a:	92 e0       	ldi	r25, 0x02	; 2
    108c:	e9 0e       	add	r14, r25
    108e:	f1 1c       	adc	r15, r1
    1090:	10 e0       	ldi	r17, 0x00	; 0
    }
}

void seven_segment_write_digit_val_to_digit(uint8_t digit_index, uint8_t digit)
{
    seven_segment_write_byte_to_digit(digit_values[digit_index], digit);
    1092:	61 2f       	mov	r22, r17
    1094:	0e 94 4c 05 	call	0xa98	; 0xa98 <seven_segment_write_byte_to_digit>
    1098:	1f 5f       	subi	r17, 0xFF	; 255
}

void seven_segment_write_digit_vals(uint8_t digit_indices[4])
{
    for (int i = 0; i < 4; i++)
    109a:	14 30       	cpi	r17, 0x04	; 4
    109c:	69 f0       	breq	.+26     	; 0x10b8 <seven_segment_show_humidity+0xce>
    109e:	d7 01       	movw	r26, r14
    10a0:	ed 91       	ld	r30, X+
    10a2:	7d 01       	movw	r14, r26
    10a4:	f0 e0       	ldi	r31, 0x00	; 0
    10a6:	e0 50       	subi	r30, 0x00	; 0
    10a8:	ff 4f       	sbci	r31, 0xFF	; 255
    10aa:	80 81       	ld	r24, Z
    }
}

void seven_segment_write_digit_val_to_digit(uint8_t digit_index, uint8_t digit)
{
    seven_segment_write_byte_to_digit(digit_values[digit_index], digit);
    10ac:	61 2f       	mov	r22, r17
    10ae:	0e 94 4c 05 	call	0xa98	; 0xa98 <seven_segment_write_byte_to_digit>
    10b2:	1f 5f       	subi	r17, 0xFF	; 255
}

void seven_segment_write_digit_vals(uint8_t digit_indices[4])
{
    for (int i = 0; i < 4; i++)
    10b4:	14 30       	cpi	r17, 0x04	; 4
    10b6:	99 f7       	brne	.-26     	; 0x109e <seven_segment_show_humidity+0xb4>
    seven_segment_set_decimal_point(2, 0);
    seven_segment_set_decimal_point(1, 1);
    seven_segment_set_decimal_point(0, 0);

    seven_segment_write_digit_vals(digit_indices);
    10b8:	0f 90       	pop	r0
    10ba:	0f 90       	pop	r0
    10bc:	0f 90       	pop	r0
    10be:	0f 90       	pop	r0
    10c0:	df 91       	pop	r29
    10c2:	cf 91       	pop	r28
    10c4:	1f 91       	pop	r17
    10c6:	0f 91       	pop	r16
    10c8:	ff 90       	pop	r15
    10ca:	ef 90       	pop	r14
    10cc:	df 90       	pop	r13
    10ce:	cf 90       	pop	r12
    10d0:	08 95       	ret
    10d2:	87 e7       	ldi	r24, 0x77	; 119
    10d4:	90 e0       	ldi	r25, 0x00	; 0
    10d6:	20 e0       	ldi	r18, 0x00	; 0
    10d8:	3a e0       	ldi	r19, 0x0A	; 10
    10da:	c8 cf       	rjmp	.-112    	; 0x106c <seven_segment_show_humidity+0x82>
    10dc:	8f e3       	ldi	r24, 0x3F	; 63
    10de:	90 e0       	ldi	r25, 0x00	; 0
    10e0:	20 e0       	ldi	r18, 0x00	; 0
    10e2:	30 e0       	ldi	r19, 0x00	; 0
    10e4:	c3 cf       	rjmp	.-122    	; 0x106c <seven_segment_show_humidity+0x82>

000010e6 <dec2bcd>:
// statically allocated structure for time value
struct tm _tm;

uint8_t dec2bcd(uint8_t d)
{
  return ((d/10 * 16) + (d % 10));
    10e6:	9d ec       	ldi	r25, 0xCD	; 205
    10e8:	89 9f       	mul	r24, r25
    10ea:	91 2d       	mov	r25, r1
    10ec:	11 24       	eor	r1, r1
    10ee:	96 95       	lsr	r25
    10f0:	96 95       	lsr	r25
    10f2:	96 95       	lsr	r25
    10f4:	39 2f       	mov	r19, r25
    10f6:	32 95       	swap	r19
    10f8:	30 7f       	andi	r19, 0xF0	; 240
    10fa:	29 2f       	mov	r18, r25
    10fc:	22 0f       	add	r18, r18
    10fe:	22 0f       	add	r18, r18
    1100:	92 0f       	add	r25, r18
    1102:	99 0f       	add	r25, r25
    1104:	89 1b       	sub	r24, r25
}
    1106:	83 0f       	add	r24, r19
    1108:	08 95       	ret

0000110a <bcd2dec>:

uint8_t bcd2dec(uint8_t b)
{
  return ((b/16 * 10) + (b % 16));
    110a:	28 2f       	mov	r18, r24
    110c:	22 95       	swap	r18
    110e:	2f 70       	andi	r18, 0x0F	; 15
    1110:	92 2f       	mov	r25, r18
    1112:	99 0f       	add	r25, r25
    1114:	99 0f       	add	r25, r25
    1116:	92 0f       	add	r25, r18
    1118:	99 0f       	add	r25, r25
    111a:	8f 70       	andi	r24, 0x0F	; 15
}
    111c:	89 0f       	add	r24, r25
    111e:	08 95       	ret

00001120 <rtc_read_byte>:

uint8_t rtc_read_byte(uint8_t offset)
{
    1120:	cf 93       	push	r28
    1122:	c8 2f       	mov	r28, r24
	twi_begin_transmission(RTC_ADDR);
    1124:	88 e6       	ldi	r24, 0x68	; 104
    1126:	0e 94 9e 0e 	call	0x1d3c	; 0x1d3c <twi_begin_transmission>
	twi_send_byte(offset);
    112a:	8c 2f       	mov	r24, r28
    112c:	0e 94 b8 0e 	call	0x1d70	; 0x1d70 <twi_send_byte>
	twi_end_transmission();
    1130:	0e 94 a8 0e 	call	0x1d50	; 0x1d50 <twi_end_transmission>

	twi_request_from(RTC_ADDR, 1);
    1134:	61 e0       	ldi	r22, 0x01	; 1
    1136:	88 e6       	ldi	r24, 0x68	; 104
    1138:	0e 94 91 0e 	call	0x1d22	; 0x1d22 <twi_request_from>
	return twi_receive();
}
    113c:	cf 91       	pop	r28
	twi_begin_transmission(RTC_ADDR);
	twi_send_byte(offset);
	twi_end_transmission();

	twi_request_from(RTC_ADDR, 1);
	return twi_receive();
    113e:	0c 94 17 0f 	jmp	0x1e2e	; 0x1e2e <twi_receive>

00001142 <rtc_write_byte>:
}

void rtc_write_byte(uint8_t b, uint8_t offset)
{
    1142:	cf 93       	push	r28
    1144:	df 93       	push	r29
    1146:	c8 2f       	mov	r28, r24
    1148:	d6 2f       	mov	r29, r22
	twi_begin_transmission(RTC_ADDR);
    114a:	88 e6       	ldi	r24, 0x68	; 104
    114c:	0e 94 9e 0e 	call	0x1d3c	; 0x1d3c <twi_begin_transmission>
	twi_send_byte(offset);
    1150:	8d 2f       	mov	r24, r29
    1152:	0e 94 b8 0e 	call	0x1d70	; 0x1d70 <twi_send_byte>
	twi_send_byte(b);
    1156:	8c 2f       	mov	r24, r28
    1158:	0e 94 b8 0e 	call	0x1d70	; 0x1d70 <twi_send_byte>
	twi_end_transmission();
}
    115c:	df 91       	pop	r29
    115e:	cf 91       	pop	r28
void rtc_write_byte(uint8_t b, uint8_t offset)
{
	twi_begin_transmission(RTC_ADDR);
	twi_send_byte(offset);
	twi_send_byte(b);
	twi_end_transmission();
    1160:	0c 94 a8 0e 	jmp	0x1d50	; 0x1d50 <twi_end_transmission>

00001164 <rtc_init>:

static bool s_is_ds1307 = false;
static bool s_is_ds3231 = false;

void rtc_init(void)
{
    1164:	cf 93       	push	r28
    1166:	df 93       	push	r29
	// 2) Write a value to temperature register
	// 3) Read back the value
	//   equal to the one written: DS1307, write back saved value and return
	//   different from written:   DS3231
	
	uint8_t temp1 = rtc_read_byte(0x11);
    1168:	81 e1       	ldi	r24, 0x11	; 17
    116a:	0e 94 90 08 	call	0x1120	; 0x1120 <rtc_read_byte>
    116e:	d8 2f       	mov	r29, r24
	uint8_t temp2 = rtc_read_byte(0x12);
    1170:	82 e1       	ldi	r24, 0x12	; 18
    1172:	0e 94 90 08 	call	0x1120	; 0x1120 <rtc_read_byte>
    1176:	c8 2f       	mov	r28, r24
	
	rtc_write_byte(0xee, 0x11);
    1178:	61 e1       	ldi	r22, 0x11	; 17
    117a:	8e ee       	ldi	r24, 0xEE	; 238
    117c:	0e 94 a1 08 	call	0x1142	; 0x1142 <rtc_write_byte>
	rtc_write_byte(0xdd, 0x12);
    1180:	62 e1       	ldi	r22, 0x12	; 18
    1182:	8d ed       	ldi	r24, 0xDD	; 221
    1184:	0e 94 a1 08 	call	0x1142	; 0x1142 <rtc_write_byte>

	if (rtc_read_byte(0x11) == 0xee && rtc_read_byte(0x12) == 0xdd) {
    1188:	81 e1       	ldi	r24, 0x11	; 17
    118a:	0e 94 90 08 	call	0x1120	; 0x1120 <rtc_read_byte>
    118e:	8e 3e       	cpi	r24, 0xEE	; 238
    1190:	31 f0       	breq	.+12     	; 0x119e <rtc_init+0x3a>
		// restore values
		rtc_write_byte(temp1, 0x11);
		rtc_write_byte(temp2, 0x12);
	}
	else {
		s_is_ds3231 = true;
    1192:	81 e0       	ldi	r24, 0x01	; 1
    1194:	80 93 12 01 	sts	0x0112, r24	; 0x800112 <__data_end>
	}
}
    1198:	df 91       	pop	r29
    119a:	cf 91       	pop	r28
    119c:	08 95       	ret
	uint8_t temp2 = rtc_read_byte(0x12);
	
	rtc_write_byte(0xee, 0x11);
	rtc_write_byte(0xdd, 0x12);

	if (rtc_read_byte(0x11) == 0xee && rtc_read_byte(0x12) == 0xdd) {
    119e:	82 e1       	ldi	r24, 0x12	; 18
    11a0:	0e 94 90 08 	call	0x1120	; 0x1120 <rtc_read_byte>
    11a4:	8d 3d       	cpi	r24, 0xDD	; 221
    11a6:	a9 f7       	brne	.-22     	; 0x1192 <rtc_init+0x2e>
		s_is_ds1307 = true;
    11a8:	81 e0       	ldi	r24, 0x01	; 1
    11aa:	80 93 13 01 	sts	0x0113, r24	; 0x800113 <s_is_ds1307>
		// restore values
		rtc_write_byte(temp1, 0x11);
    11ae:	61 e1       	ldi	r22, 0x11	; 17
    11b0:	8d 2f       	mov	r24, r29
    11b2:	0e 94 a1 08 	call	0x1142	; 0x1142 <rtc_write_byte>
		rtc_write_byte(temp2, 0x12);
    11b6:	62 e1       	ldi	r22, 0x12	; 18
    11b8:	8c 2f       	mov	r24, r28
	}
	else {
		s_is_ds3231 = true;
	}
}
    11ba:	df 91       	pop	r29
    11bc:	cf 91       	pop	r28

	if (rtc_read_byte(0x11) == 0xee && rtc_read_byte(0x12) == 0xdd) {
		s_is_ds1307 = true;
		// restore values
		rtc_write_byte(temp1, 0x11);
		rtc_write_byte(temp2, 0x12);
    11be:	0c 94 a1 08 	jmp	0x1142	; 0x1142 <rtc_write_byte>

000011c2 <rtc_is_ds1307>:
		s_is_ds3231 = true;
	}
}

// Autodetection
bool rtc_is_ds1307(void) { return s_is_ds1307; }
    11c2:	80 91 13 01 	lds	r24, 0x0113	; 0x800113 <s_is_ds1307>
    11c6:	08 95       	ret

000011c8 <rtc_is_ds3231>:
bool rtc_is_ds3231(void) { return s_is_ds3231; }
    11c8:	80 91 12 01 	lds	r24, 0x0112	; 0x800112 <__data_end>
    11cc:	08 95       	ret

000011ce <rtc_set_ds1307>:

// Autodetection override
void rtc_set_ds1307(void) { s_is_ds1307 = true;   s_is_ds3231 = false; }
    11ce:	81 e0       	ldi	r24, 0x01	; 1
    11d0:	80 93 13 01 	sts	0x0113, r24	; 0x800113 <s_is_ds1307>
    11d4:	10 92 12 01 	sts	0x0112, r1	; 0x800112 <__data_end>
    11d8:	08 95       	ret

000011da <rtc_set_ds3231>:
void rtc_set_ds3231(void) { s_is_ds1307 = false;  s_is_ds3231 = true;  }
    11da:	10 92 13 01 	sts	0x0113, r1	; 0x800113 <s_is_ds1307>
    11de:	81 e0       	ldi	r24, 0x01	; 1
    11e0:	80 93 12 01 	sts	0x0112, r24	; 0x800112 <__data_end>
    11e4:	08 95       	ret

000011e6 <rtc_get_time>:

struct tm* rtc_get_time(void)
{
    11e6:	ef 92       	push	r14
    11e8:	ff 92       	push	r15
    11ea:	0f 93       	push	r16
    11ec:	1f 93       	push	r17
    11ee:	cf 93       	push	r28
    11f0:	df 93       	push	r29
    11f2:	cd b7       	in	r28, 0x3d	; 61
    11f4:	de b7       	in	r29, 0x3e	; 62
    11f6:	29 97       	sbiw	r28, 0x09	; 9
    11f8:	0f b6       	in	r0, 0x3f	; 63
    11fa:	f8 94       	cli
    11fc:	de bf       	out	0x3e, r29	; 62
    11fe:	0f be       	out	0x3f, r0	; 63
    1200:	cd bf       	out	0x3d, r28	; 61
	uint8_t rtc[9];
	uint8_t century = 0;

	// read 7 bytes starting from register 0
	// sec, min, hour, day-of-week, date, month, year
	twi_begin_transmission(RTC_ADDR);
    1202:	88 e6       	ldi	r24, 0x68	; 104
    1204:	0e 94 9e 0e 	call	0x1d3c	; 0x1d3c <twi_begin_transmission>
	twi_send_byte(0x0);
    1208:	80 e0       	ldi	r24, 0x00	; 0
    120a:	0e 94 b8 0e 	call	0x1d70	; 0x1d70 <twi_send_byte>
	twi_end_transmission();
    120e:	0e 94 a8 0e 	call	0x1d50	; 0x1d50 <twi_end_transmission>

	twi_request_from(RTC_ADDR, 7);
    1212:	67 e0       	ldi	r22, 0x07	; 7
    1214:	88 e6       	ldi	r24, 0x68	; 104
    1216:	0e 94 91 0e 	call	0x1d22	; 0x1d22 <twi_request_from>
    121a:	8e 01       	movw	r16, r28
    121c:	0f 5f       	subi	r16, 0xFF	; 255
    121e:	1f 4f       	sbci	r17, 0xFF	; 255
    1220:	7e 01       	movw	r14, r28
    1222:	88 e0       	ldi	r24, 0x08	; 8
    1224:	e8 0e       	add	r14, r24
    1226:	f1 1c       	adc	r15, r1

	for (uint8_t i = 0; i < 7; i++) {
		rtc[i] = twi_receive();
    1228:	0e 94 17 0f 	call	0x1e2e	; 0x1e2e <twi_receive>
    122c:	f8 01       	movw	r30, r16
    122e:	81 93       	st	Z+, r24
    1230:	8f 01       	movw	r16, r30
	twi_send_byte(0x0);
	twi_end_transmission();

	twi_request_from(RTC_ADDR, 7);

	for (uint8_t i = 0; i < 7; i++) {
    1232:	ee 15       	cp	r30, r14
    1234:	ff 05       	cpc	r31, r15
    1236:	c1 f7       	brne	.-16     	; 0x1228 <rtc_get_time+0x42>
		rtc[i] = twi_receive();
	}

	twi_end_transmission();
    1238:	0e 94 a8 0e 	call	0x1d50	; 0x1d50 <twi_end_transmission>

	// Clear clock halt bit from read data
	// This starts the clock for a DS1307, and has no effect for a DS3231
	rtc[0] &= ~(_BV(CH_BIT)); // clear bit
    123c:	99 81       	ldd	r25, Y+1	; 0x01
  return ((d/10 * 16) + (d % 10));
}

uint8_t bcd2dec(uint8_t b)
{
  return ((b/16 * 10) + (b % 16));
    123e:	29 2f       	mov	r18, r25
    1240:	22 95       	swap	r18
    1242:	27 70       	andi	r18, 0x07	; 7
    1244:	82 2f       	mov	r24, r18
    1246:	88 0f       	add	r24, r24
    1248:	88 0f       	add	r24, r24
    124a:	82 0f       	add	r24, r18
    124c:	88 0f       	add	r24, r24
    124e:	9f 70       	andi	r25, 0x0F	; 15
    1250:	89 0f       	add	r24, r25

	// Clear clock halt bit from read data
	// This starts the clock for a DS1307, and has no effect for a DS3231
	rtc[0] &= ~(_BV(CH_BIT)); // clear bit

	_tm.sec = bcd2dec(rtc[0]);
    1252:	90 e0       	ldi	r25, 0x00	; 0
    1254:	90 93 85 02 	sts	0x0285, r25	; 0x800285 <_tm+0x1>
    1258:	80 93 84 02 	sts	0x0284, r24	; 0x800284 <_tm>
	_tm.min = bcd2dec(rtc[1]);
    125c:	9a 81       	ldd	r25, Y+2	; 0x02
  return ((d/10 * 16) + (d % 10));
}

uint8_t bcd2dec(uint8_t b)
{
  return ((b/16 * 10) + (b % 16));
    125e:	29 2f       	mov	r18, r25
    1260:	22 95       	swap	r18
    1262:	2f 70       	andi	r18, 0x0F	; 15
    1264:	82 2f       	mov	r24, r18
    1266:	88 0f       	add	r24, r24
    1268:	88 0f       	add	r24, r24
    126a:	82 0f       	add	r24, r18
    126c:	88 0f       	add	r24, r24
    126e:	9f 70       	andi	r25, 0x0F	; 15
    1270:	89 0f       	add	r24, r25
	// Clear clock halt bit from read data
	// This starts the clock for a DS1307, and has no effect for a DS3231
	rtc[0] &= ~(_BV(CH_BIT)); // clear bit

	_tm.sec = bcd2dec(rtc[0]);
	_tm.min = bcd2dec(rtc[1]);
    1272:	90 e0       	ldi	r25, 0x00	; 0
    1274:	90 93 87 02 	sts	0x0287, r25	; 0x800287 <_tm+0x3>
    1278:	80 93 86 02 	sts	0x0286, r24	; 0x800286 <_tm+0x2>
	_tm.hour = bcd2dec(rtc[2]);
    127c:	8b 81       	ldd	r24, Y+3	; 0x03
  return ((d/10 * 16) + (d % 10));
}

uint8_t bcd2dec(uint8_t b)
{
  return ((b/16 * 10) + (b % 16));
    127e:	98 2f       	mov	r25, r24
    1280:	92 95       	swap	r25
    1282:	9f 70       	andi	r25, 0x0F	; 15
    1284:	49 2f       	mov	r20, r25
    1286:	44 0f       	add	r20, r20
    1288:	44 0f       	add	r20, r20
    128a:	49 0f       	add	r20, r25
    128c:	44 0f       	add	r20, r20
    128e:	8f 70       	andi	r24, 0x0F	; 15
    1290:	48 0f       	add	r20, r24
	// This starts the clock for a DS1307, and has no effect for a DS3231
	rtc[0] &= ~(_BV(CH_BIT)); // clear bit

	_tm.sec = bcd2dec(rtc[0]);
	_tm.min = bcd2dec(rtc[1]);
	_tm.hour = bcd2dec(rtc[2]);
    1292:	24 2f       	mov	r18, r20
    1294:	30 e0       	ldi	r19, 0x00	; 0
    1296:	30 93 89 02 	sts	0x0289, r19	; 0x800289 <_tm+0x5>
    129a:	20 93 88 02 	sts	0x0288, r18	; 0x800288 <_tm+0x4>
	_tm.mday = bcd2dec(rtc[4]);
    129e:	9d 81       	ldd	r25, Y+5	; 0x05
  return ((d/10 * 16) + (d % 10));
}

uint8_t bcd2dec(uint8_t b)
{
  return ((b/16 * 10) + (b % 16));
    12a0:	59 2f       	mov	r21, r25
    12a2:	52 95       	swap	r21
    12a4:	5f 70       	andi	r21, 0x0F	; 15
    12a6:	85 2f       	mov	r24, r21
    12a8:	88 0f       	add	r24, r24
    12aa:	88 0f       	add	r24, r24
    12ac:	85 0f       	add	r24, r21
    12ae:	88 0f       	add	r24, r24
    12b0:	9f 70       	andi	r25, 0x0F	; 15
    12b2:	89 0f       	add	r24, r25
	rtc[0] &= ~(_BV(CH_BIT)); // clear bit

	_tm.sec = bcd2dec(rtc[0]);
	_tm.min = bcd2dec(rtc[1]);
	_tm.hour = bcd2dec(rtc[2]);
	_tm.mday = bcd2dec(rtc[4]);
    12b4:	90 e0       	ldi	r25, 0x00	; 0
    12b6:	90 93 8b 02 	sts	0x028B, r25	; 0x80028b <_tm+0x7>
    12ba:	80 93 8a 02 	sts	0x028A, r24	; 0x80028a <_tm+0x6>
	_tm.mon = bcd2dec(rtc[5] & 0x1F); // returns 1-12
    12be:	5e 81       	ldd	r21, Y+6	; 0x06
  return ((d/10 * 16) + (d % 10));
}

uint8_t bcd2dec(uint8_t b)
{
  return ((b/16 * 10) + (b % 16));
    12c0:	54 fb       	bst	r21, 4
    12c2:	99 27       	eor	r25, r25
    12c4:	90 f9       	bld	r25, 0
    12c6:	89 2f       	mov	r24, r25
    12c8:	88 0f       	add	r24, r24
    12ca:	88 0f       	add	r24, r24
    12cc:	89 0f       	add	r24, r25
    12ce:	88 0f       	add	r24, r24
    12d0:	95 2f       	mov	r25, r21
    12d2:	9f 70       	andi	r25, 0x0F	; 15
    12d4:	89 0f       	add	r24, r25

	_tm.sec = bcd2dec(rtc[0]);
	_tm.min = bcd2dec(rtc[1]);
	_tm.hour = bcd2dec(rtc[2]);
	_tm.mday = bcd2dec(rtc[4]);
	_tm.mon = bcd2dec(rtc[5] & 0x1F); // returns 1-12
    12d6:	90 e0       	ldi	r25, 0x00	; 0
    12d8:	90 93 8d 02 	sts	0x028D, r25	; 0x80028d <_tm+0x9>
    12dc:	80 93 8c 02 	sts	0x028C, r24	; 0x80028c <_tm+0x8>
    12e0:	9f 81       	ldd	r25, Y+7	; 0x07
    12e2:	69 2f       	mov	r22, r25
    12e4:	62 95       	swap	r22
    12e6:	6f 70       	andi	r22, 0x0F	; 15
    12e8:	86 2f       	mov	r24, r22
    12ea:	88 0f       	add	r24, r24
    12ec:	88 0f       	add	r24, r24
    12ee:	86 0f       	add	r24, r22
    12f0:	88 0f       	add	r24, r24
    12f2:	9f 70       	andi	r25, 0x0F	; 15
    12f4:	89 0f       	add	r24, r25
    12f6:	90 e0       	ldi	r25, 0x00	; 0
	century = (rtc[5] & 0x80) >> 7;
	_tm.year = century == 1 ? 2000 + bcd2dec(rtc[6]) : 1900 + bcd2dec(rtc[6]); // year 0-99
    12f8:	57 fd       	sbrc	r21, 7
    12fa:	42 c0       	rjmp	.+132    	; 0x1380 <rtc_get_time+0x19a>
    12fc:	84 59       	subi	r24, 0x94	; 148
    12fe:	98 4f       	sbci	r25, 0xF8	; 248
    1300:	90 93 8f 02 	sts	0x028F, r25	; 0x80028f <_tm+0xb>
    1304:	80 93 8e 02 	sts	0x028E, r24	; 0x80028e <_tm+0xa>
	_tm.wday = bcd2dec(rtc[3]); // returns 1-7
    1308:	9c 81       	ldd	r25, Y+4	; 0x04
  return ((d/10 * 16) + (d % 10));
}

uint8_t bcd2dec(uint8_t b)
{
  return ((b/16 * 10) + (b % 16));
    130a:	59 2f       	mov	r21, r25
    130c:	52 95       	swap	r21
    130e:	5f 70       	andi	r21, 0x0F	; 15
    1310:	85 2f       	mov	r24, r21
    1312:	88 0f       	add	r24, r24
    1314:	88 0f       	add	r24, r24
    1316:	85 0f       	add	r24, r21
    1318:	88 0f       	add	r24, r24
    131a:	9f 70       	andi	r25, 0x0F	; 15
    131c:	89 0f       	add	r24, r25
	_tm.hour = bcd2dec(rtc[2]);
	_tm.mday = bcd2dec(rtc[4]);
	_tm.mon = bcd2dec(rtc[5] & 0x1F); // returns 1-12
	century = (rtc[5] & 0x80) >> 7;
	_tm.year = century == 1 ? 2000 + bcd2dec(rtc[6]) : 1900 + bcd2dec(rtc[6]); // year 0-99
	_tm.wday = bcd2dec(rtc[3]); // returns 1-7
    131e:	90 e0       	ldi	r25, 0x00	; 0
    1320:	90 93 91 02 	sts	0x0291, r25	; 0x800291 <_tm+0xd>
    1324:	80 93 90 02 	sts	0x0290, r24	; 0x800290 <_tm+0xc>

	if (_tm.hour == 0) {
    1328:	44 23       	and	r20, r20
    132a:	11 f1       	breq	.+68     	; 0x1370 <rtc_get_time+0x18a>
		_tm.twelveHour = 0;
		_tm.am = 1;
	} else if (_tm.hour < 12) {
    132c:	2c 30       	cpi	r18, 0x0C	; 12
    132e:	31 05       	cpc	r19, r1
    1330:	bc f0       	brlt	.+46     	; 0x1360 <rtc_get_time+0x17a>
		_tm.twelveHour = _tm.hour;
		_tm.am = 1;
	} else {
		_tm.twelveHour = _tm.hour - 12;
    1332:	2c 50       	subi	r18, 0x0C	; 12
    1334:	31 09       	sbc	r19, r1
    1336:	30 93 94 02 	sts	0x0294, r19	; 0x800294 <_tm+0x10>
    133a:	20 93 93 02 	sts	0x0293, r18	; 0x800293 <_tm+0xf>
		_tm.am = 0;
    133e:	10 92 92 02 	sts	0x0292, r1	; 0x800292 <_tm+0xe>
	}

	return &_tm;
}
    1342:	84 e8       	ldi	r24, 0x84	; 132
    1344:	92 e0       	ldi	r25, 0x02	; 2
    1346:	29 96       	adiw	r28, 0x09	; 9
    1348:	0f b6       	in	r0, 0x3f	; 63
    134a:	f8 94       	cli
    134c:	de bf       	out	0x3e, r29	; 62
    134e:	0f be       	out	0x3f, r0	; 63
    1350:	cd bf       	out	0x3d, r28	; 61
    1352:	df 91       	pop	r29
    1354:	cf 91       	pop	r28
    1356:	1f 91       	pop	r17
    1358:	0f 91       	pop	r16
    135a:	ff 90       	pop	r15
    135c:	ef 90       	pop	r14
    135e:	08 95       	ret

	if (_tm.hour == 0) {
		_tm.twelveHour = 0;
		_tm.am = 1;
	} else if (_tm.hour < 12) {
		_tm.twelveHour = _tm.hour;
    1360:	30 93 94 02 	sts	0x0294, r19	; 0x800294 <_tm+0x10>
    1364:	20 93 93 02 	sts	0x0293, r18	; 0x800293 <_tm+0xf>
		_tm.am = 1;
    1368:	81 e0       	ldi	r24, 0x01	; 1
    136a:	80 93 92 02 	sts	0x0292, r24	; 0x800292 <_tm+0xe>
    136e:	e9 cf       	rjmp	.-46     	; 0x1342 <rtc_get_time+0x15c>
	century = (rtc[5] & 0x80) >> 7;
	_tm.year = century == 1 ? 2000 + bcd2dec(rtc[6]) : 1900 + bcd2dec(rtc[6]); // year 0-99
	_tm.wday = bcd2dec(rtc[3]); // returns 1-7

	if (_tm.hour == 0) {
		_tm.twelveHour = 0;
    1370:	10 92 94 02 	sts	0x0294, r1	; 0x800294 <_tm+0x10>
    1374:	10 92 93 02 	sts	0x0293, r1	; 0x800293 <_tm+0xf>
		_tm.am = 1;
    1378:	81 e0       	ldi	r24, 0x01	; 1
    137a:	80 93 92 02 	sts	0x0292, r24	; 0x800292 <_tm+0xe>
    137e:	e1 cf       	rjmp	.-62     	; 0x1342 <rtc_get_time+0x15c>
	_tm.min = bcd2dec(rtc[1]);
	_tm.hour = bcd2dec(rtc[2]);
	_tm.mday = bcd2dec(rtc[4]);
	_tm.mon = bcd2dec(rtc[5] & 0x1F); // returns 1-12
	century = (rtc[5] & 0x80) >> 7;
	_tm.year = century == 1 ? 2000 + bcd2dec(rtc[6]) : 1900 + bcd2dec(rtc[6]); // year 0-99
    1380:	80 53       	subi	r24, 0x30	; 48
    1382:	98 4f       	sbci	r25, 0xF8	; 248
    1384:	bd cf       	rjmp	.-134    	; 0x1300 <rtc_get_time+0x11a>

00001386 <rtc_get_time_s>:

	return &_tm;
}

void rtc_get_time_s(uint8_t* hour, uint8_t* min, uint8_t* sec)
{
    1386:	8f 92       	push	r8
    1388:	9f 92       	push	r9
    138a:	af 92       	push	r10
    138c:	bf 92       	push	r11
    138e:	cf 92       	push	r12
    1390:	df 92       	push	r13
    1392:	ef 92       	push	r14
    1394:	ff 92       	push	r15
    1396:	0f 93       	push	r16
    1398:	1f 93       	push	r17
    139a:	cf 93       	push	r28
    139c:	df 93       	push	r29
    139e:	cd b7       	in	r28, 0x3d	; 61
    13a0:	de b7       	in	r29, 0x3e	; 62
    13a2:	29 97       	sbiw	r28, 0x09	; 9
    13a4:	0f b6       	in	r0, 0x3f	; 63
    13a6:	f8 94       	cli
    13a8:	de bf       	out	0x3e, r29	; 62
    13aa:	0f be       	out	0x3f, r0	; 63
    13ac:	cd bf       	out	0x3d, r28	; 61
    13ae:	6c 01       	movw	r12, r24
    13b0:	5b 01       	movw	r10, r22
    13b2:	4a 01       	movw	r8, r20
	uint8_t rtc[9];

	// read 7 bytes starting from register 0
	// sec, min, hour, day-of-week, date, month, year
	twi_begin_transmission(RTC_ADDR);
    13b4:	88 e6       	ldi	r24, 0x68	; 104
    13b6:	0e 94 9e 0e 	call	0x1d3c	; 0x1d3c <twi_begin_transmission>
	twi_send_byte(0x0);
    13ba:	80 e0       	ldi	r24, 0x00	; 0
    13bc:	0e 94 b8 0e 	call	0x1d70	; 0x1d70 <twi_send_byte>
	twi_end_transmission();
    13c0:	0e 94 a8 0e 	call	0x1d50	; 0x1d50 <twi_end_transmission>
	
	twi_request_from(RTC_ADDR, 7);
    13c4:	67 e0       	ldi	r22, 0x07	; 7
    13c6:	88 e6       	ldi	r24, 0x68	; 104
    13c8:	0e 94 91 0e 	call	0x1d22	; 0x1d22 <twi_request_from>
    13cc:	8e 01       	movw	r16, r28
    13ce:	0f 5f       	subi	r16, 0xFF	; 255
    13d0:	1f 4f       	sbci	r17, 0xFF	; 255
    13d2:	7e 01       	movw	r14, r28
    13d4:	88 e0       	ldi	r24, 0x08	; 8
    13d6:	e8 0e       	add	r14, r24
    13d8:	f1 1c       	adc	r15, r1
	
	for(uint8_t i=0; i<7; i++) {
		rtc[i] = twi_receive();
    13da:	0e 94 17 0f 	call	0x1e2e	; 0x1e2e <twi_receive>
    13de:	f8 01       	movw	r30, r16
    13e0:	81 93       	st	Z+, r24
    13e2:	8f 01       	movw	r16, r30
	twi_send_byte(0x0);
	twi_end_transmission();
	
	twi_request_from(RTC_ADDR, 7);
	
	for(uint8_t i=0; i<7; i++) {
    13e4:	ee 15       	cp	r30, r14
    13e6:	ff 05       	cpc	r31, r15
    13e8:	c1 f7       	brne	.-16     	; 0x13da <rtc_get_time_s+0x54>
		rtc[i] = twi_receive();
	}
	
	twi_end_transmission();
    13ea:	0e 94 a8 0e 	call	0x1d50	; 0x1d50 <twi_end_transmission>
	
	if (sec)  *sec =  bcd2dec(rtc[0]);
    13ee:	81 14       	cp	r8, r1
    13f0:	91 04       	cpc	r9, r1
    13f2:	69 f0       	breq	.+26     	; 0x140e <rtc_get_time_s+0x88>
    13f4:	99 81       	ldd	r25, Y+1	; 0x01
  return ((d/10 * 16) + (d % 10));
}

uint8_t bcd2dec(uint8_t b)
{
  return ((b/16 * 10) + (b % 16));
    13f6:	29 2f       	mov	r18, r25
    13f8:	22 95       	swap	r18
    13fa:	2f 70       	andi	r18, 0x0F	; 15
    13fc:	82 2f       	mov	r24, r18
    13fe:	88 0f       	add	r24, r24
    1400:	88 0f       	add	r24, r24
    1402:	82 0f       	add	r24, r18
    1404:	88 0f       	add	r24, r24
    1406:	9f 70       	andi	r25, 0x0F	; 15
    1408:	89 0f       	add	r24, r25
		rtc[i] = twi_receive();
	}
	
	twi_end_transmission();
	
	if (sec)  *sec =  bcd2dec(rtc[0]);
    140a:	f4 01       	movw	r30, r8
    140c:	80 83       	st	Z, r24
	if (min)  *min =  bcd2dec(rtc[1]);
    140e:	a1 14       	cp	r10, r1
    1410:	b1 04       	cpc	r11, r1
    1412:	69 f0       	breq	.+26     	; 0x142e <rtc_get_time_s+0xa8>
    1414:	9a 81       	ldd	r25, Y+2	; 0x02
  return ((d/10 * 16) + (d % 10));
}

uint8_t bcd2dec(uint8_t b)
{
  return ((b/16 * 10) + (b % 16));
    1416:	29 2f       	mov	r18, r25
    1418:	22 95       	swap	r18
    141a:	2f 70       	andi	r18, 0x0F	; 15
    141c:	82 2f       	mov	r24, r18
    141e:	88 0f       	add	r24, r24
    1420:	88 0f       	add	r24, r24
    1422:	82 0f       	add	r24, r18
    1424:	88 0f       	add	r24, r24
    1426:	9f 70       	andi	r25, 0x0F	; 15
    1428:	89 0f       	add	r24, r25
	}
	
	twi_end_transmission();
	
	if (sec)  *sec =  bcd2dec(rtc[0]);
	if (min)  *min =  bcd2dec(rtc[1]);
    142a:	f5 01       	movw	r30, r10
    142c:	80 83       	st	Z, r24
	if (hour) *hour = bcd2dec(rtc[2]);
    142e:	c1 14       	cp	r12, r1
    1430:	d1 04       	cpc	r13, r1
    1432:	69 f0       	breq	.+26     	; 0x144e <rtc_get_time_s+0xc8>
    1434:	9b 81       	ldd	r25, Y+3	; 0x03
  return ((d/10 * 16) + (d % 10));
}

uint8_t bcd2dec(uint8_t b)
{
  return ((b/16 * 10) + (b % 16));
    1436:	29 2f       	mov	r18, r25
    1438:	22 95       	swap	r18
    143a:	2f 70       	andi	r18, 0x0F	; 15
    143c:	82 2f       	mov	r24, r18
    143e:	88 0f       	add	r24, r24
    1440:	88 0f       	add	r24, r24
    1442:	82 0f       	add	r24, r18
    1444:	88 0f       	add	r24, r24
    1446:	9f 70       	andi	r25, 0x0F	; 15
    1448:	89 0f       	add	r24, r25
	
	twi_end_transmission();
	
	if (sec)  *sec =  bcd2dec(rtc[0]);
	if (min)  *min =  bcd2dec(rtc[1]);
	if (hour) *hour = bcd2dec(rtc[2]);
    144a:	f6 01       	movw	r30, r12
    144c:	80 83       	st	Z, r24
}
    144e:	29 96       	adiw	r28, 0x09	; 9
    1450:	0f b6       	in	r0, 0x3f	; 63
    1452:	f8 94       	cli
    1454:	de bf       	out	0x3e, r29	; 62
    1456:	0f be       	out	0x3f, r0	; 63
    1458:	cd bf       	out	0x3d, r28	; 61
    145a:	df 91       	pop	r29
    145c:	cf 91       	pop	r28
    145e:	1f 91       	pop	r17
    1460:	0f 91       	pop	r16
    1462:	ff 90       	pop	r15
    1464:	ef 90       	pop	r14
    1466:	df 90       	pop	r13
    1468:	cf 90       	pop	r12
    146a:	bf 90       	pop	r11
    146c:	af 90       	pop	r10
    146e:	9f 90       	pop	r9
    1470:	8f 90       	pop	r8
    1472:	08 95       	ret

00001474 <rtc_set_time>:

// fixme: support 12-hour mode for setting time
void rtc_set_time(struct tm* tm_)
{
    1474:	0f 93       	push	r16
    1476:	1f 93       	push	r17
    1478:	cf 93       	push	r28
    147a:	df 93       	push	r29
    147c:	8c 01       	movw	r16, r24
	twi_begin_transmission(RTC_ADDR);
    147e:	88 e6       	ldi	r24, 0x68	; 104
    1480:	0e 94 9e 0e 	call	0x1d3c	; 0x1d3c <twi_begin_transmission>
	twi_send_byte(0x0);
    1484:	80 e0       	ldi	r24, 0x00	; 0
    1486:	0e 94 b8 0e 	call	0x1d70	; 0x1d70 <twi_send_byte>

	uint8_t century;
	if (tm_->year > 2000) {
    148a:	f8 01       	movw	r30, r16
    148c:	82 85       	ldd	r24, Z+10	; 0x0a
    148e:	93 85       	ldd	r25, Z+11	; 0x0b
    1490:	81 3d       	cpi	r24, 0xD1	; 209
    1492:	f7 e0       	ldi	r31, 0x07	; 7
    1494:	9f 07       	cpc	r25, r31
    1496:	0c f0       	brlt	.+2      	; 0x149a <rtc_set_time+0x26>
    1498:	a0 c0       	rjmp	.+320    	; 0x15da <rtc_set_time+0x166>
		century = 0x80;
		tm_->year = tm_->year - 2000;
	} else {
		century = 0;
		tm_->year = tm_->year - 1900;
    149a:	8c 56       	subi	r24, 0x6C	; 108
    149c:	97 40       	sbci	r25, 0x07	; 7
    149e:	f8 01       	movw	r30, r16
    14a0:	93 87       	std	Z+11, r25	; 0x0b
    14a2:	82 87       	std	Z+10, r24	; 0x0a
	uint8_t century;
	if (tm_->year > 2000) {
		century = 0x80;
		tm_->year = tm_->year - 2000;
	} else {
		century = 0;
    14a4:	d0 e0       	ldi	r29, 0x00	; 0
		tm_->year = tm_->year - 1900;
	}

	// clock halt bit is 7th bit of seconds: this is always cleared to start the clock
	twi_send_byte(dec2bcd(tm_->sec)); // seconds
    14a6:	f8 01       	movw	r30, r16
    14a8:	30 81       	ld	r19, Z
// statically allocated structure for time value
struct tm _tm;

uint8_t dec2bcd(uint8_t d)
{
  return ((d/10 * 16) + (d % 10));
    14aa:	cd ec       	ldi	r28, 0xCD	; 205
    14ac:	3c 9f       	mul	r19, r28
    14ae:	91 2d       	mov	r25, r1
    14b0:	11 24       	eor	r1, r1
    14b2:	29 2f       	mov	r18, r25
    14b4:	26 95       	lsr	r18
    14b6:	26 95       	lsr	r18
    14b8:	26 95       	lsr	r18
    14ba:	82 2f       	mov	r24, r18
    14bc:	82 95       	swap	r24
    14be:	80 7f       	andi	r24, 0xF0	; 240
    14c0:	92 2f       	mov	r25, r18
    14c2:	99 0f       	add	r25, r25
    14c4:	99 0f       	add	r25, r25
    14c6:	92 0f       	add	r25, r18
    14c8:	99 0f       	add	r25, r25
    14ca:	39 1b       	sub	r19, r25
		century = 0;
		tm_->year = tm_->year - 1900;
	}

	// clock halt bit is 7th bit of seconds: this is always cleared to start the clock
	twi_send_byte(dec2bcd(tm_->sec)); // seconds
    14cc:	83 0f       	add	r24, r19
    14ce:	0e 94 b8 0e 	call	0x1d70	; 0x1d70 <twi_send_byte>
	twi_send_byte(dec2bcd(tm_->min)); // minutes
    14d2:	f8 01       	movw	r30, r16
    14d4:	32 81       	ldd	r19, Z+2	; 0x02
// statically allocated structure for time value
struct tm _tm;

uint8_t dec2bcd(uint8_t d)
{
  return ((d/10 * 16) + (d % 10));
    14d6:	3c 9f       	mul	r19, r28
    14d8:	91 2d       	mov	r25, r1
    14da:	11 24       	eor	r1, r1
    14dc:	29 2f       	mov	r18, r25
    14de:	26 95       	lsr	r18
    14e0:	26 95       	lsr	r18
    14e2:	26 95       	lsr	r18
    14e4:	82 2f       	mov	r24, r18
    14e6:	82 95       	swap	r24
    14e8:	80 7f       	andi	r24, 0xF0	; 240
    14ea:	92 2f       	mov	r25, r18
    14ec:	99 0f       	add	r25, r25
    14ee:	99 0f       	add	r25, r25
    14f0:	92 0f       	add	r25, r18
    14f2:	99 0f       	add	r25, r25
    14f4:	39 1b       	sub	r19, r25
		tm_->year = tm_->year - 1900;
	}

	// clock halt bit is 7th bit of seconds: this is always cleared to start the clock
	twi_send_byte(dec2bcd(tm_->sec)); // seconds
	twi_send_byte(dec2bcd(tm_->min)); // minutes
    14f6:	83 0f       	add	r24, r19
    14f8:	0e 94 b8 0e 	call	0x1d70	; 0x1d70 <twi_send_byte>
	twi_send_byte(dec2bcd(tm_->hour)); // hours
    14fc:	f8 01       	movw	r30, r16
    14fe:	34 81       	ldd	r19, Z+4	; 0x04
// statically allocated structure for time value
struct tm _tm;

uint8_t dec2bcd(uint8_t d)
{
  return ((d/10 * 16) + (d % 10));
    1500:	3c 9f       	mul	r19, r28
    1502:	91 2d       	mov	r25, r1
    1504:	11 24       	eor	r1, r1
    1506:	29 2f       	mov	r18, r25
    1508:	26 95       	lsr	r18
    150a:	26 95       	lsr	r18
    150c:	26 95       	lsr	r18
    150e:	82 2f       	mov	r24, r18
    1510:	82 95       	swap	r24
    1512:	80 7f       	andi	r24, 0xF0	; 240
    1514:	92 2f       	mov	r25, r18
    1516:	99 0f       	add	r25, r25
    1518:	99 0f       	add	r25, r25
    151a:	92 0f       	add	r25, r18
    151c:	99 0f       	add	r25, r25
    151e:	39 1b       	sub	r19, r25
	}

	// clock halt bit is 7th bit of seconds: this is always cleared to start the clock
	twi_send_byte(dec2bcd(tm_->sec)); // seconds
	twi_send_byte(dec2bcd(tm_->min)); // minutes
	twi_send_byte(dec2bcd(tm_->hour)); // hours
    1520:	83 0f       	add	r24, r19
    1522:	0e 94 b8 0e 	call	0x1d70	; 0x1d70 <twi_send_byte>
	twi_send_byte(dec2bcd(tm_->wday)); // day of week
    1526:	f8 01       	movw	r30, r16
    1528:	34 85       	ldd	r19, Z+12	; 0x0c
// statically allocated structure for time value
struct tm _tm;

uint8_t dec2bcd(uint8_t d)
{
  return ((d/10 * 16) + (d % 10));
    152a:	3c 9f       	mul	r19, r28
    152c:	91 2d       	mov	r25, r1
    152e:	11 24       	eor	r1, r1
    1530:	29 2f       	mov	r18, r25
    1532:	26 95       	lsr	r18
    1534:	26 95       	lsr	r18
    1536:	26 95       	lsr	r18
    1538:	82 2f       	mov	r24, r18
    153a:	82 95       	swap	r24
    153c:	80 7f       	andi	r24, 0xF0	; 240
    153e:	92 2f       	mov	r25, r18
    1540:	99 0f       	add	r25, r25
    1542:	99 0f       	add	r25, r25
    1544:	92 0f       	add	r25, r18
    1546:	99 0f       	add	r25, r25
    1548:	39 1b       	sub	r19, r25

	// clock halt bit is 7th bit of seconds: this is always cleared to start the clock
	twi_send_byte(dec2bcd(tm_->sec)); // seconds
	twi_send_byte(dec2bcd(tm_->min)); // minutes
	twi_send_byte(dec2bcd(tm_->hour)); // hours
	twi_send_byte(dec2bcd(tm_->wday)); // day of week
    154a:	83 0f       	add	r24, r19
    154c:	0e 94 b8 0e 	call	0x1d70	; 0x1d70 <twi_send_byte>
	twi_send_byte(dec2bcd(tm_->mday)); // day
    1550:	f8 01       	movw	r30, r16
    1552:	36 81       	ldd	r19, Z+6	; 0x06
// statically allocated structure for time value
struct tm _tm;

uint8_t dec2bcd(uint8_t d)
{
  return ((d/10 * 16) + (d % 10));
    1554:	3c 9f       	mul	r19, r28
    1556:	91 2d       	mov	r25, r1
    1558:	11 24       	eor	r1, r1
    155a:	29 2f       	mov	r18, r25
    155c:	26 95       	lsr	r18
    155e:	26 95       	lsr	r18
    1560:	26 95       	lsr	r18
    1562:	82 2f       	mov	r24, r18
    1564:	82 95       	swap	r24
    1566:	80 7f       	andi	r24, 0xF0	; 240
    1568:	92 2f       	mov	r25, r18
    156a:	99 0f       	add	r25, r25
    156c:	99 0f       	add	r25, r25
    156e:	92 0f       	add	r25, r18
    1570:	99 0f       	add	r25, r25
    1572:	39 1b       	sub	r19, r25
	// clock halt bit is 7th bit of seconds: this is always cleared to start the clock
	twi_send_byte(dec2bcd(tm_->sec)); // seconds
	twi_send_byte(dec2bcd(tm_->min)); // minutes
	twi_send_byte(dec2bcd(tm_->hour)); // hours
	twi_send_byte(dec2bcd(tm_->wday)); // day of week
	twi_send_byte(dec2bcd(tm_->mday)); // day
    1574:	83 0f       	add	r24, r19
    1576:	0e 94 b8 0e 	call	0x1d70	; 0x1d70 <twi_send_byte>
	twi_send_byte(dec2bcd(tm_->mon) + century); // month
    157a:	f8 01       	movw	r30, r16
    157c:	30 85       	ldd	r19, Z+8	; 0x08
// statically allocated structure for time value
struct tm _tm;

uint8_t dec2bcd(uint8_t d)
{
  return ((d/10 * 16) + (d % 10));
    157e:	3c 9f       	mul	r19, r28
    1580:	91 2d       	mov	r25, r1
    1582:	11 24       	eor	r1, r1
    1584:	29 2f       	mov	r18, r25
    1586:	26 95       	lsr	r18
    1588:	26 95       	lsr	r18
    158a:	26 95       	lsr	r18
    158c:	82 2f       	mov	r24, r18
    158e:	82 95       	swap	r24
    1590:	80 7f       	andi	r24, 0xF0	; 240
    1592:	92 2f       	mov	r25, r18
    1594:	99 0f       	add	r25, r25
    1596:	99 0f       	add	r25, r25
    1598:	92 0f       	add	r25, r18
    159a:	99 0f       	add	r25, r25
    159c:	39 1b       	sub	r19, r25
    159e:	83 0f       	add	r24, r19
	twi_send_byte(dec2bcd(tm_->sec)); // seconds
	twi_send_byte(dec2bcd(tm_->min)); // minutes
	twi_send_byte(dec2bcd(tm_->hour)); // hours
	twi_send_byte(dec2bcd(tm_->wday)); // day of week
	twi_send_byte(dec2bcd(tm_->mday)); // day
	twi_send_byte(dec2bcd(tm_->mon) + century); // month
    15a0:	8d 0f       	add	r24, r29
    15a2:	0e 94 b8 0e 	call	0x1d70	; 0x1d70 <twi_send_byte>
	twi_send_byte(dec2bcd(tm_->year)); // year
    15a6:	f8 01       	movw	r30, r16
    15a8:	22 85       	ldd	r18, Z+10	; 0x0a
// statically allocated structure for time value
struct tm _tm;

uint8_t dec2bcd(uint8_t d)
{
  return ((d/10 * 16) + (d % 10));
    15aa:	2c 9f       	mul	r18, r28
    15ac:	c1 2d       	mov	r28, r1
    15ae:	11 24       	eor	r1, r1
    15b0:	c6 95       	lsr	r28
    15b2:	c6 95       	lsr	r28
    15b4:	c6 95       	lsr	r28
    15b6:	8c 2f       	mov	r24, r28
    15b8:	82 95       	swap	r24
    15ba:	80 7f       	andi	r24, 0xF0	; 240
    15bc:	9c 2f       	mov	r25, r28
    15be:	99 0f       	add	r25, r25
    15c0:	99 0f       	add	r25, r25
    15c2:	c9 0f       	add	r28, r25
    15c4:	cc 0f       	add	r28, r28
    15c6:	2c 1b       	sub	r18, r28
	twi_send_byte(dec2bcd(tm_->min)); // minutes
	twi_send_byte(dec2bcd(tm_->hour)); // hours
	twi_send_byte(dec2bcd(tm_->wday)); // day of week
	twi_send_byte(dec2bcd(tm_->mday)); // day
	twi_send_byte(dec2bcd(tm_->mon) + century); // month
	twi_send_byte(dec2bcd(tm_->year)); // year
    15c8:	82 0f       	add	r24, r18
    15ca:	0e 94 b8 0e 	call	0x1d70	; 0x1d70 <twi_send_byte>

	twi_end_transmission();
}
    15ce:	df 91       	pop	r29
    15d0:	cf 91       	pop	r28
    15d2:	1f 91       	pop	r17
    15d4:	0f 91       	pop	r16
	twi_send_byte(dec2bcd(tm_->wday)); // day of week
	twi_send_byte(dec2bcd(tm_->mday)); // day
	twi_send_byte(dec2bcd(tm_->mon) + century); // month
	twi_send_byte(dec2bcd(tm_->year)); // year

	twi_end_transmission();
    15d6:	0c 94 a8 0e 	jmp	0x1d50	; 0x1d50 <twi_end_transmission>
	twi_send_byte(0x0);

	uint8_t century;
	if (tm_->year > 2000) {
		century = 0x80;
		tm_->year = tm_->year - 2000;
    15da:	80 5d       	subi	r24, 0xD0	; 208
    15dc:	97 40       	sbci	r25, 0x07	; 7
    15de:	f8 01       	movw	r30, r16
    15e0:	93 87       	std	Z+11, r25	; 0x0b
    15e2:	82 87       	std	Z+10, r24	; 0x0a
	twi_begin_transmission(RTC_ADDR);
	twi_send_byte(0x0);

	uint8_t century;
	if (tm_->year > 2000) {
		century = 0x80;
    15e4:	d0 e8       	ldi	r29, 0x80	; 128
    15e6:	5f cf       	rjmp	.-322    	; 0x14a6 <rtc_set_time+0x32>

000015e8 <rtc_set_time_s>:

	twi_end_transmission();
}

void rtc_set_time_s(uint8_t hour, uint8_t min, uint8_t sec)
{
    15e8:	0f 93       	push	r16
    15ea:	1f 93       	push	r17
    15ec:	cf 93       	push	r28
    15ee:	df 93       	push	r29
    15f0:	d8 2f       	mov	r29, r24
    15f2:	16 2f       	mov	r17, r22
    15f4:	04 2f       	mov	r16, r20
	twi_begin_transmission(RTC_ADDR);
    15f6:	88 e6       	ldi	r24, 0x68	; 104
    15f8:	0e 94 9e 0e 	call	0x1d3c	; 0x1d3c <twi_begin_transmission>
	twi_send_byte(0x0);
    15fc:	80 e0       	ldi	r24, 0x00	; 0
    15fe:	0e 94 b8 0e 	call	0x1d70	; 0x1d70 <twi_send_byte>
// statically allocated structure for time value
struct tm _tm;

uint8_t dec2bcd(uint8_t d)
{
  return ((d/10 * 16) + (d % 10));
    1602:	cd ec       	ldi	r28, 0xCD	; 205
    1604:	0c 9f       	mul	r16, r28
    1606:	91 2d       	mov	r25, r1
    1608:	11 24       	eor	r1, r1
    160a:	29 2f       	mov	r18, r25
    160c:	26 95       	lsr	r18
    160e:	26 95       	lsr	r18
    1610:	26 95       	lsr	r18
    1612:	82 2f       	mov	r24, r18
    1614:	82 95       	swap	r24
    1616:	80 7f       	andi	r24, 0xF0	; 240
    1618:	92 2f       	mov	r25, r18
    161a:	99 0f       	add	r25, r25
    161c:	99 0f       	add	r25, r25
    161e:	92 0f       	add	r25, r18
    1620:	99 0f       	add	r25, r25
    1622:	09 1b       	sub	r16, r25
{
	twi_begin_transmission(RTC_ADDR);
	twi_send_byte(0x0);

	// clock halt bit is 7th bit of seconds: this is always cleared to start the clock
	twi_send_byte(dec2bcd(sec)); // seconds
    1624:	80 0f       	add	r24, r16
    1626:	0e 94 b8 0e 	call	0x1d70	; 0x1d70 <twi_send_byte>
// statically allocated structure for time value
struct tm _tm;

uint8_t dec2bcd(uint8_t d)
{
  return ((d/10 * 16) + (d % 10));
    162a:	1c 9f       	mul	r17, r28
    162c:	91 2d       	mov	r25, r1
    162e:	11 24       	eor	r1, r1
    1630:	29 2f       	mov	r18, r25
    1632:	26 95       	lsr	r18
    1634:	26 95       	lsr	r18
    1636:	26 95       	lsr	r18
    1638:	82 2f       	mov	r24, r18
    163a:	82 95       	swap	r24
    163c:	80 7f       	andi	r24, 0xF0	; 240
    163e:	92 2f       	mov	r25, r18
    1640:	99 0f       	add	r25, r25
    1642:	99 0f       	add	r25, r25
    1644:	92 0f       	add	r25, r18
    1646:	99 0f       	add	r25, r25
    1648:	19 1b       	sub	r17, r25
	twi_begin_transmission(RTC_ADDR);
	twi_send_byte(0x0);

	// clock halt bit is 7th bit of seconds: this is always cleared to start the clock
	twi_send_byte(dec2bcd(sec)); // seconds
	twi_send_byte(dec2bcd(min)); // minutes
    164a:	81 0f       	add	r24, r17
    164c:	0e 94 b8 0e 	call	0x1d70	; 0x1d70 <twi_send_byte>
// statically allocated structure for time value
struct tm _tm;

uint8_t dec2bcd(uint8_t d)
{
  return ((d/10 * 16) + (d % 10));
    1650:	dc 9f       	mul	r29, r28
    1652:	c1 2d       	mov	r28, r1
    1654:	11 24       	eor	r1, r1
    1656:	c6 95       	lsr	r28
    1658:	c6 95       	lsr	r28
    165a:	c6 95       	lsr	r28
    165c:	8c 2f       	mov	r24, r28
    165e:	82 95       	swap	r24
    1660:	80 7f       	andi	r24, 0xF0	; 240
    1662:	9c 2f       	mov	r25, r28
    1664:	99 0f       	add	r25, r25
    1666:	99 0f       	add	r25, r25
    1668:	c9 0f       	add	r28, r25
    166a:	cc 0f       	add	r28, r28
    166c:	dc 1b       	sub	r29, r28
	twi_send_byte(0x0);

	// clock halt bit is 7th bit of seconds: this is always cleared to start the clock
	twi_send_byte(dec2bcd(sec)); // seconds
	twi_send_byte(dec2bcd(min)); // minutes
	twi_send_byte(dec2bcd(hour)); // hours
    166e:	8d 0f       	add	r24, r29
    1670:	0e 94 b8 0e 	call	0x1d70	; 0x1d70 <twi_send_byte>
	
	twi_end_transmission();
}
    1674:	df 91       	pop	r29
    1676:	cf 91       	pop	r28
    1678:	1f 91       	pop	r17
    167a:	0f 91       	pop	r16
	// clock halt bit is 7th bit of seconds: this is always cleared to start the clock
	twi_send_byte(dec2bcd(sec)); // seconds
	twi_send_byte(dec2bcd(min)); // minutes
	twi_send_byte(dec2bcd(hour)); // hours
	
	twi_end_transmission();
    167c:	0c 94 a8 0e 	jmp	0x1d50	; 0x1d50 <twi_end_transmission>

00001680 <rtc_run_clock>:
// halt/start the clock
// 7th bit of register 0 (second register)
// 0 = clock is running
// 1 = clock is not running
void rtc_run_clock(bool run)
{
    1680:	cf 93       	push	r28
  if (s_is_ds3231) return;
    1682:	90 91 12 01 	lds	r25, 0x0112	; 0x800112 <__data_end>
    1686:	99 23       	and	r25, r25
    1688:	11 f0       	breq	.+4      	; 0x168e <rtc_run_clock+0xe>
    b &= ~(_BV(CH_BIT)); // clear bit
  else
    b |= _BV(CH_BIT); // set bit
    
    rtc_write_byte(b, 0x0);
}
    168a:	cf 91       	pop	r28
    168c:	08 95       	ret
    168e:	c8 2f       	mov	r28, r24
// 1 = clock is not running
void rtc_run_clock(bool run)
{
  if (s_is_ds3231) return;
  
  uint8_t b = rtc_read_byte(0x0);
    1690:	80 e0       	ldi	r24, 0x00	; 0
    1692:	0e 94 90 08 	call	0x1120	; 0x1120 <rtc_read_byte>

  if (run)
    1696:	c1 11       	cpse	r28, r1
    1698:	05 c0       	rjmp	.+10     	; 0x16a4 <rtc_run_clock+0x24>
    b &= ~(_BV(CH_BIT)); // clear bit
  else
    b |= _BV(CH_BIT); // set bit
    169a:	80 68       	ori	r24, 0x80	; 128
    
    rtc_write_byte(b, 0x0);
    169c:	60 e0       	ldi	r22, 0x00	; 0
}
    169e:	cf 91       	pop	r28
  if (run)
    b &= ~(_BV(CH_BIT)); // clear bit
  else
    b |= _BV(CH_BIT); // set bit
    
    rtc_write_byte(b, 0x0);
    16a0:	0c 94 a1 08 	jmp	0x1142	; 0x1142 <rtc_write_byte>
  if (s_is_ds3231) return;
  
  uint8_t b = rtc_read_byte(0x0);

  if (run)
    b &= ~(_BV(CH_BIT)); // clear bit
    16a4:	8f 77       	andi	r24, 0x7F	; 127
  else
    b |= _BV(CH_BIT); // set bit
    
    rtc_write_byte(b, 0x0);
    16a6:	60 e0       	ldi	r22, 0x00	; 0
}
    16a8:	cf 91       	pop	r28
  if (run)
    b &= ~(_BV(CH_BIT)); // clear bit
  else
    b |= _BV(CH_BIT); // set bit
    
    rtc_write_byte(b, 0x0);
    16aa:	0c 94 a1 08 	jmp	0x1142	; 0x1142 <rtc_write_byte>

000016ae <rtc_is_clock_running>:
// DS1307 only
// Returns true if the clock is running, false otherwise
// For DS3231, it always returns true
bool rtc_is_clock_running(void)
{
  if (s_is_ds3231) return true;
    16ae:	80 91 12 01 	lds	r24, 0x0112	; 0x800112 <__data_end>
    16b2:	81 11       	cpse	r24, r1
  
  uint8_t b = rtc_read_byte(0x0);

  if (b & _BV(CH_BIT)) return false;
  return true;
}
    16b4:	08 95       	ret
// For DS3231, it always returns true
bool rtc_is_clock_running(void)
{
  if (s_is_ds3231) return true;
  
  uint8_t b = rtc_read_byte(0x0);
    16b6:	0e 94 90 08 	call	0x1120	; 0x1120 <rtc_read_byte>

  if (b & _BV(CH_BIT)) return false;
    16ba:	80 95       	com	r24
    16bc:	88 1f       	adc	r24, r24
    16be:	88 27       	eor	r24, r24
    16c0:	88 1f       	adc	r24, r24
  return true;
}
    16c2:	08 95       	ret

000016c4 <ds3231_get_temp_int>:

void ds3231_get_temp_int(int8_t* i, uint8_t* f)
{
    16c4:	ff 92       	push	r15
    16c6:	0f 93       	push	r16
    16c8:	1f 93       	push	r17
    16ca:	cf 93       	push	r28
    16cc:	df 93       	push	r29
	uint8_t msb, lsb;
	
	*i = 0;
    16ce:	fc 01       	movw	r30, r24
    16d0:	10 82       	st	Z, r1
	*f = 0;
    16d2:	fb 01       	movw	r30, r22
    16d4:	10 82       	st	Z, r1
	
	if (s_is_ds1307) return; // only valid on DS3231
    16d6:	20 91 13 01 	lds	r18, 0x0113	; 0x800113 <s_is_ds1307>
    16da:	22 23       	and	r18, r18
    16dc:	31 f0       	breq	.+12     	; 0x16ea <ds3231_get_temp_int+0x26>
		*f = (lsb >> 6) * 25;

		// float value can be read like so:
		// float temp = ((((short)msb << 8) | (short)lsb) >> 6) / 4.0f;
	}
}
    16de:	df 91       	pop	r29
    16e0:	cf 91       	pop	r28
    16e2:	1f 91       	pop	r17
    16e4:	0f 91       	pop	r16
    16e6:	ff 90       	pop	r15
    16e8:	08 95       	ret
    16ea:	eb 01       	movw	r28, r22
    16ec:	8c 01       	movw	r16, r24
	*i = 0;
	*f = 0;
	
	if (s_is_ds1307) return; // only valid on DS3231

	twi_begin_transmission(RTC_ADDR);
    16ee:	88 e6       	ldi	r24, 0x68	; 104
    16f0:	0e 94 9e 0e 	call	0x1d3c	; 0x1d3c <twi_begin_transmission>
	// temp registers 0x11 and 0x12
	twi_send_byte(0x11);
    16f4:	81 e1       	ldi	r24, 0x11	; 17
    16f6:	0e 94 b8 0e 	call	0x1d70	; 0x1d70 <twi_send_byte>
	twi_end_transmission();
    16fa:	0e 94 a8 0e 	call	0x1d50	; 0x1d50 <twi_end_transmission>

	twi_request_from(RTC_ADDR, 2);
    16fe:	62 e0       	ldi	r22, 0x02	; 2
    1700:	88 e6       	ldi	r24, 0x68	; 104
    1702:	0e 94 91 0e 	call	0x1d22	; 0x1d22 <twi_request_from>

	if (twi_available()) {
    1706:	0e 94 11 0f 	call	0x1e22	; 0x1e22 <twi_available>
    170a:	88 23       	and	r24, r24
    170c:	41 f3       	breq	.-48     	; 0x16de <ds3231_get_temp_int+0x1a>
		msb = twi_receive(); // integer part (in twos complement)
    170e:	0e 94 17 0f 	call	0x1e2e	; 0x1e2e <twi_receive>
    1712:	f8 2e       	mov	r15, r24
		lsb = twi_receive(); // fraction part
    1714:	0e 94 17 0f 	call	0x1e2e	; 0x1e2e <twi_receive>
    	
		// integer part in entire byte
		*i = msb;
    1718:	f8 01       	movw	r30, r16
    171a:	f0 82       	st	Z, r15
		// fractional part in top two bits (increments of 0.25)
		*f = (lsb >> 6) * 25;
    171c:	82 95       	swap	r24
    171e:	86 95       	lsr	r24
    1720:	86 95       	lsr	r24
    1722:	83 70       	andi	r24, 0x03	; 3
    1724:	99 e1       	ldi	r25, 0x19	; 25
    1726:	89 9f       	mul	r24, r25
    1728:	80 2d       	mov	r24, r0
    172a:	11 24       	eor	r1, r1
    172c:	88 83       	st	Y, r24

		// float value can be read like so:
		// float temp = ((((short)msb << 8) | (short)lsb) >> 6) / 4.0f;
	}
}
    172e:	df 91       	pop	r29
    1730:	cf 91       	pop	r28
    1732:	1f 91       	pop	r17
    1734:	0f 91       	pop	r16
    1736:	ff 90       	pop	r15
    1738:	08 95       	ret

0000173a <rtc_force_temp_conversion>:

void rtc_force_temp_conversion(uint8_t block)
{
    173a:	cf 93       	push	r28
    173c:	df 93       	push	r29
	if (s_is_ds1307) return; // only valid on DS3231
    173e:	90 91 13 01 	lds	r25, 0x0113	; 0x800113 <s_is_ds1307>
    1742:	99 23       	and	r25, r25
    1744:	19 f0       	breq	.+6      	; 0x174c <rtc_force_temp_conversion+0x12>
		twi_begin_transmission(RTC_ADDR);
		twi_send_byte(0x0E);
		twi_end_transmission();
		twi_request_from(RTC_ADDR, 1);
	} while ((twi_receive() & 0b00100000) != 0);
}
    1746:	df 91       	pop	r29
    1748:	cf 91       	pop	r28
    174a:	08 95       	ret
    174c:	c8 2f       	mov	r28, r24
void rtc_force_temp_conversion(uint8_t block)
{
	if (s_is_ds1307) return; // only valid on DS3231

	// read control register (0x0E)
	twi_begin_transmission(RTC_ADDR);
    174e:	88 e6       	ldi	r24, 0x68	; 104
    1750:	0e 94 9e 0e 	call	0x1d3c	; 0x1d3c <twi_begin_transmission>
	twi_send_byte(0x0E);
    1754:	8e e0       	ldi	r24, 0x0E	; 14
    1756:	0e 94 b8 0e 	call	0x1d70	; 0x1d70 <twi_send_byte>
	twi_end_transmission();
    175a:	0e 94 a8 0e 	call	0x1d50	; 0x1d50 <twi_end_transmission>

	twi_request_from(RTC_ADDR, 1);
    175e:	61 e0       	ldi	r22, 0x01	; 1
    1760:	88 e6       	ldi	r24, 0x68	; 104
    1762:	0e 94 91 0e 	call	0x1d22	; 0x1d22 <twi_request_from>
	uint8_t ctrl = twi_receive();
    1766:	0e 94 17 0f 	call	0x1e2e	; 0x1e2e <twi_receive>
    176a:	d8 2f       	mov	r29, r24

	ctrl |= 0b00100000; // Set CONV bit

	// write new control register value
	twi_begin_transmission(RTC_ADDR);
    176c:	88 e6       	ldi	r24, 0x68	; 104
    176e:	0e 94 9e 0e 	call	0x1d3c	; 0x1d3c <twi_begin_transmission>
	twi_send_byte(0x0E);
    1772:	8e e0       	ldi	r24, 0x0E	; 14
    1774:	0e 94 b8 0e 	call	0x1d70	; 0x1d70 <twi_send_byte>
	twi_send_byte(ctrl);
    1778:	8d 2f       	mov	r24, r29
    177a:	80 62       	ori	r24, 0x20	; 32
    177c:	0e 94 b8 0e 	call	0x1d70	; 0x1d70 <twi_send_byte>
	twi_end_transmission();
    1780:	0e 94 a8 0e 	call	0x1d50	; 0x1d50 <twi_end_transmission>

	if (!block) return;
    1784:	cc 23       	and	r28, r28
    1786:	f9 f2       	breq	.-66     	; 0x1746 <rtc_force_temp_conversion+0xc>
	
	// Temp conversion is ready when control register becomes 0
	do {
		// Block until CONV is 0
		twi_begin_transmission(RTC_ADDR);
    1788:	88 e6       	ldi	r24, 0x68	; 104
    178a:	0e 94 9e 0e 	call	0x1d3c	; 0x1d3c <twi_begin_transmission>
		twi_send_byte(0x0E);
    178e:	8e e0       	ldi	r24, 0x0E	; 14
    1790:	0e 94 b8 0e 	call	0x1d70	; 0x1d70 <twi_send_byte>
		twi_end_transmission();
    1794:	0e 94 a8 0e 	call	0x1d50	; 0x1d50 <twi_end_transmission>
		twi_request_from(RTC_ADDR, 1);
    1798:	61 e0       	ldi	r22, 0x01	; 1
    179a:	88 e6       	ldi	r24, 0x68	; 104
    179c:	0e 94 91 0e 	call	0x1d22	; 0x1d22 <twi_request_from>
	} while ((twi_receive() & 0b00100000) != 0);
    17a0:	0e 94 17 0f 	call	0x1e2e	; 0x1e2e <twi_receive>
    17a4:	85 fd       	sbrc	r24, 5
    17a6:	f0 cf       	rjmp	.-32     	; 0x1788 <rtc_force_temp_conversion+0x4e>
    17a8:	ce cf       	rjmp	.-100    	; 0x1746 <rtc_force_temp_conversion+0xc>

000017aa <rtc_get_sram_byte>:
  	for(int i=0;i<56;i++)
		rtc_set_sram_byte(data[i], i);
}

uint8_t rtc_get_sram_byte(uint8_t offset)
{
    17aa:	cf 93       	push	r28
    17ac:	c8 2f       	mov	r28, r24
	twi_begin_transmission(RTC_ADDR);
    17ae:	88 e6       	ldi	r24, 0x68	; 104
    17b0:	0e 94 9e 0e 	call	0x1d3c	; 0x1d3c <twi_begin_transmission>
	twi_send_byte(DS1307_SRAM_ADDR + offset);
    17b4:	88 e0       	ldi	r24, 0x08	; 8
    17b6:	8c 0f       	add	r24, r28
    17b8:	0e 94 b8 0e 	call	0x1d70	; 0x1d70 <twi_send_byte>
	twi_end_transmission();
    17bc:	0e 94 a8 0e 	call	0x1d50	; 0x1d50 <twi_end_transmission>

	twi_request_from(RTC_ADDR, 1);
    17c0:	61 e0       	ldi	r22, 0x01	; 1
    17c2:	88 e6       	ldi	r24, 0x68	; 104
    17c4:	0e 94 91 0e 	call	0x1d22	; 0x1d22 <twi_request_from>
	return twi_receive();
}
    17c8:	cf 91       	pop	r28
	twi_begin_transmission(RTC_ADDR);
	twi_send_byte(DS1307_SRAM_ADDR + offset);
	twi_end_transmission();

	twi_request_from(RTC_ADDR, 1);
	return twi_receive();
    17ca:	0c 94 17 0f 	jmp	0x1e2e	; 0x1e2e <twi_receive>

000017ce <rtc_get_sram>:

#define DS1307_SRAM_ADDR 0x08

// SRAM: 56 bytes from address 0x08 to 0x3f (DS1307-only)
void rtc_get_sram(uint8_t* data)
{
    17ce:	0f 93       	push	r16
    17d0:	1f 93       	push	r17
    17d2:	cf 93       	push	r28
    17d4:	8c 01       	movw	r16, r24
    17d6:	c0 e0       	ldi	r28, 0x00	; 0
	// cannot receive 56 bytes in one go, because of the TWI library buffer limit
	// so just receive one at a time for simplicity
  	for(int i=0;i<56;i++)
		data[i] = rtc_get_sram_byte(i);
    17d8:	8c 2f       	mov	r24, r28
    17da:	0e 94 d5 0b 	call	0x17aa	; 0x17aa <rtc_get_sram_byte>
    17de:	f8 01       	movw	r30, r16
    17e0:	81 93       	st	Z+, r24
    17e2:	8f 01       	movw	r16, r30
    17e4:	cf 5f       	subi	r28, 0xFF	; 255
// SRAM: 56 bytes from address 0x08 to 0x3f (DS1307-only)
void rtc_get_sram(uint8_t* data)
{
	// cannot receive 56 bytes in one go, because of the TWI library buffer limit
	// so just receive one at a time for simplicity
  	for(int i=0;i<56;i++)
    17e6:	c8 33       	cpi	r28, 0x38	; 56
    17e8:	b9 f7       	brne	.-18     	; 0x17d8 <rtc_get_sram+0xa>
		data[i] = rtc_get_sram_byte(i);
}
    17ea:	cf 91       	pop	r28
    17ec:	1f 91       	pop	r17
    17ee:	0f 91       	pop	r16
    17f0:	08 95       	ret

000017f2 <rtc_set_sram_byte>:
	twi_request_from(RTC_ADDR, 1);
	return twi_receive();
}

void rtc_set_sram_byte(uint8_t b, uint8_t offset)
{
    17f2:	cf 93       	push	r28
    17f4:	df 93       	push	r29
    17f6:	c8 2f       	mov	r28, r24
    17f8:	d6 2f       	mov	r29, r22
	twi_begin_transmission(RTC_ADDR);
    17fa:	88 e6       	ldi	r24, 0x68	; 104
    17fc:	0e 94 9e 0e 	call	0x1d3c	; 0x1d3c <twi_begin_transmission>
	twi_send_byte(DS1307_SRAM_ADDR + offset);
    1800:	88 e0       	ldi	r24, 0x08	; 8
    1802:	8d 0f       	add	r24, r29
    1804:	0e 94 b8 0e 	call	0x1d70	; 0x1d70 <twi_send_byte>
	twi_send_byte(b);
    1808:	8c 2f       	mov	r24, r28
    180a:	0e 94 b8 0e 	call	0x1d70	; 0x1d70 <twi_send_byte>
	twi_end_transmission();
}
    180e:	df 91       	pop	r29
    1810:	cf 91       	pop	r28
void rtc_set_sram_byte(uint8_t b, uint8_t offset)
{
	twi_begin_transmission(RTC_ADDR);
	twi_send_byte(DS1307_SRAM_ADDR + offset);
	twi_send_byte(b);
	twi_end_transmission();
    1812:	0c 94 a8 0e 	jmp	0x1d50	; 0x1d50 <twi_end_transmission>

00001816 <rtc_set_sram>:
  	for(int i=0;i<56;i++)
		data[i] = rtc_get_sram_byte(i);
}

void rtc_set_sram(uint8_t *data)
{
    1816:	0f 93       	push	r16
    1818:	1f 93       	push	r17
    181a:	cf 93       	push	r28
    181c:	8c 01       	movw	r16, r24
    181e:	c0 e0       	ldi	r28, 0x00	; 0
	// cannot send 56 bytes in one go, because of the TWI library buffer limit
	// so just send one at a time for simplicity
  	for(int i=0;i<56;i++)
		rtc_set_sram_byte(data[i], i);
    1820:	6c 2f       	mov	r22, r28
    1822:	f8 01       	movw	r30, r16
    1824:	81 91       	ld	r24, Z+
    1826:	8f 01       	movw	r16, r30
    1828:	0e 94 f9 0b 	call	0x17f2	; 0x17f2 <rtc_set_sram_byte>
    182c:	cf 5f       	subi	r28, 0xFF	; 255

void rtc_set_sram(uint8_t *data)
{
	// cannot send 56 bytes in one go, because of the TWI library buffer limit
	// so just send one at a time for simplicity
  	for(int i=0;i<56;i++)
    182e:	c8 33       	cpi	r28, 0x38	; 56
    1830:	b9 f7       	brne	.-18     	; 0x1820 <rtc_set_sram+0xa>
		rtc_set_sram_byte(data[i], i);
}
    1832:	cf 91       	pop	r28
    1834:	1f 91       	pop	r17
    1836:	0f 91       	pop	r16
    1838:	08 95       	ret

0000183a <rtc_SQW_enable>:
	twi_send_byte(b);
	twi_end_transmission();
}

void rtc_SQW_enable(bool enable)
{
    183a:	cf 93       	push	r28
    183c:	c8 2f       	mov	r28, r24
	if (s_is_ds1307) {
    183e:	80 91 13 01 	lds	r24, 0x0113	; 0x800113 <s_is_ds1307>
    1842:	88 23       	and	r24, r24
    1844:	f1 f0       	breq	.+60     	; 0x1882 <rtc_SQW_enable+0x48>
		twi_begin_transmission(RTC_ADDR);
    1846:	88 e6       	ldi	r24, 0x68	; 104
    1848:	0e 94 9e 0e 	call	0x1d3c	; 0x1d3c <twi_begin_transmission>
		twi_send_byte(0x07);
    184c:	87 e0       	ldi	r24, 0x07	; 7
    184e:	0e 94 b8 0e 	call	0x1d70	; 0x1d70 <twi_send_byte>
		twi_end_transmission();
    1852:	0e 94 a8 0e 	call	0x1d50	; 0x1d50 <twi_end_transmission>
		
		// read control
   		twi_request_from(RTC_ADDR, 1);
    1856:	61 e0       	ldi	r22, 0x01	; 1
    1858:	88 e6       	ldi	r24, 0x68	; 104
    185a:	0e 94 91 0e 	call	0x1d22	; 0x1d22 <twi_request_from>
		uint8_t control = twi_receive();
    185e:	0e 94 17 0f 	call	0x1e2e	; 0x1e2e <twi_receive>

		if (enable)
    1862:	c1 11       	cpse	r28, r1
    1864:	30 c0       	rjmp	.+96     	; 0x18c6 <rtc_SQW_enable+0x8c>
			control |=  0b00010000; // set SQWE to 1
		else
			control &= ~0b00010000; // set SQWE to 0
    1866:	c8 2f       	mov	r28, r24
    1868:	cf 7e       	andi	r28, 0xEF	; 239

		// write control back
		twi_begin_transmission(RTC_ADDR);
    186a:	88 e6       	ldi	r24, 0x68	; 104
    186c:	0e 94 9e 0e 	call	0x1d3c	; 0x1d3c <twi_begin_transmission>
		twi_send_byte(0x07);
    1870:	87 e0       	ldi	r24, 0x07	; 7
			control &= ~0b01000000; // set BBSQW to 0
		}

		// write control back
		twi_begin_transmission(RTC_ADDR);
		twi_send_byte(0x0E);
    1872:	0e 94 b8 0e 	call	0x1d70	; 0x1d70 <twi_send_byte>
		twi_send_byte(control);
    1876:	8c 2f       	mov	r24, r28
    1878:	0e 94 b8 0e 	call	0x1d70	; 0x1d70 <twi_send_byte>
		twi_end_transmission();
	}
}
    187c:	cf 91       	pop	r28

		// write control back
		twi_begin_transmission(RTC_ADDR);
		twi_send_byte(0x0E);
		twi_send_byte(control);
		twi_end_transmission();
    187e:	0c 94 a8 0e 	jmp	0x1d50	; 0x1d50 <twi_end_transmission>
		twi_send_byte(control);
		twi_end_transmission();

	}
	else { // DS3231
		twi_begin_transmission(RTC_ADDR);
    1882:	88 e6       	ldi	r24, 0x68	; 104
    1884:	0e 94 9e 0e 	call	0x1d3c	; 0x1d3c <twi_begin_transmission>
		twi_send_byte(0x0E);
    1888:	8e e0       	ldi	r24, 0x0E	; 14
    188a:	0e 94 b8 0e 	call	0x1d70	; 0x1d70 <twi_send_byte>
		twi_end_transmission();
    188e:	0e 94 a8 0e 	call	0x1d50	; 0x1d50 <twi_end_transmission>
		
		// read control
   		twi_request_from(RTC_ADDR, 1);
    1892:	61 e0       	ldi	r22, 0x01	; 1
    1894:	88 e6       	ldi	r24, 0x68	; 104
    1896:	0e 94 91 0e 	call	0x1d22	; 0x1d22 <twi_request_from>
		uint8_t control = twi_receive();
    189a:	0e 94 17 0f 	call	0x1e2e	; 0x1e2e <twi_receive>

		if (enable) {
    189e:	c1 11       	cpse	r28, r1
    18a0:	0e c0       	rjmp	.+28     	; 0x18be <rtc_SQW_enable+0x84>
			control |=  0b01000000; // set BBSQW to 1
			control &= ~0b00000100; // set INTCN to 0
		}
		else {
			control &= ~0b01000000; // set BBSQW to 0
    18a2:	c8 2f       	mov	r28, r24
    18a4:	cf 7b       	andi	r28, 0xBF	; 191
		}

		// write control back
		twi_begin_transmission(RTC_ADDR);
    18a6:	88 e6       	ldi	r24, 0x68	; 104
    18a8:	0e 94 9e 0e 	call	0x1d3c	; 0x1d3c <twi_begin_transmission>
		twi_send_byte(0x0E);
    18ac:	8e e0       	ldi	r24, 0x0E	; 14
    18ae:	0e 94 b8 0e 	call	0x1d70	; 0x1d70 <twi_send_byte>
		twi_send_byte(control);
    18b2:	8c 2f       	mov	r24, r28
    18b4:	0e 94 b8 0e 	call	0x1d70	; 0x1d70 <twi_send_byte>
		twi_end_transmission();
	}
}
    18b8:	cf 91       	pop	r28

		// write control back
		twi_begin_transmission(RTC_ADDR);
		twi_send_byte(0x0E);
		twi_send_byte(control);
		twi_end_transmission();
    18ba:	0c 94 a8 0e 	jmp	0x1d50	; 0x1d50 <twi_end_transmission>
    18be:	c8 2f       	mov	r28, r24
    18c0:	cb 7f       	andi	r28, 0xFB	; 251
   		twi_request_from(RTC_ADDR, 1);
		uint8_t control = twi_receive();

		if (enable) {
			control |=  0b01000000; // set BBSQW to 1
			control &= ~0b00000100; // set INTCN to 0
    18c2:	c0 64       	ori	r28, 0x40	; 64
    18c4:	f0 cf       	rjmp	.-32     	; 0x18a6 <rtc_SQW_enable+0x6c>
		// read control
   		twi_request_from(RTC_ADDR, 1);
		uint8_t control = twi_receive();

		if (enable)
			control |=  0b00010000; // set SQWE to 1
    18c6:	c8 2f       	mov	r28, r24
    18c8:	c0 61       	ori	r28, 0x10	; 16
    18ca:	cf cf       	rjmp	.-98     	; 0x186a <rtc_SQW_enable+0x30>

000018cc <rtc_SQW_set_freq>:
		twi_end_transmission();
	}
}

void rtc_SQW_set_freq(enum RTC_SQW_FREQ freq)
{
    18cc:	cf 93       	push	r28
    18ce:	c8 2f       	mov	r28, r24
	if (s_is_ds1307) {
    18d0:	80 91 13 01 	lds	r24, 0x0113	; 0x800113 <s_is_ds1307>
    18d4:	81 11       	cpse	r24, r1
    18d6:	1e c0       	rjmp	.+60     	; 0x1914 <rtc_SQW_set_freq+0x48>
		twi_send_byte(control);
		twi_end_transmission();

	}
	else { // DS3231
		twi_begin_transmission(RTC_ADDR);
    18d8:	88 e6       	ldi	r24, 0x68	; 104
    18da:	0e 94 9e 0e 	call	0x1d3c	; 0x1d3c <twi_begin_transmission>
		twi_send_byte(0x0E);
    18de:	8e e0       	ldi	r24, 0x0E	; 14
    18e0:	0e 94 b8 0e 	call	0x1d70	; 0x1d70 <twi_send_byte>
		twi_end_transmission();
    18e4:	0e 94 a8 0e 	call	0x1d50	; 0x1d50 <twi_end_transmission>
		
		// read control (uses bits 3 and 4)
   		twi_request_from(RTC_ADDR, 1);
    18e8:	61 e0       	ldi	r22, 0x01	; 1
    18ea:	88 e6       	ldi	r24, 0x68	; 104
    18ec:	0e 94 91 0e 	call	0x1d22	; 0x1d22 <twi_request_from>
		uint8_t control = twi_receive();
    18f0:	0e 94 17 0f 	call	0x1e2e	; 0x1e2e <twi_receive>

		control &= ~0b00011000; // Set to 0
    18f4:	87 7e       	andi	r24, 0xE7	; 231
		control |= (freq << 4); // Set freq bitmask
    18f6:	c2 95       	swap	r28
    18f8:	c0 7f       	andi	r28, 0xF0	; 240
    18fa:	c8 2b       	or	r28, r24

		// write control back
		twi_begin_transmission(RTC_ADDR);
    18fc:	88 e6       	ldi	r24, 0x68	; 104
    18fe:	0e 94 9e 0e 	call	0x1d3c	; 0x1d3c <twi_begin_transmission>
		twi_send_byte(0x0E);
    1902:	8e e0       	ldi	r24, 0x0E	; 14
    1904:	0e 94 b8 0e 	call	0x1d70	; 0x1d70 <twi_send_byte>
		twi_send_byte(control);
    1908:	8c 2f       	mov	r24, r28
    190a:	0e 94 b8 0e 	call	0x1d70	; 0x1d70 <twi_send_byte>
		twi_end_transmission();
	}
}
    190e:	cf 91       	pop	r28

		// write control back
		twi_begin_transmission(RTC_ADDR);
		twi_send_byte(0x0E);
		twi_send_byte(control);
		twi_end_transmission();
    1910:	0c 94 a8 0e 	jmp	0x1d50	; 0x1d50 <twi_end_transmission>
}

void rtc_SQW_set_freq(enum RTC_SQW_FREQ freq)
{
	if (s_is_ds1307) {
		twi_begin_transmission(RTC_ADDR);
    1914:	88 e6       	ldi	r24, 0x68	; 104
    1916:	0e 94 9e 0e 	call	0x1d3c	; 0x1d3c <twi_begin_transmission>
		twi_send_byte(0x07);
    191a:	87 e0       	ldi	r24, 0x07	; 7
    191c:	0e 94 b8 0e 	call	0x1d70	; 0x1d70 <twi_send_byte>
		twi_end_transmission();
    1920:	0e 94 a8 0e 	call	0x1d50	; 0x1d50 <twi_end_transmission>
		
		// read control (uses bits 0 and 1)
   		twi_request_from(RTC_ADDR, 1);
    1924:	61 e0       	ldi	r22, 0x01	; 1
    1926:	88 e6       	ldi	r24, 0x68	; 104
    1928:	0e 94 91 0e 	call	0x1d22	; 0x1d22 <twi_request_from>
		uint8_t control = twi_receive();
    192c:	0e 94 17 0f 	call	0x1e2e	; 0x1e2e <twi_receive>

		control &= ~0b00000011; // Set to 0
    1930:	8c 7f       	andi	r24, 0xFC	; 252
		control |= freq; // Set freq bitmask
    1932:	c8 2b       	or	r28, r24

		// write control back
		twi_begin_transmission(RTC_ADDR);
    1934:	88 e6       	ldi	r24, 0x68	; 104
    1936:	0e 94 9e 0e 	call	0x1d3c	; 0x1d3c <twi_begin_transmission>
		twi_send_byte(0x07);
    193a:	87 e0       	ldi	r24, 0x07	; 7
		control &= ~0b00011000; // Set to 0
		control |= (freq << 4); // Set freq bitmask

		// write control back
		twi_begin_transmission(RTC_ADDR);
		twi_send_byte(0x0E);
    193c:	0e 94 b8 0e 	call	0x1d70	; 0x1d70 <twi_send_byte>
		twi_send_byte(control);
    1940:	8c 2f       	mov	r24, r28
    1942:	0e 94 b8 0e 	call	0x1d70	; 0x1d70 <twi_send_byte>
		twi_end_transmission();
	}
}
    1946:	cf 91       	pop	r28

		// write control back
		twi_begin_transmission(RTC_ADDR);
		twi_send_byte(0x0E);
		twi_send_byte(control);
		twi_end_transmission();
    1948:	0c 94 a8 0e 	jmp	0x1d50	; 0x1d50 <twi_end_transmission>

0000194c <rtc_osc32kHz_enable>:
	}
}

void rtc_osc32kHz_enable(bool enable)
{
    194c:	cf 93       	push	r28
	if (!s_is_ds3231) return;
    194e:	90 91 12 01 	lds	r25, 0x0112	; 0x800112 <__data_end>
    1952:	91 11       	cpse	r25, r1
    1954:	02 c0       	rjmp	.+4      	; 0x195a <rtc_osc32kHz_enable+0xe>
	// write status back
	twi_begin_transmission(RTC_ADDR);
	twi_send_byte(0x0F);
	twi_send_byte(status);
	twi_end_transmission();
}
    1956:	cf 91       	pop	r28
    1958:	08 95       	ret
    195a:	c8 2f       	mov	r28, r24

void rtc_osc32kHz_enable(bool enable)
{
	if (!s_is_ds3231) return;

	twi_begin_transmission(RTC_ADDR);
    195c:	88 e6       	ldi	r24, 0x68	; 104
    195e:	0e 94 9e 0e 	call	0x1d3c	; 0x1d3c <twi_begin_transmission>
	twi_send_byte(0x0F);
    1962:	8f e0       	ldi	r24, 0x0F	; 15
    1964:	0e 94 b8 0e 	call	0x1d70	; 0x1d70 <twi_send_byte>
	twi_end_transmission();
    1968:	0e 94 a8 0e 	call	0x1d50	; 0x1d50 <twi_end_transmission>

	// read status
	twi_request_from(RTC_ADDR, 1);
    196c:	61 e0       	ldi	r22, 0x01	; 1
    196e:	88 e6       	ldi	r24, 0x68	; 104
    1970:	0e 94 91 0e 	call	0x1d22	; 0x1d22 <twi_request_from>
	uint8_t status = twi_receive();
    1974:	0e 94 17 0f 	call	0x1e2e	; 0x1e2e <twi_receive>

	if (enable)
    1978:	c1 11       	cpse	r28, r1
    197a:	0e c0       	rjmp	.+28     	; 0x1998 <rtc_osc32kHz_enable+0x4c>
		status |= 0b00001000; // set to 1
	else
		status &= ~0b00001000; // Set to 0
    197c:	c8 2f       	mov	r28, r24
    197e:	c7 7f       	andi	r28, 0xF7	; 247

	// write status back
	twi_begin_transmission(RTC_ADDR);
    1980:	88 e6       	ldi	r24, 0x68	; 104
    1982:	0e 94 9e 0e 	call	0x1d3c	; 0x1d3c <twi_begin_transmission>
	twi_send_byte(0x0F);
    1986:	8f e0       	ldi	r24, 0x0F	; 15
    1988:	0e 94 b8 0e 	call	0x1d70	; 0x1d70 <twi_send_byte>
	twi_send_byte(status);
    198c:	8c 2f       	mov	r24, r28
    198e:	0e 94 b8 0e 	call	0x1d70	; 0x1d70 <twi_send_byte>
	twi_end_transmission();
}
    1992:	cf 91       	pop	r28

	// write status back
	twi_begin_transmission(RTC_ADDR);
	twi_send_byte(0x0F);
	twi_send_byte(status);
	twi_end_transmission();
    1994:	0c 94 a8 0e 	jmp	0x1d50	; 0x1d50 <twi_end_transmission>
	// read status
	twi_request_from(RTC_ADDR, 1);
	uint8_t status = twi_receive();

	if (enable)
		status |= 0b00001000; // set to 1
    1998:	c8 2f       	mov	r28, r24
    199a:	c8 60       	ori	r28, 0x08	; 8
    199c:	f1 cf       	rjmp	.-30     	; 0x1980 <rtc_osc32kHz_enable+0x34>

0000199e <rtc_reset_alarm>:
// Alarm functionality
// fixme: should decide if "alarm disabled" mode should be available, or if alarm should always be enabled 
// at 00:00:00. Currently, "alarm disabled" only works for ds3231
void rtc_reset_alarm(void)
{
	if (s_is_ds1307) {
    199e:	80 91 13 01 	lds	r24, 0x0113	; 0x800113 <s_is_ds1307>
    19a2:	81 11       	cpse	r24, r1
    19a4:	10 c0       	rjmp	.+32     	; 0x19c6 <rtc_reset_alarm+0x28>
		rtc_set_sram_byte(0, 1); // minute
		rtc_set_sram_byte(0, 2); // second
	}
	else {
		// writing 0 to bit 7 of all four alarm 1 registers disables alarm
		rtc_write_byte(0, 0x07); // second
    19a6:	67 e0       	ldi	r22, 0x07	; 7
    19a8:	80 e0       	ldi	r24, 0x00	; 0
    19aa:	0e 94 a1 08 	call	0x1142	; 0x1142 <rtc_write_byte>
		rtc_write_byte(0, 0x08); // minute
    19ae:	68 e0       	ldi	r22, 0x08	; 8
    19b0:	80 e0       	ldi	r24, 0x00	; 0
    19b2:	0e 94 a1 08 	call	0x1142	; 0x1142 <rtc_write_byte>
		rtc_write_byte(0, 0x09); // hour
    19b6:	69 e0       	ldi	r22, 0x09	; 9
    19b8:	80 e0       	ldi	r24, 0x00	; 0
    19ba:	0e 94 a1 08 	call	0x1142	; 0x1142 <rtc_write_byte>
		rtc_write_byte(0, 0x0a); // day
    19be:	6a e0       	ldi	r22, 0x0A	; 10
    19c0:	80 e0       	ldi	r24, 0x00	; 0
    19c2:	0c 94 a1 08 	jmp	0x1142	; 0x1142 <rtc_write_byte>
// fixme: should decide if "alarm disabled" mode should be available, or if alarm should always be enabled 
// at 00:00:00. Currently, "alarm disabled" only works for ds3231
void rtc_reset_alarm(void)
{
	if (s_is_ds1307) {
		rtc_set_sram_byte(0, 0); // hour
    19c6:	60 e0       	ldi	r22, 0x00	; 0
    19c8:	80 e0       	ldi	r24, 0x00	; 0
    19ca:	0e 94 f9 0b 	call	0x17f2	; 0x17f2 <rtc_set_sram_byte>
		rtc_set_sram_byte(0, 1); // minute
    19ce:	61 e0       	ldi	r22, 0x01	; 1
    19d0:	80 e0       	ldi	r24, 0x00	; 0
    19d2:	0e 94 f9 0b 	call	0x17f2	; 0x17f2 <rtc_set_sram_byte>
		rtc_set_sram_byte(0, 2); // second
    19d6:	62 e0       	ldi	r22, 0x02	; 2
    19d8:	80 e0       	ldi	r24, 0x00	; 0
    19da:	0c 94 f9 0b 	jmp	0x17f2	; 0x17f2 <rtc_set_sram_byte>

000019de <rtc_set_alarm_s>:
	}
}

// fixme: add an option to set whether or not the INTCN and Interrupt Enable flag is set when setting the alarm
void rtc_set_alarm_s(uint8_t hour, uint8_t min, uint8_t sec)
{
    19de:	0f 93       	push	r16
    19e0:	1f 93       	push	r17
    19e2:	cf 93       	push	r28
    19e4:	df 93       	push	r29
	if (hour > 23) return;
    19e6:	88 31       	cpi	r24, 0x18	; 24
    19e8:	08 f0       	brcs	.+2      	; 0x19ec <rtc_set_alarm_s+0xe>
    19ea:	59 c0       	rjmp	.+178    	; 0x1a9e <rtc_set_alarm_s+0xc0>
	if (min > 59) return;
    19ec:	6c 33       	cpi	r22, 0x3C	; 60
    19ee:	08 f0       	brcs	.+2      	; 0x19f2 <rtc_set_alarm_s+0x14>
    19f0:	56 c0       	rjmp	.+172    	; 0x1a9e <rtc_set_alarm_s+0xc0>
	if (sec > 59) return;
    19f2:	4c 33       	cpi	r20, 0x3C	; 60
    19f4:	08 f0       	brcs	.+2      	; 0x19f8 <rtc_set_alarm_s+0x1a>
    19f6:	53 c0       	rjmp	.+166    	; 0x1a9e <rtc_set_alarm_s+0xc0>
    19f8:	d4 2f       	mov	r29, r20
    19fa:	16 2f       	mov	r17, r22
    19fc:	c8 2f       	mov	r28, r24

	if (s_is_ds1307) {
    19fe:	80 91 13 01 	lds	r24, 0x0113	; 0x800113 <s_is_ds1307>
    1a02:	81 11       	cpse	r24, r1
    1a04:	51 c0       	rjmp	.+162    	; 0x1aa8 <rtc_set_alarm_s+0xca>
// statically allocated structure for time value
struct tm _tm;

uint8_t dec2bcd(uint8_t d)
{
  return ((d/10 * 16) + (d % 10));
    1a06:	0d ec       	ldi	r16, 0xCD	; 205
    1a08:	40 9f       	mul	r20, r16
    1a0a:	91 2d       	mov	r25, r1
    1a0c:	11 24       	eor	r1, r1
    1a0e:	29 2f       	mov	r18, r25
    1a10:	26 95       	lsr	r18
    1a12:	26 95       	lsr	r18
    1a14:	26 95       	lsr	r18
    1a16:	82 2f       	mov	r24, r18
    1a18:	82 95       	swap	r24
    1a1a:	80 7f       	andi	r24, 0xF0	; 240
    1a1c:	92 2f       	mov	r25, r18
    1a1e:	99 0f       	add	r25, r25
    1a20:	99 0f       	add	r25, r25
    1a22:	92 0f       	add	r25, r18
    1a24:	99 0f       	add	r25, r25
    1a26:	d9 1b       	sub	r29, r25
		 *  08h: A1M2:0  Alarm 1 minutes
		 *  09h: A1M3:0  Alarm 1 hour (bit6 is am/pm flag in 12h mode)
		 *  0ah: A1M4:1  Alarm 1 day/date (bit6: 1 for day, 0 for date)
		 *  Sets alarm to fire when hour, minute and second matches
		 */
		rtc_write_byte(dec2bcd(sec),  0x07); // second
    1a28:	67 e0       	ldi	r22, 0x07	; 7
    1a2a:	8d 0f       	add	r24, r29
    1a2c:	0e 94 a1 08 	call	0x1142	; 0x1142 <rtc_write_byte>
// statically allocated structure for time value
struct tm _tm;

uint8_t dec2bcd(uint8_t d)
{
  return ((d/10 * 16) + (d % 10));
    1a30:	10 9f       	mul	r17, r16
    1a32:	91 2d       	mov	r25, r1
    1a34:	11 24       	eor	r1, r1
    1a36:	29 2f       	mov	r18, r25
    1a38:	26 95       	lsr	r18
    1a3a:	26 95       	lsr	r18
    1a3c:	26 95       	lsr	r18
    1a3e:	82 2f       	mov	r24, r18
    1a40:	82 95       	swap	r24
    1a42:	80 7f       	andi	r24, 0xF0	; 240
    1a44:	92 2f       	mov	r25, r18
    1a46:	99 0f       	add	r25, r25
    1a48:	99 0f       	add	r25, r25
    1a4a:	92 0f       	add	r25, r18
    1a4c:	99 0f       	add	r25, r25
    1a4e:	19 1b       	sub	r17, r25
		 *  09h: A1M3:0  Alarm 1 hour (bit6 is am/pm flag in 12h mode)
		 *  0ah: A1M4:1  Alarm 1 day/date (bit6: 1 for day, 0 for date)
		 *  Sets alarm to fire when hour, minute and second matches
		 */
		rtc_write_byte(dec2bcd(sec),  0x07); // second
		rtc_write_byte(dec2bcd(min),  0x08); // minute
    1a50:	68 e0       	ldi	r22, 0x08	; 8
    1a52:	81 0f       	add	r24, r17
    1a54:	0e 94 a1 08 	call	0x1142	; 0x1142 <rtc_write_byte>
// statically allocated structure for time value
struct tm _tm;

uint8_t dec2bcd(uint8_t d)
{
  return ((d/10 * 16) + (d % 10));
    1a58:	c0 9f       	mul	r28, r16
    1a5a:	01 2d       	mov	r16, r1
    1a5c:	11 24       	eor	r1, r1
    1a5e:	06 95       	lsr	r16
    1a60:	06 95       	lsr	r16
    1a62:	06 95       	lsr	r16
    1a64:	20 2f       	mov	r18, r16
    1a66:	22 95       	swap	r18
    1a68:	20 7f       	andi	r18, 0xF0	; 240
    1a6a:	90 2f       	mov	r25, r16
    1a6c:	99 0f       	add	r25, r25
    1a6e:	99 0f       	add	r25, r25
    1a70:	09 0f       	add	r16, r25
    1a72:	00 0f       	add	r16, r16
    1a74:	8c 2f       	mov	r24, r28
    1a76:	80 1b       	sub	r24, r16
		 *  0ah: A1M4:1  Alarm 1 day/date (bit6: 1 for day, 0 for date)
		 *  Sets alarm to fire when hour, minute and second matches
		 */
		rtc_write_byte(dec2bcd(sec),  0x07); // second
		rtc_write_byte(dec2bcd(min),  0x08); // minute
		rtc_write_byte(dec2bcd(hour), 0x09); // hour
    1a78:	69 e0       	ldi	r22, 0x09	; 9
    1a7a:	82 0f       	add	r24, r18
    1a7c:	0e 94 a1 08 	call	0x1142	; 0x1142 <rtc_write_byte>
		rtc_write_byte(0b10000001,         0x0a); // day (upper bit must be set)
    1a80:	6a e0       	ldi	r22, 0x0A	; 10
    1a82:	81 e8       	ldi	r24, 0x81	; 129
    1a84:	0e 94 a1 08 	call	0x1142	; 0x1142 <rtc_write_byte>

		// clear alarm flag
		uint8_t val = rtc_read_byte(0x0f);
    1a88:	8f e0       	ldi	r24, 0x0F	; 15
    1a8a:	0e 94 90 08 	call	0x1120	; 0x1120 <rtc_read_byte>
		rtc_write_byte(val & ~0b00000001, 0x0f);
    1a8e:	6f e0       	ldi	r22, 0x0F	; 15
    1a90:	8e 7f       	andi	r24, 0xFE	; 254
	}
}
    1a92:	df 91       	pop	r29
    1a94:	cf 91       	pop	r28
    1a96:	1f 91       	pop	r17
    1a98:	0f 91       	pop	r16
		rtc_write_byte(dec2bcd(hour), 0x09); // hour
		rtc_write_byte(0b10000001,         0x0a); // day (upper bit must be set)

		// clear alarm flag
		uint8_t val = rtc_read_byte(0x0f);
		rtc_write_byte(val & ~0b00000001, 0x0f);
    1a9a:	0c 94 a1 08 	jmp	0x1142	; 0x1142 <rtc_write_byte>
	}
}
    1a9e:	df 91       	pop	r29
    1aa0:	cf 91       	pop	r28
    1aa2:	1f 91       	pop	r17
    1aa4:	0f 91       	pop	r16
    1aa6:	08 95       	ret
	if (hour > 23) return;
	if (min > 59) return;
	if (sec > 59) return;

	if (s_is_ds1307) {
		rtc_set_sram_byte(hour, 0); // hour
    1aa8:	60 e0       	ldi	r22, 0x00	; 0
    1aaa:	8c 2f       	mov	r24, r28
    1aac:	0e 94 f9 0b 	call	0x17f2	; 0x17f2 <rtc_set_sram_byte>
		rtc_set_sram_byte(min,  1); // minute
    1ab0:	61 e0       	ldi	r22, 0x01	; 1
    1ab2:	81 2f       	mov	r24, r17
    1ab4:	0e 94 f9 0b 	call	0x17f2	; 0x17f2 <rtc_set_sram_byte>
		rtc_set_sram_byte(sec,  2); // second
    1ab8:	62 e0       	ldi	r22, 0x02	; 2
    1aba:	8d 2f       	mov	r24, r29

		// clear alarm flag
		uint8_t val = rtc_read_byte(0x0f);
		rtc_write_byte(val & ~0b00000001, 0x0f);
	}
}
    1abc:	df 91       	pop	r29
    1abe:	cf 91       	pop	r28
    1ac0:	1f 91       	pop	r17
    1ac2:	0f 91       	pop	r16
	if (sec > 59) return;

	if (s_is_ds1307) {
		rtc_set_sram_byte(hour, 0); // hour
		rtc_set_sram_byte(min,  1); // minute
		rtc_set_sram_byte(sec,  2); // second
    1ac4:	0c 94 f9 0b 	jmp	0x17f2	; 0x17f2 <rtc_set_sram_byte>

00001ac8 <rtc_set_alarm>:
	}
}

void rtc_set_alarm(struct tm* tm_)
{
	if (!tm_) return;
    1ac8:	00 97       	sbiw	r24, 0x00	; 0
    1aca:	31 f0       	breq	.+12     	; 0x1ad8 <rtc_set_alarm+0x10>
	rtc_set_alarm_s(tm_->hour, tm_->min, tm_->sec);
    1acc:	fc 01       	movw	r30, r24
    1ace:	40 81       	ld	r20, Z
    1ad0:	62 81       	ldd	r22, Z+2	; 0x02
    1ad2:	84 81       	ldd	r24, Z+4	; 0x04
    1ad4:	0c 94 ef 0c 	jmp	0x19de	; 0x19de <rtc_set_alarm_s>
}
    1ad8:	08 95       	ret

00001ada <rtc_get_alarm_s>:

void rtc_get_alarm_s(uint8_t* hour, uint8_t* min, uint8_t* sec)
{
    1ada:	ef 92       	push	r14
    1adc:	ff 92       	push	r15
    1ade:	0f 93       	push	r16
    1ae0:	1f 93       	push	r17
    1ae2:	cf 93       	push	r28
    1ae4:	df 93       	push	r29
    1ae6:	ec 01       	movw	r28, r24
    1ae8:	8b 01       	movw	r16, r22
    1aea:	7a 01       	movw	r14, r20
	if (s_is_ds1307) {
    1aec:	80 91 13 01 	lds	r24, 0x0113	; 0x800113 <s_is_ds1307>
    1af0:	88 23       	and	r24, r24
    1af2:	e9 f0       	breq	.+58     	; 0x1b2e <rtc_get_alarm_s+0x54>
		if (hour) *hour = rtc_get_sram_byte(0);
    1af4:	20 97       	sbiw	r28, 0x00	; 0
    1af6:	21 f0       	breq	.+8      	; 0x1b00 <rtc_get_alarm_s+0x26>
    1af8:	80 e0       	ldi	r24, 0x00	; 0
    1afa:	0e 94 d5 0b 	call	0x17aa	; 0x17aa <rtc_get_sram_byte>
    1afe:	88 83       	st	Y, r24
		if (min)  *min  = rtc_get_sram_byte(1);
    1b00:	01 15       	cp	r16, r1
    1b02:	11 05       	cpc	r17, r1
    1b04:	29 f0       	breq	.+10     	; 0x1b10 <rtc_get_alarm_s+0x36>
    1b06:	81 e0       	ldi	r24, 0x01	; 1
    1b08:	0e 94 d5 0b 	call	0x17aa	; 0x17aa <rtc_get_sram_byte>
    1b0c:	f8 01       	movw	r30, r16
    1b0e:	80 83       	st	Z, r24
		if (sec)  *sec  = rtc_get_sram_byte(2);
    1b10:	e1 14       	cp	r14, r1
    1b12:	f1 04       	cpc	r15, r1
    1b14:	29 f0       	breq	.+10     	; 0x1b20 <rtc_get_alarm_s+0x46>
    1b16:	82 e0       	ldi	r24, 0x02	; 2
    1b18:	0e 94 d5 0b 	call	0x17aa	; 0x17aa <rtc_get_sram_byte>
    1b1c:	f7 01       	movw	r30, r14
    1b1e:	80 83       	st	Z, r24
	else {
		*sec  = bcd2dec(rtc_read_byte(0x07) & ~0b10000000);
		*min  = bcd2dec(rtc_read_byte(0x08) & ~0b10000000);
		*hour = bcd2dec(rtc_read_byte(0x09) & ~0b10000000);
	}
}
    1b20:	df 91       	pop	r29
    1b22:	cf 91       	pop	r28
    1b24:	1f 91       	pop	r17
    1b26:	0f 91       	pop	r16
    1b28:	ff 90       	pop	r15
    1b2a:	ef 90       	pop	r14
    1b2c:	08 95       	ret
		if (hour) *hour = rtc_get_sram_byte(0);
		if (min)  *min  = rtc_get_sram_byte(1);
		if (sec)  *sec  = rtc_get_sram_byte(2);
	}
	else {
		*sec  = bcd2dec(rtc_read_byte(0x07) & ~0b10000000);
    1b2e:	87 e0       	ldi	r24, 0x07	; 7
    1b30:	0e 94 90 08 	call	0x1120	; 0x1120 <rtc_read_byte>
  return ((d/10 * 16) + (d % 10));
}

uint8_t bcd2dec(uint8_t b)
{
  return ((b/16 * 10) + (b % 16));
    1b34:	28 2f       	mov	r18, r24
    1b36:	22 95       	swap	r18
    1b38:	27 70       	andi	r18, 0x07	; 7
    1b3a:	92 2f       	mov	r25, r18
    1b3c:	99 0f       	add	r25, r25
    1b3e:	99 0f       	add	r25, r25
    1b40:	92 0f       	add	r25, r18
    1b42:	99 0f       	add	r25, r25
    1b44:	8f 70       	andi	r24, 0x0F	; 15
    1b46:	89 0f       	add	r24, r25
		if (hour) *hour = rtc_get_sram_byte(0);
		if (min)  *min  = rtc_get_sram_byte(1);
		if (sec)  *sec  = rtc_get_sram_byte(2);
	}
	else {
		*sec  = bcd2dec(rtc_read_byte(0x07) & ~0b10000000);
    1b48:	f7 01       	movw	r30, r14
    1b4a:	80 83       	st	Z, r24
		*min  = bcd2dec(rtc_read_byte(0x08) & ~0b10000000);
    1b4c:	88 e0       	ldi	r24, 0x08	; 8
    1b4e:	0e 94 90 08 	call	0x1120	; 0x1120 <rtc_read_byte>
  return ((d/10 * 16) + (d % 10));
}

uint8_t bcd2dec(uint8_t b)
{
  return ((b/16 * 10) + (b % 16));
    1b52:	28 2f       	mov	r18, r24
    1b54:	22 95       	swap	r18
    1b56:	27 70       	andi	r18, 0x07	; 7
    1b58:	92 2f       	mov	r25, r18
    1b5a:	99 0f       	add	r25, r25
    1b5c:	99 0f       	add	r25, r25
    1b5e:	92 0f       	add	r25, r18
    1b60:	99 0f       	add	r25, r25
    1b62:	8f 70       	andi	r24, 0x0F	; 15
    1b64:	89 0f       	add	r24, r25
		if (min)  *min  = rtc_get_sram_byte(1);
		if (sec)  *sec  = rtc_get_sram_byte(2);
	}
	else {
		*sec  = bcd2dec(rtc_read_byte(0x07) & ~0b10000000);
		*min  = bcd2dec(rtc_read_byte(0x08) & ~0b10000000);
    1b66:	f8 01       	movw	r30, r16
    1b68:	80 83       	st	Z, r24
		*hour = bcd2dec(rtc_read_byte(0x09) & ~0b10000000);
    1b6a:	89 e0       	ldi	r24, 0x09	; 9
    1b6c:	0e 94 90 08 	call	0x1120	; 0x1120 <rtc_read_byte>
  return ((d/10 * 16) + (d % 10));
}

uint8_t bcd2dec(uint8_t b)
{
  return ((b/16 * 10) + (b % 16));
    1b70:	28 2f       	mov	r18, r24
    1b72:	22 95       	swap	r18
    1b74:	27 70       	andi	r18, 0x07	; 7
    1b76:	92 2f       	mov	r25, r18
    1b78:	99 0f       	add	r25, r25
    1b7a:	99 0f       	add	r25, r25
    1b7c:	92 0f       	add	r25, r18
    1b7e:	99 0f       	add	r25, r25
    1b80:	8f 70       	andi	r24, 0x0F	; 15
    1b82:	89 0f       	add	r24, r25
		if (sec)  *sec  = rtc_get_sram_byte(2);
	}
	else {
		*sec  = bcd2dec(rtc_read_byte(0x07) & ~0b10000000);
		*min  = bcd2dec(rtc_read_byte(0x08) & ~0b10000000);
		*hour = bcd2dec(rtc_read_byte(0x09) & ~0b10000000);
    1b84:	88 83       	st	Y, r24
	}
}
    1b86:	df 91       	pop	r29
    1b88:	cf 91       	pop	r28
    1b8a:	1f 91       	pop	r17
    1b8c:	0f 91       	pop	r16
    1b8e:	ff 90       	pop	r15
    1b90:	ef 90       	pop	r14
    1b92:	08 95       	ret

00001b94 <rtc_get_alarm>:

struct tm* rtc_get_alarm(void)
{
    1b94:	cf 93       	push	r28
    1b96:	df 93       	push	r29
    1b98:	00 d0       	rcall	.+0      	; 0x1b9a <rtc_get_alarm+0x6>
    1b9a:	1f 92       	push	r1
    1b9c:	cd b7       	in	r28, 0x3d	; 61
    1b9e:	de b7       	in	r29, 0x3e	; 62
	uint8_t hour, min, sec;

	rtc_get_alarm_s(&hour, &min, &sec);
    1ba0:	ae 01       	movw	r20, r28
    1ba2:	4f 5f       	subi	r20, 0xFF	; 255
    1ba4:	5f 4f       	sbci	r21, 0xFF	; 255
    1ba6:	be 01       	movw	r22, r28
    1ba8:	6e 5f       	subi	r22, 0xFE	; 254
    1baa:	7f 4f       	sbci	r23, 0xFF	; 255
    1bac:	ce 01       	movw	r24, r28
    1bae:	03 96       	adiw	r24, 0x03	; 3
    1bb0:	0e 94 6d 0d 	call	0x1ada	; 0x1ada <rtc_get_alarm_s>
	_tm.hour = hour;
    1bb4:	e4 e8       	ldi	r30, 0x84	; 132
    1bb6:	f2 e0       	ldi	r31, 0x02	; 2
    1bb8:	8b 81       	ldd	r24, Y+3	; 0x03
    1bba:	90 e0       	ldi	r25, 0x00	; 0
    1bbc:	95 83       	std	Z+5, r25	; 0x05
    1bbe:	84 83       	std	Z+4, r24	; 0x04
	_tm.min = min;
    1bc0:	8a 81       	ldd	r24, Y+2	; 0x02
    1bc2:	90 e0       	ldi	r25, 0x00	; 0
    1bc4:	93 83       	std	Z+3, r25	; 0x03
    1bc6:	82 83       	std	Z+2, r24	; 0x02
	_tm.sec = sec;
    1bc8:	89 81       	ldd	r24, Y+1	; 0x01
    1bca:	90 e0       	ldi	r25, 0x00	; 0
    1bcc:	91 83       	std	Z+1, r25	; 0x01
    1bce:	80 83       	st	Z, r24
	return &_tm;
}
    1bd0:	cf 01       	movw	r24, r30
    1bd2:	0f 90       	pop	r0
    1bd4:	0f 90       	pop	r0
    1bd6:	0f 90       	pop	r0
    1bd8:	df 91       	pop	r29
    1bda:	cf 91       	pop	r28
    1bdc:	08 95       	ret

00001bde <rtc_check_alarm>:

bool rtc_check_alarm(void)
{
    1bde:	ff 92       	push	r15
    1be0:	0f 93       	push	r16
    1be2:	1f 93       	push	r17
    1be4:	cf 93       	push	r28
    1be6:	df 93       	push	r29
    1be8:	00 d0       	rcall	.+0      	; 0x1bea <rtc_check_alarm+0xc>
    1bea:	1f 92       	push	r1
    1bec:	cd b7       	in	r28, 0x3d	; 61
    1bee:	de b7       	in	r29, 0x3e	; 62
	if (s_is_ds1307) {
    1bf0:	80 91 13 01 	lds	r24, 0x0113	; 0x800113 <s_is_ds1307>
    1bf4:	88 23       	and	r24, r24
    1bf6:	d9 f0       	breq	.+54     	; 0x1c2e <rtc_check_alarm+0x50>
		uint8_t hour = rtc_get_sram_byte(0);
    1bf8:	80 e0       	ldi	r24, 0x00	; 0
    1bfa:	0e 94 d5 0b 	call	0x17aa	; 0x17aa <rtc_get_sram_byte>
    1bfe:	18 2f       	mov	r17, r24
		uint8_t min  = rtc_get_sram_byte(1);
    1c00:	81 e0       	ldi	r24, 0x01	; 1
    1c02:	0e 94 d5 0b 	call	0x17aa	; 0x17aa <rtc_get_sram_byte>
    1c06:	08 2f       	mov	r16, r24
		uint8_t sec  = rtc_get_sram_byte(2);
    1c08:	82 e0       	ldi	r24, 0x02	; 2
    1c0a:	0e 94 d5 0b 	call	0x17aa	; 0x17aa <rtc_get_sram_byte>
    1c0e:	f8 2e       	mov	r15, r24

		uint8_t cur_hour, cur_min, cur_sec;
		rtc_get_time_s(&cur_hour, &cur_min, &cur_sec);
    1c10:	ae 01       	movw	r20, r28
    1c12:	4f 5f       	subi	r20, 0xFF	; 255
    1c14:	5f 4f       	sbci	r21, 0xFF	; 255
    1c16:	be 01       	movw	r22, r28
    1c18:	6e 5f       	subi	r22, 0xFE	; 254
    1c1a:	7f 4f       	sbci	r23, 0xFF	; 255
    1c1c:	ce 01       	movw	r24, r28
    1c1e:	03 96       	adiw	r24, 0x03	; 3
    1c20:	0e 94 c3 09 	call	0x1386	; 0x1386 <rtc_get_time_s>
		
		if (cur_hour == hour && cur_min == min && cur_sec == sec)
    1c24:	8b 81       	ldd	r24, Y+3	; 0x03
    1c26:	81 17       	cp	r24, r17
    1c28:	99 f0       	breq	.+38     	; 0x1c50 <rtc_check_alarm+0x72>
			return true;
		return false;
    1c2a:	80 e0       	ldi	r24, 0x00	; 0
    1c2c:	08 c0       	rjmp	.+16     	; 0x1c3e <rtc_check_alarm+0x60>
	}
	else {
		// Alarm 1 flag (A1F) in bit 0
		uint8_t val = rtc_read_byte(0x0f);
    1c2e:	8f e0       	ldi	r24, 0x0F	; 15
    1c30:	0e 94 90 08 	call	0x1120	; 0x1120 <rtc_read_byte>

		// clear flag when set
		if (val & 1)
    1c34:	18 2f       	mov	r17, r24
    1c36:	11 70       	andi	r17, 0x01	; 1
    1c38:	80 fd       	sbrc	r24, 0
    1c3a:	13 c0       	rjmp	.+38     	; 0x1c62 <rtc_check_alarm+0x84>
			rtc_write_byte(val & ~0b00000001, 0x0f);
			
		return val & 1 ? 1 : 0;
    1c3c:	81 2f       	mov	r24, r17
	}
}
    1c3e:	0f 90       	pop	r0
    1c40:	0f 90       	pop	r0
    1c42:	0f 90       	pop	r0
    1c44:	df 91       	pop	r29
    1c46:	cf 91       	pop	r28
    1c48:	1f 91       	pop	r17
    1c4a:	0f 91       	pop	r16
    1c4c:	ff 90       	pop	r15
    1c4e:	08 95       	ret
		uint8_t sec  = rtc_get_sram_byte(2);

		uint8_t cur_hour, cur_min, cur_sec;
		rtc_get_time_s(&cur_hour, &cur_min, &cur_sec);
		
		if (cur_hour == hour && cur_min == min && cur_sec == sec)
    1c50:	8a 81       	ldd	r24, Y+2	; 0x02
    1c52:	80 13       	cpse	r24, r16
    1c54:	ea cf       	rjmp	.-44     	; 0x1c2a <rtc_check_alarm+0x4c>
    1c56:	81 e0       	ldi	r24, 0x01	; 1
    1c58:	99 81       	ldd	r25, Y+1	; 0x01
    1c5a:	9f 15       	cp	r25, r15
    1c5c:	81 f3       	breq	.-32     	; 0x1c3e <rtc_check_alarm+0x60>
			return true;
		return false;
    1c5e:	80 e0       	ldi	r24, 0x00	; 0
    1c60:	ee cf       	rjmp	.-36     	; 0x1c3e <rtc_check_alarm+0x60>
		// Alarm 1 flag (A1F) in bit 0
		uint8_t val = rtc_read_byte(0x0f);

		// clear flag when set
		if (val & 1)
			rtc_write_byte(val & ~0b00000001, 0x0f);
    1c62:	6f e0       	ldi	r22, 0x0F	; 15
    1c64:	8e 7f       	andi	r24, 0xFE	; 254
    1c66:	0e 94 a1 08 	call	0x1142	; 0x1142 <rtc_write_byte>
    1c6a:	e8 cf       	rjmp	.-48     	; 0x1c3c <rtc_check_alarm+0x5e>

00001c6c <onReceiveService>:
  return value;
}

// behind the scenes function that is called when data is received
void onReceiveService(uint8_t* inBytes, int numBytes)
{
    1c6c:	cf 93       	push	r28
    1c6e:	df 93       	push	r29
    1c70:	dc 01       	movw	r26, r24
  // don't bother if user hasn't registered a callback
  if(!user_onReceive){
    1c72:	e0 91 d7 02 	lds	r30, 0x02D7	; 0x8002d7 <user_onReceive>
    1c76:	f0 91 d8 02 	lds	r31, 0x02D8	; 0x8002d8 <user_onReceive+0x1>
    1c7a:	30 97       	sbiw	r30, 0x00	; 0
    1c7c:	29 f1       	breq	.+74     	; 0x1cc8 <onReceiveService+0x5c>
    return;
  }
  // don't bother if rx buffer is in use by a master requestFrom() op
  // i know this drops data, but it allows for slight stupidity
  // meaning, they may not have read all the master requestFrom() data yet
  if(rxBufferIndex < rxBufferLength){
    1c7e:	90 91 19 01 	lds	r25, 0x0119	; 0x800119 <rxBufferIndex>
    1c82:	80 91 18 01 	lds	r24, 0x0118	; 0x800118 <rxBufferLength>
    1c86:	98 17       	cp	r25, r24
    1c88:	f8 f0       	brcs	.+62     	; 0x1cc8 <onReceiveService+0x5c>
    return;
  }
  // copy twi rx buffer into local read buffer
  // this enables new reads to happen in parallel
  for(uint8_t i = 0; i < numBytes; ++i){
    1c8a:	16 16       	cp	r1, r22
    1c8c:	17 06       	cpc	r1, r23
    1c8e:	a4 f4       	brge	.+40     	; 0x1cb8 <onReceiveService+0x4c>
    1c90:	90 e0       	ldi	r25, 0x00	; 0
    1c92:	50 e0       	ldi	r21, 0x00	; 0
    1c94:	40 e0       	ldi	r20, 0x00	; 0
    1c96:	30 e0       	ldi	r19, 0x00	; 0
    1c98:	20 e0       	ldi	r18, 0x00	; 0
    rxBuffer[i] = inBytes[i];    
    1c9a:	2a 0f       	add	r18, r26
    1c9c:	3b 1f       	adc	r19, r27
    1c9e:	e9 01       	movw	r28, r18
    1ca0:	28 81       	ld	r18, Y
    1ca2:	49 56       	subi	r20, 0x69	; 105
    1ca4:	5d 4f       	sbci	r21, 0xFD	; 253
    1ca6:	ea 01       	movw	r28, r20
    1ca8:	28 83       	st	Y, r18
  if(rxBufferIndex < rxBufferLength){
    return;
  }
  // copy twi rx buffer into local read buffer
  // this enables new reads to happen in parallel
  for(uint8_t i = 0; i < numBytes; ++i){
    1caa:	9f 5f       	subi	r25, 0xFF	; 255
    1cac:	29 2f       	mov	r18, r25
    1cae:	30 e0       	ldi	r19, 0x00	; 0
    1cb0:	a9 01       	movw	r20, r18
    1cb2:	26 17       	cp	r18, r22
    1cb4:	37 07       	cpc	r19, r23
    1cb6:	8c f3       	brlt	.-30     	; 0x1c9a <onReceiveService+0x2e>
    rxBuffer[i] = inBytes[i];    
  }
  // set rx iterator vars
  rxBufferIndex = 0;
    1cb8:	10 92 19 01 	sts	0x0119, r1	; 0x800119 <rxBufferIndex>
  rxBufferLength = numBytes;
    1cbc:	60 93 18 01 	sts	0x0118, r22	; 0x800118 <rxBufferLength>
  // alert user program
  user_onReceive(numBytes);
    1cc0:	cb 01       	movw	r24, r22
}
    1cc2:	df 91       	pop	r29
    1cc4:	cf 91       	pop	r28
  }
  // set rx iterator vars
  rxBufferIndex = 0;
  rxBufferLength = numBytes;
  // alert user program
  user_onReceive(numBytes);
    1cc6:	09 94       	ijmp
}
    1cc8:	df 91       	pop	r29
    1cca:	cf 91       	pop	r28
    1ccc:	08 95       	ret

00001cce <onRequestService>:

// behind the scenes function that is called when data is requested
void onRequestService(void)
{
  // don't bother if user hasn't registered a callback
  if(!user_onRequest){
    1cce:	e0 91 95 02 	lds	r30, 0x0295	; 0x800295 <user_onRequest>
    1cd2:	f0 91 96 02 	lds	r31, 0x0296	; 0x800296 <user_onRequest+0x1>
    1cd6:	30 97       	sbiw	r30, 0x00	; 0
    1cd8:	29 f0       	breq	.+10     	; 0x1ce4 <onRequestService+0x16>
    return;
  }
  // reset tx buffer iterator vars
  // !!! this will kill any pending pre-master sendTo() activity
  txBufferIndex = 0;
    1cda:	10 92 16 01 	sts	0x0116, r1	; 0x800116 <txBufferIndex>
  txBufferLength = 0;
    1cde:	10 92 15 01 	sts	0x0115, r1	; 0x800115 <txBufferLength>
  // alert user program
  user_onRequest();
    1ce2:	09 94       	ijmp
}
    1ce4:	08 95       	ret

00001ce6 <twi_init_master>:
void onRequestService(void);
void onReceiveService(uint8_t*, int);

void twi_init_master(void)
{
  rxBufferIndex = 0;
    1ce6:	10 92 19 01 	sts	0x0119, r1	; 0x800119 <rxBufferIndex>
  rxBufferLength = 0;
    1cea:	10 92 18 01 	sts	0x0118, r1	; 0x800118 <rxBufferLength>

  txBufferIndex = 0;
    1cee:	10 92 16 01 	sts	0x0116, r1	; 0x800116 <txBufferIndex>
  txBufferLength = 0;
    1cf2:	10 92 15 01 	sts	0x0115, r1	; 0x800115 <txBufferLength>

  twi_init();
    1cf6:	0c 94 32 0f 	jmp	0x1e64	; 0x1e64 <twi_init>

00001cfa <twi_init_slave>:
}

void twi_init_slave(uint8_t address)
{
  twi_setAddress(address);
    1cfa:	0e 94 45 0f 	call	0x1e8a	; 0x1e8a <twi_setAddress>
  twi_attachSlaveTxEvent(onRequestService);
    1cfe:	87 e6       	ldi	r24, 0x67	; 103
    1d00:	9e e0       	ldi	r25, 0x0E	; 14
    1d02:	0e 94 e5 0f 	call	0x1fca	; 0x1fca <twi_attachSlaveTxEvent>
  twi_attachSlaveRxEvent(onReceiveService);
    1d06:	86 e3       	ldi	r24, 0x36	; 54
    1d08:	9e e0       	ldi	r25, 0x0E	; 14
    1d0a:	0e 94 e0 0f 	call	0x1fc0	; 0x1fc0 <twi_attachSlaveRxEvent>
void onRequestService(void);
void onReceiveService(uint8_t*, int);

void twi_init_master(void)
{
  rxBufferIndex = 0;
    1d0e:	10 92 19 01 	sts	0x0119, r1	; 0x800119 <rxBufferIndex>
  rxBufferLength = 0;
    1d12:	10 92 18 01 	sts	0x0118, r1	; 0x800118 <rxBufferLength>

  txBufferIndex = 0;
    1d16:	10 92 16 01 	sts	0x0116, r1	; 0x800116 <txBufferIndex>
  txBufferLength = 0;
    1d1a:	10 92 15 01 	sts	0x0115, r1	; 0x800115 <txBufferLength>

  twi_init();
    1d1e:	0c 94 32 0f 	jmp	0x1e64	; 0x1e64 <twi_init>

00001d22 <twi_request_from>:
  twi_attachSlaveRxEvent(onReceiveService);
  twi_init_master();
}

uint8_t twi_request_from(uint8_t address, uint8_t quantity)
{
    1d22:	46 2f       	mov	r20, r22
  // clamp to buffer length
  if(quantity > BUFFER_LENGTH){
    quantity = BUFFER_LENGTH;
  }
  // perform blocking read into buffer
  uint8_t read = twi_readFrom(address, rxBuffer, quantity);
    1d24:	61 32       	cpi	r22, 0x21	; 33
    1d26:	08 f0       	brcs	.+2      	; 0x1d2a <twi_request_from+0x8>
    1d28:	40 e2       	ldi	r20, 0x20	; 32
    1d2a:	67 e9       	ldi	r22, 0x97	; 151
    1d2c:	72 e0       	ldi	r23, 0x02	; 2
    1d2e:	0e 94 49 0f 	call	0x1e92	; 0x1e92 <twi_readFrom>
  // set rx buffer iterator vars
  rxBufferIndex = 0;
    1d32:	10 92 19 01 	sts	0x0119, r1	; 0x800119 <rxBufferIndex>
  rxBufferLength = read;
    1d36:	80 93 18 01 	sts	0x0118, r24	; 0x800118 <rxBufferLength>

  return read;
}
    1d3a:	08 95       	ret

00001d3c <twi_begin_transmission>:

void twi_begin_transmission(uint8_t address)
{
  // indicate that we are transmitting
  transmitting = 1;
    1d3c:	91 e0       	ldi	r25, 0x01	; 1
    1d3e:	90 93 14 01 	sts	0x0114, r25	; 0x800114 <transmitting>
  // set address of targeted slave
  txAddress = address;
    1d42:	80 93 17 01 	sts	0x0117, r24	; 0x800117 <txAddress>
  // reset tx buffer iterator vars
  txBufferIndex = 0;
    1d46:	10 92 16 01 	sts	0x0116, r1	; 0x800116 <txBufferIndex>
  txBufferLength = 0;
    1d4a:	10 92 15 01 	sts	0x0115, r1	; 0x800115 <txBufferLength>
}
    1d4e:	08 95       	ret

00001d50 <twi_end_transmission>:

uint8_t twi_end_transmission(void)
{
  // transmit buffer (blocking)
  int8_t ret = twi_writeTo(txAddress, txBuffer, txBufferLength, 1);
    1d50:	21 e0       	ldi	r18, 0x01	; 1
    1d52:	40 91 15 01 	lds	r20, 0x0115	; 0x800115 <txBufferLength>
    1d56:	67 eb       	ldi	r22, 0xB7	; 183
    1d58:	72 e0       	ldi	r23, 0x02	; 2
    1d5a:	80 91 17 01 	lds	r24, 0x0117	; 0x800117 <txAddress>
    1d5e:	0e 94 7f 0f 	call	0x1efe	; 0x1efe <twi_writeTo>
  // reset tx buffer iterator vars
  txBufferIndex = 0;
    1d62:	10 92 16 01 	sts	0x0116, r1	; 0x800116 <txBufferIndex>
  txBufferLength = 0;
    1d66:	10 92 15 01 	sts	0x0115, r1	; 0x800115 <txBufferLength>
  // indicate that we are done transmitting
  transmitting = 0;
    1d6a:	10 92 14 01 	sts	0x0114, r1	; 0x800114 <transmitting>
  return ret;
}
    1d6e:	08 95       	ret

00001d70 <twi_send_byte>:

// must be called in:
// slave tx event callback
// or after beginTransmission(address)
void twi_send_byte(uint8_t data)
{
    1d70:	cf 93       	push	r28
    1d72:	df 93       	push	r29
    1d74:	1f 92       	push	r1
    1d76:	cd b7       	in	r28, 0x3d	; 61
    1d78:	de b7       	in	r29, 0x3e	; 62
    1d7a:	89 83       	std	Y+1, r24	; 0x01
  if(transmitting){
    1d7c:	80 91 14 01 	lds	r24, 0x0114	; 0x800114 <transmitting>
    1d80:	88 23       	and	r24, r24
    1d82:	c9 f0       	breq	.+50     	; 0x1db6 <twi_send_byte+0x46>
  // in master transmitter mode
    // don't bother if buffer is full
    if(txBufferLength >= BUFFER_LENGTH){
    1d84:	80 91 15 01 	lds	r24, 0x0115	; 0x800115 <txBufferLength>
    1d88:	80 32       	cpi	r24, 0x20	; 32
    1d8a:	20 f0       	brcs	.+8      	; 0x1d94 <twi_send_byte+0x24>
  }else{
  // in slave send mode
    // reply to master
    twi_transmit(&data, 1);
  }
}
    1d8c:	0f 90       	pop	r0
    1d8e:	df 91       	pop	r29
    1d90:	cf 91       	pop	r28
    1d92:	08 95       	ret
    // don't bother if buffer is full
    if(txBufferLength >= BUFFER_LENGTH){
      return;
    }
    // put byte in tx buffer
    txBuffer[txBufferIndex] = data;
    1d94:	80 91 16 01 	lds	r24, 0x0116	; 0x800116 <txBufferIndex>
    1d98:	e8 2f       	mov	r30, r24
    1d9a:	f0 e0       	ldi	r31, 0x00	; 0
    1d9c:	e9 54       	subi	r30, 0x49	; 73
    1d9e:	fd 4f       	sbci	r31, 0xFD	; 253
    1da0:	99 81       	ldd	r25, Y+1	; 0x01
    1da2:	90 83       	st	Z, r25
    ++txBufferIndex;
    1da4:	8f 5f       	subi	r24, 0xFF	; 255
    1da6:	80 93 16 01 	sts	0x0116, r24	; 0x800116 <txBufferIndex>
    // update amount in buffer   
    txBufferLength = txBufferIndex;
    1daa:	80 93 15 01 	sts	0x0115, r24	; 0x800115 <txBufferLength>
  }else{
  // in slave send mode
    // reply to master
    twi_transmit(&data, 1);
  }
}
    1dae:	0f 90       	pop	r0
    1db0:	df 91       	pop	r29
    1db2:	cf 91       	pop	r28
    1db4:	08 95       	ret
    // update amount in buffer   
    txBufferLength = txBufferIndex;
  }else{
  // in slave send mode
    // reply to master
    twi_transmit(&data, 1);
    1db6:	61 e0       	ldi	r22, 0x01	; 1
    1db8:	ce 01       	movw	r24, r28
    1dba:	01 96       	adiw	r24, 0x01	; 1
    1dbc:	0e 94 c3 0f 	call	0x1f86	; 0x1f86 <twi_transmit>
  }
}
    1dc0:	0f 90       	pop	r0
    1dc2:	df 91       	pop	r29
    1dc4:	cf 91       	pop	r28
    1dc6:	08 95       	ret

00001dc8 <twi_send>:

// must be called in:
// slave tx event callback
// or after beginTransmission(address)
void twi_send(uint8_t* data, uint8_t quantity)
{
    1dc8:	0f 93       	push	r16
    1dca:	1f 93       	push	r17
    1dcc:	cf 93       	push	r28
    1dce:	df 93       	push	r29
  if(transmitting){
    1dd0:	20 91 14 01 	lds	r18, 0x0114	; 0x800114 <transmitting>
    1dd4:	22 23       	and	r18, r18
    1dd6:	a9 f0       	breq	.+42     	; 0x1e02 <twi_send+0x3a>
  // in master transmitter mode
    for(uint8_t i = 0; i < quantity; ++i){
    1dd8:	66 23       	and	r22, r22
    1dda:	71 f0       	breq	.+28     	; 0x1df8 <twi_send+0x30>
    1ddc:	06 2f       	mov	r16, r22
    1dde:	ec 01       	movw	r28, r24
    1de0:	01 50       	subi	r16, 0x01	; 1
    1de2:	08 0f       	add	r16, r24
    1de4:	19 2f       	mov	r17, r25
    1de6:	11 1d       	adc	r17, r1
    1de8:	0f 5f       	subi	r16, 0xFF	; 255
    1dea:	1f 4f       	sbci	r17, 0xFF	; 255
     twi_send_byte(data[i]);
    1dec:	89 91       	ld	r24, Y+
    1dee:	0e 94 b8 0e 	call	0x1d70	; 0x1d70 <twi_send_byte>
// or after beginTransmission(address)
void twi_send(uint8_t* data, uint8_t quantity)
{
  if(transmitting){
  // in master transmitter mode
    for(uint8_t i = 0; i < quantity; ++i){
    1df2:	c0 17       	cp	r28, r16
    1df4:	d1 07       	cpc	r29, r17
    1df6:	d1 f7       	brne	.-12     	; 0x1dec <twi_send+0x24>
  }else{
  // in slave send mode
    // reply to master
    twi_transmit(data, quantity);
  }
}
    1df8:	df 91       	pop	r29
    1dfa:	cf 91       	pop	r28
    1dfc:	1f 91       	pop	r17
    1dfe:	0f 91       	pop	r16
    1e00:	08 95       	ret
    1e02:	df 91       	pop	r29
    1e04:	cf 91       	pop	r28
    1e06:	1f 91       	pop	r17
    1e08:	0f 91       	pop	r16
     twi_send_byte(data[i]);
    }
  }else{
  // in slave send mode
    // reply to master
    twi_transmit(data, quantity);
    1e0a:	0c 94 c3 0f 	jmp	0x1f86	; 0x1f86 <twi_transmit>

00001e0e <twi_send_char>:
// must be called in:
// slave tx event callback
// or after beginTransmission(address)
void twi_send_char(char* data)
{
  twi_send((uint8_t*)data, strlen(data));
    1e0e:	fc 01       	movw	r30, r24
    1e10:	01 90       	ld	r0, Z+
    1e12:	00 20       	and	r0, r0
    1e14:	e9 f7       	brne	.-6      	; 0x1e10 <twi_send_char+0x2>
    1e16:	31 97       	sbiw	r30, 0x01	; 1
    1e18:	bf 01       	movw	r22, r30
    1e1a:	68 1b       	sub	r22, r24
    1e1c:	79 0b       	sbc	r23, r25
    1e1e:	0c 94 e4 0e 	jmp	0x1dc8	; 0x1dc8 <twi_send>

00001e22 <twi_available>:
// must be called in:
// slave rx event callback
// or after requestFrom(address, numBytes)
uint8_t twi_available(void)
{
  return rxBufferLength - rxBufferIndex;
    1e22:	80 91 18 01 	lds	r24, 0x0118	; 0x800118 <rxBufferLength>
    1e26:	90 91 19 01 	lds	r25, 0x0119	; 0x800119 <rxBufferIndex>
}
    1e2a:	89 1b       	sub	r24, r25
    1e2c:	08 95       	ret

00001e2e <twi_receive>:
  // default to returning null char
  // for people using with char strings
  uint8_t value = '\0';
  
  // get each successive byte on each call
  if(rxBufferIndex < rxBufferLength){
    1e2e:	90 91 19 01 	lds	r25, 0x0119	; 0x800119 <rxBufferIndex>
    1e32:	80 91 18 01 	lds	r24, 0x0118	; 0x800118 <rxBufferLength>
    1e36:	98 17       	cp	r25, r24
    1e38:	48 f4       	brcc	.+18     	; 0x1e4c <twi_receive+0x1e>
    value = rxBuffer[rxBufferIndex];
    1e3a:	e9 2f       	mov	r30, r25
    1e3c:	f0 e0       	ldi	r31, 0x00	; 0
    1e3e:	e9 56       	subi	r30, 0x69	; 105
    1e40:	fd 4f       	sbci	r31, 0xFD	; 253
    1e42:	80 81       	ld	r24, Z
    ++rxBufferIndex;
    1e44:	9f 5f       	subi	r25, 0xFF	; 255
    1e46:	90 93 19 01 	sts	0x0119, r25	; 0x800119 <rxBufferIndex>
    1e4a:	08 95       	ret
// or after requestFrom(address, numBytes)
uint8_t twi_receive(void)
{
  // default to returning null char
  // for people using with char strings
  uint8_t value = '\0';
    1e4c:	80 e0       	ldi	r24, 0x00	; 0
    value = rxBuffer[rxBufferIndex];
    ++rxBufferIndex;
  }

  return value;
}
    1e4e:	08 95       	ret

00001e50 <twi_set_on_receive>:
}

// sets function called on slave write
void twi_set_on_receive( void (*function)(int) )
{
  user_onReceive = function;
    1e50:	90 93 d8 02 	sts	0x02D8, r25	; 0x8002d8 <user_onReceive+0x1>
    1e54:	80 93 d7 02 	sts	0x02D7, r24	; 0x8002d7 <user_onReceive>
}
    1e58:	08 95       	ret

00001e5a <twi_set_on_request>:

// sets function called on slave read
void twi_set_on_request( void (*function)(void) )
{
  user_onRequest = function;
    1e5a:	90 93 96 02 	sts	0x0296, r25	; 0x800296 <user_onRequest+0x1>
    1e5e:	80 93 95 02 	sts	0x0295, r24	; 0x800295 <user_onRequest>
}
    1e62:	08 95       	ret

00001e64 <twi_init>:
 * Output   none
 */
void twi_init(void)
{
  // initialize state
  twi_state = TWI_READY;
    1e64:	10 92 85 01 	sts	0x0185, r1	; 0x800185 <twi_state>

  #if defined(__AVR_ATmega168__) || defined(__AVR_ATmega8__) || defined(__AVR_ATmega328P__)
    // activate internal pull-ups for twi
    // as per note from atmega8 manual pg167
    sbi(PORTC, 4);
    1e68:	44 9a       	sbi	0x08, 4	; 8
    sbi(PORTC, 5);
    1e6a:	45 9a       	sbi	0x08, 5	; 8
    sbi(PORTD, 0);
    sbi(PORTD, 1);
  #endif

  // initialize twi prescaler and bit rate
  cbi(TWSR, TWPS0);
    1e6c:	e9 eb       	ldi	r30, 0xB9	; 185
    1e6e:	f0 e0       	ldi	r31, 0x00	; 0
    1e70:	80 81       	ld	r24, Z
    1e72:	8e 7f       	andi	r24, 0xFE	; 254
    1e74:	80 83       	st	Z, r24
  cbi(TWSR, TWPS1);
    1e76:	80 81       	ld	r24, Z
    1e78:	8d 7f       	andi	r24, 0xFD	; 253
    1e7a:	80 83       	st	Z, r24
  TWBR = ((CPU_FREQ / TWI_FREQ) - 16) / 2;
    1e7c:	88 e4       	ldi	r24, 0x48	; 72
    1e7e:	80 93 b8 00 	sts	0x00B8, r24	; 0x8000b8 <__TEXT_REGION_LENGTH__+0x7f80b8>
  SCL Frequency = CPU Clock Frequency / (16 + (2 * TWBR))
  note: TWBR should be 10 or higher for master mode
  It is 72 for a 16mhz Wiring board with 100kHz TWI */

  // enable twi module, acks, and twi interrupt
  TWCR = _BV(TWEN) | _BV(TWIE) | _BV(TWEA);
    1e82:	85 e4       	ldi	r24, 0x45	; 69
    1e84:	80 93 bc 00 	sts	0x00BC, r24	; 0x8000bc <__TEXT_REGION_LENGTH__+0x7f80bc>
}
    1e88:	08 95       	ret

00001e8a <twi_setAddress>:
 * Output   none
 */
void twi_setAddress(uint8_t address)
{
  // set twi slave address (skip over TWGCE bit)
  TWAR = address << 1;
    1e8a:	88 0f       	add	r24, r24
    1e8c:	80 93 ba 00 	sts	0x00BA, r24	; 0x8000ba <__TEXT_REGION_LENGTH__+0x7f80ba>
}
    1e90:	08 95       	ret

00001e92 <twi_readFrom>:
uint8_t twi_readFrom(uint8_t address, uint8_t* data, uint8_t length)
{
  uint8_t i;

  // ensure data will fit into buffer
  if(TWI_BUFFER_LENGTH < length){
    1e92:	41 32       	cpi	r20, 0x21	; 33
    1e94:	78 f5       	brcc	.+94     	; 0x1ef4 <twi_readFrom+0x62>
    return 0;
  }

  // wait until twi is ready, become master receiver
  while(TWI_READY != twi_state){
    1e96:	90 91 85 01 	lds	r25, 0x0185	; 0x800185 <twi_state>
    1e9a:	91 11       	cpse	r25, r1
    1e9c:	fc cf       	rjmp	.-8      	; 0x1e96 <twi_readFrom+0x4>
    continue;
  }
  twi_state = TWI_MRX;
    1e9e:	91 e0       	ldi	r25, 0x01	; 1
    1ea0:	90 93 85 01 	sts	0x0185, r25	; 0x800185 <twi_state>
  // reset error state (0xFF.. no error occured)
  twi_error = 0xFF;
    1ea4:	9f ef       	ldi	r25, 0xFF	; 255
    1ea6:	90 93 1a 01 	sts	0x011A, r25	; 0x80011a <twi_error>

  // initialize buffer iteration vars
  twi_masterBufferIndex = 0;
    1eaa:	10 92 5f 01 	sts	0x015F, r1	; 0x80015f <twi_masterBufferIndex>
  twi_masterBufferLength = length-1;  // This is not intuitive, read on...
    1eae:	94 0f       	add	r25, r20
    1eb0:	90 93 5e 01 	sts	0x015E, r25	; 0x80015e <twi_masterBufferLength>
  // received, causing that NACK to be sent in response to receiving the last
  // expected byte of data.

  // build sla+w, slave device address + w bit
  twi_slarw = TW_READ;
  twi_slarw |= address << 1;
    1eb4:	88 0f       	add	r24, r24
    1eb6:	81 60       	ori	r24, 0x01	; 1
    1eb8:	80 93 84 01 	sts	0x0184, r24	; 0x800184 <twi_slarw>

  // send start condition
  TWCR = _BV(TWEN) | _BV(TWIE) | _BV(TWEA) | _BV(TWINT) | _BV(TWSTA);
    1ebc:	85 ee       	ldi	r24, 0xE5	; 229
    1ebe:	80 93 bc 00 	sts	0x00BC, r24	; 0x8000bc <__TEXT_REGION_LENGTH__+0x7f80bc>

  // wait for read operation to complete
  while(TWI_MRX == twi_state){
    1ec2:	80 91 85 01 	lds	r24, 0x0185	; 0x800185 <twi_state>
    1ec6:	81 30       	cpi	r24, 0x01	; 1
    1ec8:	e1 f3       	breq	.-8      	; 0x1ec2 <twi_readFrom+0x30>
    continue;
  }

  if (twi_masterBufferIndex < length)
    1eca:	80 91 5f 01 	lds	r24, 0x015F	; 0x80015f <twi_masterBufferIndex>
    1ece:	84 17       	cp	r24, r20
    1ed0:	98 f0       	brcs	.+38     	; 0x1ef8 <twi_readFrom+0x66>
    1ed2:	84 2f       	mov	r24, r20
    length = twi_masterBufferIndex;

  // copy twi buffer to data
  for(i = 0; i < length; ++i){
    1ed4:	88 23       	and	r24, r24
    1ed6:	71 f0       	breq	.+28     	; 0x1ef4 <twi_readFrom+0x62>
    1ed8:	e0 e6       	ldi	r30, 0x60	; 96
    1eda:	f1 e0       	ldi	r31, 0x01	; 1
    1edc:	db 01       	movw	r26, r22
    1ede:	2f ef       	ldi	r18, 0xFF	; 255
    1ee0:	28 0f       	add	r18, r24
    1ee2:	30 e0       	ldi	r19, 0x00	; 0
    1ee4:	2f 59       	subi	r18, 0x9F	; 159
    1ee6:	3e 4f       	sbci	r19, 0xFE	; 254
    data[i] = twi_masterBuffer[i];
    1ee8:	91 91       	ld	r25, Z+
    1eea:	9d 93       	st	X+, r25

  if (twi_masterBufferIndex < length)
    length = twi_masterBufferIndex;

  // copy twi buffer to data
  for(i = 0; i < length; ++i){
    1eec:	e2 17       	cp	r30, r18
    1eee:	f3 07       	cpc	r31, r19
    1ef0:	d9 f7       	brne	.-10     	; 0x1ee8 <twi_readFrom+0x56>
    1ef2:	08 95       	ret
{
  uint8_t i;

  // ensure data will fit into buffer
  if(TWI_BUFFER_LENGTH < length){
    return 0;
    1ef4:	80 e0       	ldi	r24, 0x00	; 0
  for(i = 0; i < length; ++i){
    data[i] = twi_masterBuffer[i];
  }
	
  return length;
}
    1ef6:	08 95       	ret
  while(TWI_MRX == twi_state){
    continue;
  }

  if (twi_masterBufferIndex < length)
    length = twi_masterBufferIndex;
    1ef8:	80 91 5f 01 	lds	r24, 0x015F	; 0x80015f <twi_masterBufferIndex>
    1efc:	eb cf       	rjmp	.-42     	; 0x1ed4 <twi_readFrom+0x42>

00001efe <twi_writeTo>:
uint8_t twi_writeTo(uint8_t address, uint8_t* data, uint8_t length, uint8_t wait)
{
  uint8_t i;

  // ensure data will fit into buffer
  if(TWI_BUFFER_LENGTH < length){
    1efe:	41 32       	cpi	r20, 0x21	; 33
    1f00:	d0 f5       	brcc	.+116    	; 0x1f76 <twi_writeTo+0x78>
    return 1;
  }

  // wait until twi is ready, become master transmitter
  while(TWI_READY != twi_state){
    1f02:	90 91 85 01 	lds	r25, 0x0185	; 0x800185 <twi_state>
    1f06:	91 11       	cpse	r25, r1
    1f08:	fc cf       	rjmp	.-8      	; 0x1f02 <twi_writeTo+0x4>
    continue;
  }
  twi_state = TWI_MTX;
    1f0a:	92 e0       	ldi	r25, 0x02	; 2
    1f0c:	90 93 85 01 	sts	0x0185, r25	; 0x800185 <twi_state>
  // reset error state (0xFF.. no error occured)
  twi_error = 0xFF;
    1f10:	9f ef       	ldi	r25, 0xFF	; 255
    1f12:	90 93 1a 01 	sts	0x011A, r25	; 0x80011a <twi_error>

  // initialize buffer iteration vars
  twi_masterBufferIndex = 0;
    1f16:	10 92 5f 01 	sts	0x015F, r1	; 0x80015f <twi_masterBufferIndex>
  twi_masterBufferLength = length;
    1f1a:	40 93 5e 01 	sts	0x015E, r20	; 0x80015e <twi_masterBufferLength>
  
  // copy data to twi buffer
  for(i = 0; i < length; ++i){
    1f1e:	44 23       	and	r20, r20
    1f20:	71 f0       	breq	.+28     	; 0x1f3e <twi_writeTo+0x40>
    1f22:	fb 01       	movw	r30, r22
    1f24:	a0 e6       	ldi	r26, 0x60	; 96
    1f26:	b1 e0       	ldi	r27, 0x01	; 1
    1f28:	6f 5f       	subi	r22, 0xFF	; 255
    1f2a:	7f 4f       	sbci	r23, 0xFF	; 255
    1f2c:	41 50       	subi	r20, 0x01	; 1
    1f2e:	46 0f       	add	r20, r22
    1f30:	57 2f       	mov	r21, r23
    1f32:	51 1d       	adc	r21, r1
    twi_masterBuffer[i] = data[i];
    1f34:	91 91       	ld	r25, Z+
    1f36:	9d 93       	st	X+, r25
  // initialize buffer iteration vars
  twi_masterBufferIndex = 0;
  twi_masterBufferLength = length;
  
  // copy data to twi buffer
  for(i = 0; i < length; ++i){
    1f38:	e4 17       	cp	r30, r20
    1f3a:	f5 07       	cpc	r31, r21
    1f3c:	d9 f7       	brne	.-10     	; 0x1f34 <twi_writeTo+0x36>
    twi_masterBuffer[i] = data[i];
  }
  
  // build sla+w, slave device address + w bit
  twi_slarw = TW_WRITE;
  twi_slarw |= address << 1;
    1f3e:	90 e0       	ldi	r25, 0x00	; 0
    1f40:	88 0f       	add	r24, r24
    1f42:	99 1f       	adc	r25, r25
    1f44:	80 93 84 01 	sts	0x0184, r24	; 0x800184 <twi_slarw>
  
  // send start condition
  TWCR = _BV(TWEN) | _BV(TWIE) | _BV(TWEA) | _BV(TWINT) | _BV(TWSTA);
    1f48:	85 ee       	ldi	r24, 0xE5	; 229
    1f4a:	80 93 bc 00 	sts	0x00BC, r24	; 0x8000bc <__TEXT_REGION_LENGTH__+0x7f80bc>

  // wait for write operation to complete
  while(wait && (TWI_MTX == twi_state)){
    1f4e:	22 23       	and	r18, r18
    1f50:	21 f0       	breq	.+8      	; 0x1f5a <twi_writeTo+0x5c>
    1f52:	80 91 85 01 	lds	r24, 0x0185	; 0x800185 <twi_state>
    1f56:	82 30       	cpi	r24, 0x02	; 2
    1f58:	e1 f3       	breq	.-8      	; 0x1f52 <twi_writeTo+0x54>
    continue;
  }
  
  if (twi_error == 0xFF)
    1f5a:	80 91 1a 01 	lds	r24, 0x011A	; 0x80011a <twi_error>
    1f5e:	8f 3f       	cpi	r24, 0xFF	; 255
    1f60:	61 f0       	breq	.+24     	; 0x1f7a <twi_writeTo+0x7c>
    return 0;	// success
  else if (twi_error == TW_MT_SLA_NACK)
    1f62:	80 91 1a 01 	lds	r24, 0x011A	; 0x80011a <twi_error>
    1f66:	80 32       	cpi	r24, 0x20	; 32
    1f68:	61 f0       	breq	.+24     	; 0x1f82 <twi_writeTo+0x84>
    return 2;	// error: address send, nack received
  else if (twi_error == TW_MT_DATA_NACK)
    1f6a:	80 91 1a 01 	lds	r24, 0x011A	; 0x80011a <twi_error>
    1f6e:	80 33       	cpi	r24, 0x30	; 48
    1f70:	31 f0       	breq	.+12     	; 0x1f7e <twi_writeTo+0x80>
    return 3;	// error: data send, nack received
  else
    return 4;	// other twi error
    1f72:	84 e0       	ldi	r24, 0x04	; 4
    1f74:	08 95       	ret
{
  uint8_t i;

  // ensure data will fit into buffer
  if(TWI_BUFFER_LENGTH < length){
    return 1;
    1f76:	81 e0       	ldi	r24, 0x01	; 1
    1f78:	08 95       	ret
  while(wait && (TWI_MTX == twi_state)){
    continue;
  }
  
  if (twi_error == 0xFF)
    return 0;	// success
    1f7a:	80 e0       	ldi	r24, 0x00	; 0
    1f7c:	08 95       	ret
  else if (twi_error == TW_MT_SLA_NACK)
    return 2;	// error: address send, nack received
  else if (twi_error == TW_MT_DATA_NACK)
    return 3;	// error: data send, nack received
    1f7e:	83 e0       	ldi	r24, 0x03	; 3
  else
    return 4;	// other twi error
}
    1f80:	08 95       	ret
  }
  
  if (twi_error == 0xFF)
    return 0;	// success
  else if (twi_error == TW_MT_SLA_NACK)
    return 2;	// error: address send, nack received
    1f82:	82 e0       	ldi	r24, 0x02	; 2
    1f84:	08 95       	ret

00001f86 <twi_transmit>:
uint8_t twi_transmit(uint8_t* data, uint8_t length)
{
  uint8_t i;

  // ensure data will fit into buffer
  if(TWI_BUFFER_LENGTH < length){
    1f86:	61 32       	cpi	r22, 0x21	; 33
    1f88:	c8 f4       	brcc	.+50     	; 0x1fbc <twi_transmit+0x36>
    return 1;
  }
  
  // ensure we are currently a slave transmitter
  if(TWI_STX != twi_state){
    1f8a:	20 91 85 01 	lds	r18, 0x0185	; 0x800185 <twi_state>
    1f8e:	24 30       	cpi	r18, 0x04	; 4
    1f90:	99 f4       	brne	.+38     	; 0x1fb8 <twi_transmit+0x32>
    return 2;
  }
  
  // set length and copy data into tx buffer
  twi_txBufferLength = length;
    1f92:	60 93 3c 01 	sts	0x013C, r22	; 0x80013c <twi_txBufferLength>
  for(i = 0; i < length; ++i){
    1f96:	66 23       	and	r22, r22
    1f98:	69 f0       	breq	.+26     	; 0x1fb4 <twi_transmit+0x2e>
    1f9a:	fc 01       	movw	r30, r24
    1f9c:	ae e3       	ldi	r26, 0x3E	; 62
    1f9e:	b1 e0       	ldi	r27, 0x01	; 1
    1fa0:	01 96       	adiw	r24, 0x01	; 1
    1fa2:	61 50       	subi	r22, 0x01	; 1
    1fa4:	68 0f       	add	r22, r24
    1fa6:	79 2f       	mov	r23, r25
    1fa8:	71 1d       	adc	r23, r1
    twi_txBuffer[i] = data[i];
    1faa:	81 91       	ld	r24, Z+
    1fac:	8d 93       	st	X+, r24
    return 2;
  }
  
  // set length and copy data into tx buffer
  twi_txBufferLength = length;
  for(i = 0; i < length; ++i){
    1fae:	e6 17       	cp	r30, r22
    1fb0:	f7 07       	cpc	r31, r23
    1fb2:	d9 f7       	brne	.-10     	; 0x1faa <twi_transmit+0x24>
    twi_txBuffer[i] = data[i];
  }
  
  return 0;
    1fb4:	80 e0       	ldi	r24, 0x00	; 0
    1fb6:	08 95       	ret
    return 1;
  }
  
  // ensure we are currently a slave transmitter
  if(TWI_STX != twi_state){
    return 2;
    1fb8:	82 e0       	ldi	r24, 0x02	; 2
  for(i = 0; i < length; ++i){
    twi_txBuffer[i] = data[i];
  }
  
  return 0;
}
    1fba:	08 95       	ret
{
  uint8_t i;

  // ensure data will fit into buffer
  if(TWI_BUFFER_LENGTH < length){
    return 1;
    1fbc:	81 e0       	ldi	r24, 0x01	; 1
    1fbe:	08 95       	ret

00001fc0 <twi_attachSlaveRxEvent>:
 * Input    function: callback function to use
 * Output   none
 */
void twi_attachSlaveRxEvent( void (*function)(uint8_t*, int) )
{
  twi_onSlaveReceive = function;
    1fc0:	90 93 81 01 	sts	0x0181, r25	; 0x800181 <twi_onSlaveReceive+0x1>
    1fc4:	80 93 80 01 	sts	0x0180, r24	; 0x800180 <twi_onSlaveReceive>
}
    1fc8:	08 95       	ret

00001fca <twi_attachSlaveTxEvent>:
 * Input    function: callback function to use
 * Output   none
 */
void twi_attachSlaveTxEvent( void (*function)(void) )
{
  twi_onSlaveTransmit = function;
    1fca:	90 93 83 01 	sts	0x0183, r25	; 0x800183 <twi_onSlaveTransmit+0x1>
    1fce:	80 93 82 01 	sts	0x0182, r24	; 0x800182 <twi_onSlaveTransmit>
}
    1fd2:	08 95       	ret

00001fd4 <twi_reply>:
 * Output   none
 */
void twi_reply(uint8_t ack)
{
  // transmit master read ready signal, with or without ack
  if(ack){
    1fd4:	81 11       	cpse	r24, r1
    1fd6:	04 c0       	rjmp	.+8      	; 0x1fe0 <twi_reply+0xc>
    TWCR = _BV(TWEN) | _BV(TWIE) | _BV(TWINT) | _BV(TWEA);
  }else{
	  TWCR = _BV(TWEN) | _BV(TWIE) | _BV(TWINT);
    1fd8:	85 e8       	ldi	r24, 0x85	; 133
    1fda:	80 93 bc 00 	sts	0x00BC, r24	; 0x8000bc <__TEXT_REGION_LENGTH__+0x7f80bc>
  }
}
    1fde:	08 95       	ret
 */
void twi_reply(uint8_t ack)
{
  // transmit master read ready signal, with or without ack
  if(ack){
    TWCR = _BV(TWEN) | _BV(TWIE) | _BV(TWINT) | _BV(TWEA);
    1fe0:	85 ec       	ldi	r24, 0xC5	; 197
    1fe2:	80 93 bc 00 	sts	0x00BC, r24	; 0x8000bc <__TEXT_REGION_LENGTH__+0x7f80bc>
    1fe6:	08 95       	ret

00001fe8 <twi_stop>:
 * Output   none
 */
void twi_stop(void)
{
  // send stop condition
  TWCR = _BV(TWEN) | _BV(TWIE) | _BV(TWEA) | _BV(TWINT) | _BV(TWSTO);
    1fe8:	85 ed       	ldi	r24, 0xD5	; 213
    1fea:	80 93 bc 00 	sts	0x00BC, r24	; 0x8000bc <__TEXT_REGION_LENGTH__+0x7f80bc>

  // wait for stop condition to be exectued on bus
  // TWINT is not set after a stop condition!
  while(TWCR & _BV(TWSTO)){
    1fee:	80 91 bc 00 	lds	r24, 0x00BC	; 0x8000bc <__TEXT_REGION_LENGTH__+0x7f80bc>
    1ff2:	84 fd       	sbrc	r24, 4
    1ff4:	fc cf       	rjmp	.-8      	; 0x1fee <twi_stop+0x6>
    continue;
  }

  // update twi state
  twi_state = TWI_READY;
    1ff6:	10 92 85 01 	sts	0x0185, r1	; 0x800185 <twi_state>
}
    1ffa:	08 95       	ret

00001ffc <twi_releaseBus>:
 * Output   none
 */
void twi_releaseBus(void)
{
  // release bus
  TWCR = _BV(TWEN) | _BV(TWIE) | _BV(TWEA) | _BV(TWINT);
    1ffc:	85 ec       	ldi	r24, 0xC5	; 197
    1ffe:	80 93 bc 00 	sts	0x00BC, r24	; 0x8000bc <__TEXT_REGION_LENGTH__+0x7f80bc>

  // update twi state
  twi_state = TWI_READY;
    2002:	10 92 85 01 	sts	0x0185, r1	; 0x800185 <twi_state>
}
    2006:	08 95       	ret

00002008 <__vector_24>:
    2008:	1f 92       	push	r1
    200a:	0f 92       	push	r0
    200c:	0f b6       	in	r0, 0x3f	; 63
    200e:	0f 92       	push	r0
    2010:	11 24       	eor	r1, r1
    2012:	2f 93       	push	r18
    2014:	3f 93       	push	r19
    2016:	4f 93       	push	r20
    2018:	5f 93       	push	r21
    201a:	6f 93       	push	r22
    201c:	7f 93       	push	r23
    201e:	8f 93       	push	r24
    2020:	9f 93       	push	r25
    2022:	af 93       	push	r26
    2024:	bf 93       	push	r27
    2026:	ef 93       	push	r30
    2028:	ff 93       	push	r31
    202a:	e0 91 b9 00 	lds	r30, 0x00B9	; 0x8000b9 <__TEXT_REGION_LENGTH__+0x7f80b9>
    202e:	e8 7f       	andi	r30, 0xF8	; 248
    2030:	e9 3c       	cpi	r30, 0xC9	; 201
    2032:	08 f0       	brcs	.+2      	; 0x2036 <__vector_24+0x2e>
    2034:	e3 c0       	rjmp	.+454    	; 0x21fc <__vector_24+0x1f4>
    2036:	f0 e0       	ldi	r31, 0x00	; 0
    2038:	e0 5e       	subi	r30, 0xE0	; 224
    203a:	ff 4e       	sbci	r31, 0xEF	; 239
    203c:	0c 94 52 14 	jmp	0x28a4	; 0x28a4 <__tablejump2__>
    2040:	66 11       	cpse	r22, r6
    2042:	fe 10       	cpse	r15, r14
    2044:	fe 10       	cpse	r15, r14
    2046:	fe 10       	cpse	r15, r14
    2048:	fe 10       	cpse	r15, r14
    204a:	fe 10       	cpse	r15, r14
    204c:	fe 10       	cpse	r15, r14
    204e:	fe 10       	cpse	r15, r14
    2050:	70 11       	cpse	r23, r0
    2052:	fe 10       	cpse	r15, r14
    2054:	fe 10       	cpse	r15, r14
    2056:	fe 10       	cpse	r15, r14
    2058:	fe 10       	cpse	r15, r14
    205a:	fe 10       	cpse	r15, r14
    205c:	fe 10       	cpse	r15, r14
    205e:	fe 10       	cpse	r15, r14
    2060:	70 11       	cpse	r23, r0
    2062:	fe 10       	cpse	r15, r14
    2064:	fe 10       	cpse	r15, r14
    2066:	fe 10       	cpse	r15, r14
    2068:	fe 10       	cpse	r15, r14
    206a:	fe 10       	cpse	r15, r14
    206c:	fe 10       	cpse	r15, r14
    206e:	fe 10       	cpse	r15, r14
    2070:	78 11       	cpse	r23, r8
    2072:	fe 10       	cpse	r15, r14
    2074:	fe 10       	cpse	r15, r14
    2076:	fe 10       	cpse	r15, r14
    2078:	fe 10       	cpse	r15, r14
    207a:	fe 10       	cpse	r15, r14
    207c:	fe 10       	cpse	r15, r14
    207e:	fe 10       	cpse	r15, r14
    2080:	87 11       	cpse	r24, r7
    2082:	fe 10       	cpse	r15, r14
    2084:	fe 10       	cpse	r15, r14
    2086:	fe 10       	cpse	r15, r14
    2088:	fe 10       	cpse	r15, r14
    208a:	fe 10       	cpse	r15, r14
    208c:	fe 10       	cpse	r15, r14
    208e:	fe 10       	cpse	r15, r14
    2090:	78 11       	cpse	r23, r8
    2092:	fe 10       	cpse	r15, r14
    2094:	fe 10       	cpse	r15, r14
    2096:	fe 10       	cpse	r15, r14
    2098:	fe 10       	cpse	r15, r14
    209a:	fe 10       	cpse	r15, r14
    209c:	fe 10       	cpse	r15, r14
    209e:	fe 10       	cpse	r15, r14
    20a0:	b2 11       	cpse	r27, r2
    20a2:	fe 10       	cpse	r15, r14
    20a4:	fe 10       	cpse	r15, r14
    20a6:	fe 10       	cpse	r15, r14
    20a8:	fe 10       	cpse	r15, r14
    20aa:	fe 10       	cpse	r15, r14
    20ac:	fe 10       	cpse	r15, r14
    20ae:	fe 10       	cpse	r15, r14
    20b0:	bd 11       	cpse	r27, r13
    20b2:	fe 10       	cpse	r15, r14
    20b4:	fe 10       	cpse	r15, r14
    20b6:	fe 10       	cpse	r15, r14
    20b8:	fe 10       	cpse	r15, r14
    20ba:	fe 10       	cpse	r15, r14
    20bc:	fe 10       	cpse	r15, r14
    20be:	fe 10       	cpse	r15, r14
    20c0:	4f 11       	cpse	r20, r15
    20c2:	fe 10       	cpse	r15, r14
    20c4:	fe 10       	cpse	r15, r14
    20c6:	fe 10       	cpse	r15, r14
    20c8:	fe 10       	cpse	r15, r14
    20ca:	fe 10       	cpse	r15, r14
    20cc:	fe 10       	cpse	r15, r14
    20ce:	fe 10       	cpse	r15, r14
    20d0:	f5 10       	cpse	r15, r5
    20d2:	fe 10       	cpse	r15, r14
    20d4:	fe 10       	cpse	r15, r14
    20d6:	fe 10       	cpse	r15, r14
    20d8:	fe 10       	cpse	r15, r14
    20da:	fe 10       	cpse	r15, r14
    20dc:	fe 10       	cpse	r15, r14
    20de:	fe 10       	cpse	r15, r14
    20e0:	43 11       	cpse	r20, r3
    20e2:	fe 10       	cpse	r15, r14
    20e4:	fe 10       	cpse	r15, r14
    20e6:	fe 10       	cpse	r15, r14
    20e8:	fe 10       	cpse	r15, r14
    20ea:	fe 10       	cpse	r15, r14
    20ec:	fe 10       	cpse	r15, r14
    20ee:	fe 10       	cpse	r15, r14
    20f0:	e9 10       	cpse	r14, r9
    20f2:	fe 10       	cpse	r15, r14
    20f4:	fe 10       	cpse	r15, r14
    20f6:	fe 10       	cpse	r15, r14
    20f8:	fe 10       	cpse	r15, r14
    20fa:	fe 10       	cpse	r15, r14
    20fc:	fe 10       	cpse	r15, r14
    20fe:	fe 10       	cpse	r15, r14
    2100:	5d 11       	cpse	r21, r13
    2102:	fe 10       	cpse	r15, r14
    2104:	fe 10       	cpse	r15, r14
    2106:	fe 10       	cpse	r15, r14
    2108:	fe 10       	cpse	r15, r14
    210a:	fe 10       	cpse	r15, r14
    210c:	fe 10       	cpse	r15, r14
    210e:	fe 10       	cpse	r15, r14
    2110:	5d 11       	cpse	r21, r13
    2112:	fe 10       	cpse	r15, r14
    2114:	fe 10       	cpse	r15, r14
    2116:	fe 10       	cpse	r15, r14
    2118:	fe 10       	cpse	r15, r14
    211a:	fe 10       	cpse	r15, r14
    211c:	fe 10       	cpse	r15, r14
    211e:	fe 10       	cpse	r15, r14
    2120:	5d 11       	cpse	r21, r13
    2122:	fe 10       	cpse	r15, r14
    2124:	fe 10       	cpse	r15, r14
    2126:	fe 10       	cpse	r15, r14
    2128:	fe 10       	cpse	r15, r14
    212a:	fe 10       	cpse	r15, r14
    212c:	fe 10       	cpse	r15, r14
    212e:	fe 10       	cpse	r15, r14
    2130:	5d 11       	cpse	r21, r13
    2132:	fe 10       	cpse	r15, r14
    2134:	fe 10       	cpse	r15, r14
    2136:	fe 10       	cpse	r15, r14
    2138:	fe 10       	cpse	r15, r14
    213a:	fe 10       	cpse	r15, r14
    213c:	fe 10       	cpse	r15, r14
    213e:	fe 10       	cpse	r15, r14
    2140:	0f 11       	cpse	r16, r15
    2142:	fe 10       	cpse	r15, r14
    2144:	fe 10       	cpse	r15, r14
    2146:	fe 10       	cpse	r15, r14
    2148:	fe 10       	cpse	r15, r14
    214a:	fe 10       	cpse	r15, r14
    214c:	fe 10       	cpse	r15, r14
    214e:	fe 10       	cpse	r15, r14
    2150:	14 11       	cpse	r17, r4
    2152:	fe 10       	cpse	r15, r14
    2154:	fe 10       	cpse	r15, r14
    2156:	fe 10       	cpse	r15, r14
    2158:	fe 10       	cpse	r15, r14
    215a:	fe 10       	cpse	r15, r14
    215c:	fe 10       	cpse	r15, r14
    215e:	fe 10       	cpse	r15, r14
    2160:	0f 11       	cpse	r16, r15
    2162:	fe 10       	cpse	r15, r14
    2164:	fe 10       	cpse	r15, r14
    2166:	fe 10       	cpse	r15, r14
    2168:	fe 10       	cpse	r15, r14
    216a:	fe 10       	cpse	r15, r14
    216c:	fe 10       	cpse	r15, r14
    216e:	fe 10       	cpse	r15, r14
    2170:	14 11       	cpse	r17, r4
    2172:	fe 10       	cpse	r15, r14
    2174:	fe 10       	cpse	r15, r14
    2176:	fe 10       	cpse	r15, r14
    2178:	fe 10       	cpse	r15, r14
    217a:	fe 10       	cpse	r15, r14
    217c:	fe 10       	cpse	r15, r14
    217e:	fe 10       	cpse	r15, r14
    2180:	92 11       	cpse	r25, r2
    2182:	fe 10       	cpse	r15, r14
    2184:	fe 10       	cpse	r15, r14
    2186:	fe 10       	cpse	r15, r14
    2188:	fe 10       	cpse	r15, r14
    218a:	fe 10       	cpse	r15, r14
    218c:	fe 10       	cpse	r15, r14
    218e:	fe 10       	cpse	r15, r14
    2190:	18 11       	cpse	r17, r8
    2192:	fe 10       	cpse	r15, r14
    2194:	fe 10       	cpse	r15, r14
    2196:	fe 10       	cpse	r15, r14
    2198:	fe 10       	cpse	r15, r14
    219a:	fe 10       	cpse	r15, r14
    219c:	fe 10       	cpse	r15, r14
    219e:	fe 10       	cpse	r15, r14
    21a0:	18 11       	cpse	r17, r8
    21a2:	fe 10       	cpse	r15, r14
    21a4:	fe 10       	cpse	r15, r14
    21a6:	fe 10       	cpse	r15, r14
    21a8:	fe 10       	cpse	r15, r14
    21aa:	fe 10       	cpse	r15, r14
    21ac:	fe 10       	cpse	r15, r14
    21ae:	fe 10       	cpse	r15, r14
    21b0:	2d 11       	cpse	r18, r13
    21b2:	fe 10       	cpse	r15, r14
    21b4:	fe 10       	cpse	r15, r14
    21b6:	fe 10       	cpse	r15, r14
    21b8:	fe 10       	cpse	r15, r14
    21ba:	fe 10       	cpse	r15, r14
    21bc:	fe 10       	cpse	r15, r14
    21be:	fe 10       	cpse	r15, r14
    21c0:	57 11       	cpse	r21, r7
    21c2:	fe 10       	cpse	r15, r14
    21c4:	fe 10       	cpse	r15, r14
    21c6:	fe 10       	cpse	r15, r14
    21c8:	fe 10       	cpse	r15, r14
    21ca:	fe 10       	cpse	r15, r14
    21cc:	fe 10       	cpse	r15, r14
    21ce:	fe 10       	cpse	r15, r14
    21d0:	57 11       	cpse	r21, r7
    21d2:	e0 91 5f 01 	lds	r30, 0x015F	; 0x80015f <twi_masterBufferIndex>
    21d6:	81 e0       	ldi	r24, 0x01	; 1
    21d8:	8e 0f       	add	r24, r30
    21da:	80 93 5f 01 	sts	0x015F, r24	; 0x80015f <twi_masterBufferIndex>
    21de:	80 91 bb 00 	lds	r24, 0x00BB	; 0x8000bb <__TEXT_REGION_LENGTH__+0x7f80bb>
    21e2:	f0 e0       	ldi	r31, 0x00	; 0
    21e4:	e0 5a       	subi	r30, 0xA0	; 160
    21e6:	fe 4f       	sbci	r31, 0xFE	; 254
    21e8:	80 83       	st	Z, r24
    21ea:	85 ed       	ldi	r24, 0xD5	; 213
    21ec:	80 93 bc 00 	sts	0x00BC, r24	; 0x8000bc <__TEXT_REGION_LENGTH__+0x7f80bc>
    21f0:	80 91 bc 00 	lds	r24, 0x00BC	; 0x8000bc <__TEXT_REGION_LENGTH__+0x7f80bc>
    21f4:	84 fd       	sbrc	r24, 4
    21f6:	fc cf       	rjmp	.-8      	; 0x21f0 <__vector_24+0x1e8>
    21f8:	10 92 85 01 	sts	0x0185, r1	; 0x800185 <twi_state>
    21fc:	ff 91       	pop	r31
    21fe:	ef 91       	pop	r30
    2200:	bf 91       	pop	r27
    2202:	af 91       	pop	r26
    2204:	9f 91       	pop	r25
    2206:	8f 91       	pop	r24
    2208:	7f 91       	pop	r23
    220a:	6f 91       	pop	r22
    220c:	5f 91       	pop	r21
    220e:	4f 91       	pop	r20
    2210:	3f 91       	pop	r19
    2212:	2f 91       	pop	r18
    2214:	0f 90       	pop	r0
    2216:	0f be       	out	0x3f, r0	; 63
    2218:	0f 90       	pop	r0
    221a:	1f 90       	pop	r1
    221c:	18 95       	reti
    221e:	80 91 1b 01 	lds	r24, 0x011B	; 0x80011b <twi_rxBufferIndex>
    2222:	80 32       	cpi	r24, 0x20	; 32
    2224:	08 f4       	brcc	.+2      	; 0x2228 <__vector_24+0x220>
    2226:	b2 c0       	rjmp	.+356    	; 0x238c <__vector_24+0x384>
    2228:	85 e8       	ldi	r24, 0x85	; 133
    222a:	80 93 bc 00 	sts	0x00BC, r24	; 0x8000bc <__TEXT_REGION_LENGTH__+0x7f80bc>
    222e:	e6 cf       	rjmp	.-52     	; 0x21fc <__vector_24+0x1f4>
    2230:	84 e0       	ldi	r24, 0x04	; 4
    2232:	80 93 85 01 	sts	0x0185, r24	; 0x800185 <twi_state>
    2236:	10 92 3d 01 	sts	0x013D, r1	; 0x80013d <twi_txBufferIndex>
    223a:	10 92 3c 01 	sts	0x013C, r1	; 0x80013c <twi_txBufferLength>
    223e:	e0 91 82 01 	lds	r30, 0x0182	; 0x800182 <twi_onSlaveTransmit>
    2242:	f0 91 83 01 	lds	r31, 0x0183	; 0x800183 <twi_onSlaveTransmit+0x1>
    2246:	09 95       	icall
    2248:	80 91 3c 01 	lds	r24, 0x013C	; 0x80013c <twi_txBufferLength>
    224c:	81 11       	cpse	r24, r1
    224e:	05 c0       	rjmp	.+10     	; 0x225a <__vector_24+0x252>
    2250:	81 e0       	ldi	r24, 0x01	; 1
    2252:	80 93 3c 01 	sts	0x013C, r24	; 0x80013c <twi_txBufferLength>
    2256:	10 92 3e 01 	sts	0x013E, r1	; 0x80013e <twi_txBuffer>
    225a:	e0 91 3d 01 	lds	r30, 0x013D	; 0x80013d <twi_txBufferIndex>
    225e:	81 e0       	ldi	r24, 0x01	; 1
    2260:	8e 0f       	add	r24, r30
    2262:	80 93 3d 01 	sts	0x013D, r24	; 0x80013d <twi_txBufferIndex>
    2266:	f0 e0       	ldi	r31, 0x00	; 0
    2268:	e2 5c       	subi	r30, 0xC2	; 194
    226a:	fe 4f       	sbci	r31, 0xFE	; 254
    226c:	80 81       	ld	r24, Z
    226e:	80 93 bb 00 	sts	0x00BB, r24	; 0x8000bb <__TEXT_REGION_LENGTH__+0x7f80bb>
    2272:	90 91 3d 01 	lds	r25, 0x013D	; 0x80013d <twi_txBufferIndex>
    2276:	80 91 3c 01 	lds	r24, 0x013C	; 0x80013c <twi_txBufferLength>
    227a:	98 17       	cp	r25, r24
    227c:	a8 f6       	brcc	.-86     	; 0x2228 <__vector_24+0x220>
    227e:	85 ec       	ldi	r24, 0xC5	; 197
    2280:	80 93 bc 00 	sts	0x00BC, r24	; 0x8000bc <__TEXT_REGION_LENGTH__+0x7f80bc>
    2284:	bb cf       	rjmp	.-138    	; 0x21fc <__vector_24+0x1f4>
    2286:	e0 91 5f 01 	lds	r30, 0x015F	; 0x80015f <twi_masterBufferIndex>
    228a:	81 e0       	ldi	r24, 0x01	; 1
    228c:	8e 0f       	add	r24, r30
    228e:	80 93 5f 01 	sts	0x015F, r24	; 0x80015f <twi_masterBufferIndex>
    2292:	80 91 bb 00 	lds	r24, 0x00BB	; 0x8000bb <__TEXT_REGION_LENGTH__+0x7f80bb>
    2296:	f0 e0       	ldi	r31, 0x00	; 0
    2298:	e0 5a       	subi	r30, 0xA0	; 160
    229a:	fe 4f       	sbci	r31, 0xFE	; 254
    229c:	80 83       	st	Z, r24
    229e:	90 91 5f 01 	lds	r25, 0x015F	; 0x80015f <twi_masterBufferIndex>
    22a2:	80 91 5e 01 	lds	r24, 0x015E	; 0x80015e <twi_masterBufferLength>
    22a6:	98 17       	cp	r25, r24
    22a8:	08 f0       	brcs	.+2      	; 0x22ac <__vector_24+0x2a4>
    22aa:	be cf       	rjmp	.-132    	; 0x2228 <__vector_24+0x220>
    22ac:	e8 cf       	rjmp	.-48     	; 0x227e <__vector_24+0x276>
    22ae:	85 ec       	ldi	r24, 0xC5	; 197
    22b0:	80 93 bc 00 	sts	0x00BC, r24	; 0x8000bc <__TEXT_REGION_LENGTH__+0x7f80bc>
    22b4:	10 92 85 01 	sts	0x0185, r1	; 0x800185 <twi_state>
    22b8:	a1 cf       	rjmp	.-190    	; 0x21fc <__vector_24+0x1f4>
    22ba:	83 e0       	ldi	r24, 0x03	; 3
    22bc:	80 93 85 01 	sts	0x0185, r24	; 0x800185 <twi_state>
    22c0:	10 92 1b 01 	sts	0x011B, r1	; 0x80011b <twi_rxBufferIndex>
    22c4:	85 ec       	ldi	r24, 0xC5	; 197
    22c6:	80 93 bc 00 	sts	0x00BC, r24	; 0x8000bc <__TEXT_REGION_LENGTH__+0x7f80bc>
    22ca:	98 cf       	rjmp	.-208    	; 0x21fc <__vector_24+0x1f4>
    22cc:	10 92 1a 01 	sts	0x011A, r1	; 0x80011a <twi_error>
    22d0:	85 ed       	ldi	r24, 0xD5	; 213
    22d2:	80 93 bc 00 	sts	0x00BC, r24	; 0x8000bc <__TEXT_REGION_LENGTH__+0x7f80bc>
    22d6:	80 91 bc 00 	lds	r24, 0x00BC	; 0x8000bc <__TEXT_REGION_LENGTH__+0x7f80bc>
    22da:	84 ff       	sbrs	r24, 4
    22dc:	8d cf       	rjmp	.-230    	; 0x21f8 <__vector_24+0x1f0>
    22de:	fb cf       	rjmp	.-10     	; 0x22d6 <__vector_24+0x2ce>
    22e0:	80 91 84 01 	lds	r24, 0x0184	; 0x800184 <twi_slarw>
    22e4:	80 93 bb 00 	sts	0x00BB, r24	; 0x8000bb <__TEXT_REGION_LENGTH__+0x7f80bb>
    22e8:	85 ec       	ldi	r24, 0xC5	; 197
    22ea:	80 93 bc 00 	sts	0x00BC, r24	; 0x8000bc <__TEXT_REGION_LENGTH__+0x7f80bc>
    22ee:	86 cf       	rjmp	.-244    	; 0x21fc <__vector_24+0x1f4>
    22f0:	90 91 5f 01 	lds	r25, 0x015F	; 0x80015f <twi_masterBufferIndex>
    22f4:	80 91 5e 01 	lds	r24, 0x015E	; 0x80015e <twi_masterBufferLength>
    22f8:	98 17       	cp	r25, r24
    22fa:	08 f4       	brcc	.+2      	; 0x22fe <__vector_24+0x2f6>
    22fc:	5e c0       	rjmp	.+188    	; 0x23ba <__vector_24+0x3b2>
    22fe:	85 ed       	ldi	r24, 0xD5	; 213
    2300:	80 93 bc 00 	sts	0x00BC, r24	; 0x8000bc <__TEXT_REGION_LENGTH__+0x7f80bc>
    2304:	80 91 bc 00 	lds	r24, 0x00BC	; 0x8000bc <__TEXT_REGION_LENGTH__+0x7f80bc>
    2308:	84 ff       	sbrs	r24, 4
    230a:	76 cf       	rjmp	.-276    	; 0x21f8 <__vector_24+0x1f0>
    230c:	fb cf       	rjmp	.-10     	; 0x2304 <__vector_24+0x2fc>
    230e:	80 e2       	ldi	r24, 0x20	; 32
    2310:	80 93 1a 01 	sts	0x011A, r24	; 0x80011a <twi_error>
    2314:	85 ed       	ldi	r24, 0xD5	; 213
    2316:	80 93 bc 00 	sts	0x00BC, r24	; 0x8000bc <__TEXT_REGION_LENGTH__+0x7f80bc>
    231a:	80 91 bc 00 	lds	r24, 0x00BC	; 0x8000bc <__TEXT_REGION_LENGTH__+0x7f80bc>
    231e:	84 ff       	sbrs	r24, 4
    2320:	6b cf       	rjmp	.-298    	; 0x21f8 <__vector_24+0x1f0>
    2322:	fb cf       	rjmp	.-10     	; 0x231a <__vector_24+0x312>
    2324:	80 91 1b 01 	lds	r24, 0x011B	; 0x80011b <twi_rxBufferIndex>
    2328:	80 32       	cpi	r24, 0x20	; 32
    232a:	08 f4       	brcc	.+2      	; 0x232e <__vector_24+0x326>
    232c:	3f c0       	rjmp	.+126    	; 0x23ac <__vector_24+0x3a4>
    232e:	85 ed       	ldi	r24, 0xD5	; 213
    2330:	80 93 bc 00 	sts	0x00BC, r24	; 0x8000bc <__TEXT_REGION_LENGTH__+0x7f80bc>
    2334:	80 91 bc 00 	lds	r24, 0x00BC	; 0x8000bc <__TEXT_REGION_LENGTH__+0x7f80bc>
    2338:	84 fd       	sbrc	r24, 4
    233a:	fc cf       	rjmp	.-8      	; 0x2334 <__vector_24+0x32c>
    233c:	10 92 85 01 	sts	0x0185, r1	; 0x800185 <twi_state>
    2340:	60 91 1b 01 	lds	r22, 0x011B	; 0x80011b <twi_rxBufferIndex>
    2344:	70 e0       	ldi	r23, 0x00	; 0
    2346:	e0 91 80 01 	lds	r30, 0x0180	; 0x800180 <twi_onSlaveReceive>
    234a:	f0 91 81 01 	lds	r31, 0x0181	; 0x800181 <twi_onSlaveReceive+0x1>
    234e:	8c e1       	ldi	r24, 0x1C	; 28
    2350:	91 e0       	ldi	r25, 0x01	; 1
    2352:	09 95       	icall
    2354:	10 92 1b 01 	sts	0x011B, r1	; 0x80011b <twi_rxBufferIndex>
    2358:	85 ec       	ldi	r24, 0xC5	; 197
    235a:	80 93 bc 00 	sts	0x00BC, r24	; 0x8000bc <__TEXT_REGION_LENGTH__+0x7f80bc>
    235e:	10 92 85 01 	sts	0x0185, r1	; 0x800185 <twi_state>
    2362:	4c cf       	rjmp	.-360    	; 0x21fc <__vector_24+0x1f4>
    2364:	80 e3       	ldi	r24, 0x30	; 48
    2366:	80 93 1a 01 	sts	0x011A, r24	; 0x80011a <twi_error>
    236a:	85 ed       	ldi	r24, 0xD5	; 213
    236c:	80 93 bc 00 	sts	0x00BC, r24	; 0x8000bc <__TEXT_REGION_LENGTH__+0x7f80bc>
    2370:	80 91 bc 00 	lds	r24, 0x00BC	; 0x8000bc <__TEXT_REGION_LENGTH__+0x7f80bc>
    2374:	84 ff       	sbrs	r24, 4
    2376:	40 cf       	rjmp	.-384    	; 0x21f8 <__vector_24+0x1f0>
    2378:	fb cf       	rjmp	.-10     	; 0x2370 <__vector_24+0x368>
    237a:	88 e3       	ldi	r24, 0x38	; 56
    237c:	80 93 1a 01 	sts	0x011A, r24	; 0x80011a <twi_error>
    2380:	85 ec       	ldi	r24, 0xC5	; 197
    2382:	80 93 bc 00 	sts	0x00BC, r24	; 0x8000bc <__TEXT_REGION_LENGTH__+0x7f80bc>
    2386:	10 92 85 01 	sts	0x0185, r1	; 0x800185 <twi_state>
    238a:	38 cf       	rjmp	.-400    	; 0x21fc <__vector_24+0x1f4>
    238c:	e0 91 1b 01 	lds	r30, 0x011B	; 0x80011b <twi_rxBufferIndex>
    2390:	81 e0       	ldi	r24, 0x01	; 1
    2392:	8e 0f       	add	r24, r30
    2394:	80 93 1b 01 	sts	0x011B, r24	; 0x80011b <twi_rxBufferIndex>
    2398:	80 91 bb 00 	lds	r24, 0x00BB	; 0x8000bb <__TEXT_REGION_LENGTH__+0x7f80bb>
    239c:	f0 e0       	ldi	r31, 0x00	; 0
    239e:	e4 5e       	subi	r30, 0xE4	; 228
    23a0:	fe 4f       	sbci	r31, 0xFE	; 254
    23a2:	80 83       	st	Z, r24
    23a4:	85 ec       	ldi	r24, 0xC5	; 197
    23a6:	80 93 bc 00 	sts	0x00BC, r24	; 0x8000bc <__TEXT_REGION_LENGTH__+0x7f80bc>
    23aa:	28 cf       	rjmp	.-432    	; 0x21fc <__vector_24+0x1f4>
    23ac:	e0 91 1b 01 	lds	r30, 0x011B	; 0x80011b <twi_rxBufferIndex>
    23b0:	f0 e0       	ldi	r31, 0x00	; 0
    23b2:	e4 5e       	subi	r30, 0xE4	; 228
    23b4:	fe 4f       	sbci	r31, 0xFE	; 254
    23b6:	10 82       	st	Z, r1
    23b8:	ba cf       	rjmp	.-140    	; 0x232e <__vector_24+0x326>
    23ba:	e0 91 5f 01 	lds	r30, 0x015F	; 0x80015f <twi_masterBufferIndex>
    23be:	81 e0       	ldi	r24, 0x01	; 1
    23c0:	8e 0f       	add	r24, r30
    23c2:	80 93 5f 01 	sts	0x015F, r24	; 0x80015f <twi_masterBufferIndex>
    23c6:	f0 e0       	ldi	r31, 0x00	; 0
    23c8:	e0 5a       	subi	r30, 0xA0	; 160
    23ca:	fe 4f       	sbci	r31, 0xFE	; 254
    23cc:	80 81       	ld	r24, Z
    23ce:	80 93 bb 00 	sts	0x00BB, r24	; 0x8000bb <__TEXT_REGION_LENGTH__+0x7f80bb>
    23d2:	85 ec       	ldi	r24, 0xC5	; 197
    23d4:	80 93 bc 00 	sts	0x00BC, r24	; 0x8000bc <__TEXT_REGION_LENGTH__+0x7f80bc>
    23d8:	11 cf       	rjmp	.-478    	; 0x21fc <__vector_24+0x1f4>

000023da <main>:
// ************************************************************************************************

int main()
{
    // initialize timers
    millis_timer_init();
    23da:	0e 94 4a 02 	call	0x494	; 0x494 <millis_timer_init>
    // timer2_init
    // initialize buttons
    minus_button.button_pin.ddr = &BTNS_DDR;
    23de:	47 e2       	ldi	r20, 0x27	; 39
    23e0:	50 e0       	ldi	r21, 0x00	; 0
    23e2:	50 93 b9 01 	sts	0x01B9, r21	; 0x8001b9 <minus_button+0x1>
    23e6:	40 93 b8 01 	sts	0x01B8, r20	; 0x8001b8 <minus_button>
    minus_button.button_pin.port = &BTNS_PORT;
    23ea:	28 e2       	ldi	r18, 0x28	; 40
    23ec:	30 e0       	ldi	r19, 0x00	; 0
    23ee:	30 93 bb 01 	sts	0x01BB, r19	; 0x8001bb <minus_button+0x3>
    23f2:	20 93 ba 01 	sts	0x01BA, r18	; 0x8001ba <minus_button+0x2>
    minus_button.button_pin.pin = &BTNS_PIN;
    23f6:	86 e2       	ldi	r24, 0x26	; 38
    23f8:	90 e0       	ldi	r25, 0x00	; 0
    23fa:	90 93 bd 01 	sts	0x01BD, r25	; 0x8001bd <minus_button+0x5>
    23fe:	80 93 bc 01 	sts	0x01BC, r24	; 0x8001bc <minus_button+0x4>
    minus_button.button_pin.pin_num = BTN_1_PIN_NUM;
    2402:	c1 e0       	ldi	r28, 0x01	; 1
    2404:	c0 93 be 01 	sts	0x01BE, r28	; 0x8001be <minus_button+0x6>
    adjust_button.button_pin.ddr = &BTNS_DDR;
    2408:	50 93 df 01 	sts	0x01DF, r21	; 0x8001df <adjust_button+0x1>
    240c:	40 93 de 01 	sts	0x01DE, r20	; 0x8001de <adjust_button>
    adjust_button.button_pin.port = &BTNS_PORT;
    2410:	30 93 e1 01 	sts	0x01E1, r19	; 0x8001e1 <adjust_button+0x3>
    2414:	20 93 e0 01 	sts	0x01E0, r18	; 0x8001e0 <adjust_button+0x2>
    adjust_button.button_pin.pin = &BTNS_PIN;
    2418:	90 93 e3 01 	sts	0x01E3, r25	; 0x8001e3 <adjust_button+0x5>
    241c:	80 93 e2 01 	sts	0x01E2, r24	; 0x8001e2 <adjust_button+0x4>
    adjust_button.button_pin.pin_num = BTN_2_PIN_NUM;
    2420:	62 e0       	ldi	r22, 0x02	; 2
    2422:	60 93 e4 01 	sts	0x01E4, r22	; 0x8001e4 <adjust_button+0x6>
    plus_button.button_pin.ddr = &BTNS_DDR;
    2426:	50 93 8b 01 	sts	0x018B, r21	; 0x80018b <plus_button+0x1>
    242a:	40 93 8a 01 	sts	0x018A, r20	; 0x80018a <plus_button>
    plus_button.button_pin.port = &BTNS_PORT;
    242e:	30 93 8d 01 	sts	0x018D, r19	; 0x80018d <plus_button+0x3>
    2432:	20 93 8c 01 	sts	0x018C, r18	; 0x80018c <plus_button+0x2>
    plus_button.button_pin.pin = &BTNS_PIN;
    2436:	90 93 8f 01 	sts	0x018F, r25	; 0x80018f <plus_button+0x5>
    243a:	80 93 8e 01 	sts	0x018E, r24	; 0x80018e <plus_button+0x4>
    plus_button.button_pin.pin_num = BTN_3_PIN_NUM;
    243e:	83 e0       	ldi	r24, 0x03	; 3
    2440:	80 93 90 01 	sts	0x0190, r24	; 0x800190 <plus_button+0x6>
    button_setup(&minus_button);
    2444:	88 eb       	ldi	r24, 0xB8	; 184
    2446:	91 e0       	ldi	r25, 0x01	; 1
    2448:	0e 94 48 03 	call	0x690	; 0x690 <button_setup>
    button_setup(&adjust_button);
    244c:	8e ed       	ldi	r24, 0xDE	; 222
    244e:	91 e0       	ldi	r25, 0x01	; 1
    2450:	0e 94 48 03 	call	0x690	; 0x690 <button_setup>
    button_setup(&plus_button);
    2454:	8a e8       	ldi	r24, 0x8A	; 138
    2456:	91 e0       	ldi	r25, 0x01	; 1
    2458:	0e 94 48 03 	call	0x690	; 0x690 <button_setup>
    short press plus button goes to next mode

    in time mode,

    */
    button_attach_single_click(&minus_button, decrement_main_state);
    245c:	68 e5       	ldi	r22, 0x58	; 88
    245e:	71 e0       	ldi	r23, 0x01	; 1
    2460:	88 eb       	ldi	r24, 0xB8	; 184
    2462:	91 e0       	ldi	r25, 0x01	; 1
    2464:	0e 94 70 03 	call	0x6e0	; 0x6e0 <button_attach_single_click>
    button_attach_single_click(&plus_button, increment_main_state);
    2468:	6b e3       	ldi	r22, 0x3B	; 59
    246a:	71 e0       	ldi	r23, 0x01	; 1
    246c:	8a e8       	ldi	r24, 0x8A	; 138
    246e:	91 e0       	ldi	r25, 0x01	; 1
    2470:	0e 94 70 03 	call	0x6e0	; 0x6e0 <button_attach_single_click>

    // initialize seven segment
    seven_segment_init();
    2474:	0e 94 90 04 	call	0x920	; 0x920 <seven_segment_init>
    seven_segment_clear_all();
    2478:	0e 94 32 05 	call	0xa64	; 0xa64 <seven_segment_clear_all>

    // initialize RTC
    twi_init_master();
    247c:	0e 94 73 0e 	call	0x1ce6	; 0x1ce6 <twi_init_master>
    rtc_init();
    2480:	0e 94 b2 08 	call	0x1164	; 0x1164 <rtc_init>
    // initialize piezo
    // piezo_init(10);
    main_state_swapped = true;
    2484:	c0 93 04 02 	sts	0x0204, r28	; 0x800204 <main_state_swapped>
            switch (testing_state)
            {
            // 7 segment all off
            case TESTING_STATE_ALL_OFF:
                seven_segment_clear_all();
                display_updated = true;
    2488:	11 e0       	ldi	r17, 0x01	; 1
                state_start = true;
                // run only when changing main state
                if (main_state_swapped == true)
                {
                    main_state_swapped = false;
                    testing_state = TESTING_STATE_ALL_ON;
    248a:	c1 e0       	ldi	r28, 0x01	; 1
    248c:	d0 e0       	ldi	r29, 0x00	; 0
    while (1)
    {
        /*
        main FSM
        */
        t_millis = get_millis();
    248e:	0e 94 64 02 	call	0x4c8	; 0x4c8 <get_millis>
    2492:	60 93 07 02 	sts	0x0207, r22	; 0x800207 <t_millis>
    2496:	70 93 08 02 	sts	0x0208, r23	; 0x800208 <t_millis+0x1>
    249a:	80 93 09 02 	sts	0x0209, r24	; 0x800209 <t_millis+0x2>
    249e:	90 93 0a 02 	sts	0x020A, r25	; 0x80020a <t_millis+0x3>
        switch (main_state)
    24a2:	e0 91 b4 01 	lds	r30, 0x01B4	; 0x8001b4 <main_state>
    24a6:	f0 91 b5 01 	lds	r31, 0x01B5	; 0x8001b5 <main_state+0x1>
    24aa:	e7 30       	cpi	r30, 0x07	; 7
    24ac:	f1 05       	cpc	r31, r1
    24ae:	f8 f4       	brcc	.+62     	; 0x24ee <main+0x114>
    24b0:	e2 5a       	subi	r30, 0xA2	; 162
    24b2:	fd 4e       	sbci	r31, 0xED	; 237
            }
            break;
        // 7 segment test on and off
        case MAIN_STATE_TESTING:
            // run once
            if (state_start == false)
    24b4:	80 91 dd 01 	lds	r24, 0x01DD	; 0x8001dd <state_start>
    {
        /*
        main FSM
        */
        t_millis = get_millis();
        switch (main_state)
    24b8:	0c 94 52 14 	jmp	0x28a4	; 0x28a4 <__tablejump2__>
    24bc:	5d 13       	cpse	r21, r29
    24be:	27 13       	cpse	r18, r23
    24c0:	e2 12       	cpse	r14, r18
    24c2:	a1 12       	cpse	r10, r17
    24c4:	8e 12       	cpse	r8, r30
    24c6:	65 12       	cpse	r6, r21
    24c8:	3a 13       	cpse	r19, r26
                break;
            }
            break;
        case MAIN_STATE_HUMIDITY:
            // run once
            if (state_start == false)
    24ca:	81 11       	cpse	r24, r1
    24cc:	0c c0       	rjmp	.+24     	; 0x24e6 <main+0x10c>
            {
                state_start = true;
    24ce:	10 93 dd 01 	sts	0x01DD, r17	; 0x8001dd <state_start>
                // run only when changing main state
                if (main_state_swapped == true)
    24d2:	80 91 04 02 	lds	r24, 0x0204	; 0x800204 <main_state_swapped>
    24d6:	81 30       	cpi	r24, 0x01	; 1
    24d8:	11 f4       	brne	.+4      	; 0x24de <main+0x104>
                {

                    main_state_swapped = false;
    24da:	10 92 04 02 	sts	0x0204, r1	; 0x800204 <main_state_swapped>
                }
                // set button callbacks
                switch (alarm_state)
    24de:	80 91 b2 01 	lds	r24, 0x01B2	; 0x8001b2 <alarm_state>
    24e2:	90 91 b3 01 	lds	r25, 0x01B3	; 0x8001b3 <alarm_state+0x1>
                default:
                    break;
                }
            }
            // run forever
            switch (humidity_state)
    24e6:	80 91 b6 01 	lds	r24, 0x01B6	; 0x8001b6 <humidity_state>
    24ea:	90 91 b7 01 	lds	r25, 0x01B7	; 0x8001b7 <humidity_state+0x1>
        default:
            break;
        }

        // button tick loops
        button_loop(&minus_button);
    24ee:	88 eb       	ldi	r24, 0xB8	; 184
    24f0:	91 e0       	ldi	r25, 0x01	; 1
    24f2:	0e 94 85 04 	call	0x90a	; 0x90a <button_loop>
        button_loop(&adjust_button);
    24f6:	8e ed       	ldi	r24, 0xDE	; 222
    24f8:	91 e0       	ldi	r25, 0x01	; 1
    24fa:	0e 94 85 04 	call	0x90a	; 0x90a <button_loop>
        button_loop(&plus_button);
    24fe:	8a e8       	ldi	r24, 0x8A	; 138
    2500:	91 e0       	ldi	r25, 0x01	; 1
    2502:	0e 94 85 04 	call	0x90a	; 0x90a <button_loop>
        // seven segment flashing loop
        seven_segment_flashing_loop(t_millis);
    2506:	60 91 07 02 	lds	r22, 0x0207	; 0x800207 <t_millis>
    250a:	70 91 08 02 	lds	r23, 0x0208	; 0x800208 <t_millis+0x1>
    250e:	80 91 09 02 	lds	r24, 0x0209	; 0x800209 <t_millis+0x2>
    2512:	90 91 0a 02 	lds	r25, 0x020A	; 0x80020a <t_millis+0x3>
    2516:	0e 94 a6 05 	call	0xb4c	; 0xb4c <seven_segment_flashing_loop>
    while (1)
    {
        /*
        main FSM
        */
        t_millis = get_millis();
    251a:	b9 cf       	rjmp	.-142    	; 0x248e <main+0xb4>
                break;
            }
            break;
        case MAIN_STATE_TEMPERATURE:
            // run once
            if (state_start == false)
    251c:	81 11       	cpse	r24, r1
    251e:	0c c0       	rjmp	.+24     	; 0x2538 <main+0x15e>
            {
                state_start = true;
    2520:	10 93 dd 01 	sts	0x01DD, r17	; 0x8001dd <state_start>
                // run only when changing main state
                if (main_state_swapped == true)
    2524:	80 91 04 02 	lds	r24, 0x0204	; 0x800204 <main_state_swapped>
    2528:	81 30       	cpi	r24, 0x01	; 1
    252a:	11 f4       	brne	.+4      	; 0x2530 <main+0x156>
                {

                    main_state_swapped = false;
    252c:	10 92 04 02 	sts	0x0204, r1	; 0x800204 <main_state_swapped>
                }
                // set button callbacks
                switch (temperature_state)
    2530:	80 91 02 02 	lds	r24, 0x0202	; 0x800202 <temperature_state>
    2534:	90 91 03 02 	lds	r25, 0x0203	; 0x800203 <temperature_state+0x1>
                default:
                    break;
                }
            }
            // run forever
            switch (temperature_state)
    2538:	80 91 02 02 	lds	r24, 0x0202	; 0x800202 <temperature_state>
    253c:	90 91 03 02 	lds	r25, 0x0203	; 0x800203 <temperature_state+0x1>
    2540:	d6 cf       	rjmp	.-84     	; 0x24ee <main+0x114>
                break;
            }
            break;
        case MAIN_STATE_YEAR:
            // run once
            if (state_start == false)
    2542:	81 11       	cpse	r24, r1
    2544:	27 c0       	rjmp	.+78     	; 0x2594 <main+0x1ba>
            {
                state_start = true;
    2546:	10 93 dd 01 	sts	0x01DD, r17	; 0x8001dd <state_start>
                // run only when changing main state
                if (main_state_swapped == true)
    254a:	80 91 04 02 	lds	r24, 0x0204	; 0x800204 <main_state_swapped>
    254e:	81 30       	cpi	r24, 0x01	; 1
    2550:	31 f4       	brne	.+12     	; 0x255e <main+0x184>
                {
                    main_state_swapped = false;
    2552:	10 92 04 02 	sts	0x0204, r1	; 0x800204 <main_state_swapped>
                    // test
                    // clock_time->year = 1926;
                    // rtc_set_time(clock_time);
                    year_state = YEAR_STATE_DISPLAY;
    2556:	10 92 87 01 	sts	0x0187, r1	; 0x800187 <year_state+0x1>
    255a:	10 92 86 01 	sts	0x0186, r1	; 0x800186 <year_state>
                }
                // set button callbacks
                switch (year_state)
    255e:	80 91 86 01 	lds	r24, 0x0186	; 0x800186 <year_state>
    2562:	90 91 87 01 	lds	r25, 0x0187	; 0x800187 <year_state+0x1>
    2566:	00 97       	sbiw	r24, 0x00	; 0
    2568:	09 f4       	brne	.+2      	; 0x256c <main+0x192>
    256a:	3d c1       	rjmp	.+634    	; 0x27e6 <main+0x40c>
    256c:	01 97       	sbiw	r24, 0x01	; 1
    256e:	91 f4       	brne	.+36     	; 0x2594 <main+0x1ba>
                /*
                +- buttons adjust the hour
                adjust button short press goes into adjust minute mode
                */
                case YEAR_STATE_ADJUST_YEAR:
                    button_attach_single_click(&minus_button, decrement_year);
    2570:	62 ef       	ldi	r22, 0xF2	; 242
    2572:	70 e0       	ldi	r23, 0x00	; 0
    2574:	88 eb       	ldi	r24, 0xB8	; 184
    2576:	91 e0       	ldi	r25, 0x01	; 1
    2578:	0e 94 70 03 	call	0x6e0	; 0x6e0 <button_attach_single_click>
                    button_attach_single_click(&plus_button, increment_year);
    257c:	6f ed       	ldi	r22, 0xDF	; 223
    257e:	70 e0       	ldi	r23, 0x00	; 0
    2580:	8a e8       	ldi	r24, 0x8A	; 138
    2582:	91 e0       	ldi	r25, 0x01	; 1
    2584:	0e 94 70 03 	call	0x6e0	; 0x6e0 <button_attach_single_click>
                    button_attach_single_click(&adjust_button, swap_year_state);
    2588:	60 ec       	ldi	r22, 0xC0	; 192
    258a:	71 e0       	ldi	r23, 0x01	; 1
    258c:	8e ed       	ldi	r24, 0xDE	; 222
    258e:	91 e0       	ldi	r25, 0x01	; 1
    2590:	0e 94 70 03 	call	0x6e0	; 0x6e0 <button_attach_single_click>
                default:
                    break;
                }
            }
            // run forever
            seven_segment_show_year(100 + clock_time->year);
    2594:	e0 91 05 02 	lds	r30, 0x0205	; 0x800205 <clock_time>
    2598:	f0 91 06 02 	lds	r31, 0x0206	; 0x800206 <clock_time+0x1>
    259c:	82 85       	ldd	r24, Z+10	; 0x0a
    259e:	93 85       	ldd	r25, Z+11	; 0x0b
    25a0:	8c 59       	subi	r24, 0x9C	; 156
    25a2:	9f 4f       	sbci	r25, 0xFF	; 255
    25a4:	0e 94 f9 06 	call	0xdf2	; 0xdf2 <seven_segment_show_year>
            switch (year_state)
    25a8:	80 91 86 01 	lds	r24, 0x0186	; 0x800186 <year_state>
    25ac:	90 91 87 01 	lds	r25, 0x0187	; 0x800187 <year_state+0x1>
    25b0:	00 97       	sbiw	r24, 0x00	; 0
    25b2:	09 f4       	brne	.+2      	; 0x25b6 <main+0x1dc>
    25b4:	f0 c0       	rjmp	.+480    	; 0x2796 <main+0x3bc>
    25b6:	01 97       	sbiw	r24, 0x01	; 1
    25b8:	09 f0       	breq	.+2      	; 0x25bc <main+0x1e2>
    25ba:	99 cf       	rjmp	.-206    	; 0x24ee <main+0x114>
                    //     rtc_set_time(clock_time);
                    // }
                }
                break;
            case YEAR_STATE_ADJUST_YEAR:
                seven_segment_flash_all_digits(1);
    25bc:	81 e0       	ldi	r24, 0x01	; 1
    25be:	0e 94 36 06 	call	0xc6c	; 0xc6c <seven_segment_flash_all_digits>
                break;
    25c2:	95 cf       	rjmp	.-214    	; 0x24ee <main+0x114>
                break;
            }
            break;
        case MAIN_STATE_MONTH_DAY:
            // run once
            if (state_start == false)
    25c4:	81 11       	cpse	r24, r1
    25c6:	2a c0       	rjmp	.+84     	; 0x261c <main+0x242>
            {
                state_start = true;
    25c8:	10 93 dd 01 	sts	0x01DD, r17	; 0x8001dd <state_start>
                // run only when changing main state
                if (main_state_swapped == true)
    25cc:	80 91 04 02 	lds	r24, 0x0204	; 0x800204 <main_state_swapped>
    25d0:	81 30       	cpi	r24, 0x01	; 1
    25d2:	31 f4       	brne	.+12     	; 0x25e0 <main+0x206>
                {

                    main_state_swapped = false;
    25d4:	10 92 04 02 	sts	0x0204, r1	; 0x800204 <main_state_swapped>

                    // test
                    // clock_time->mon = 88;
                    // clock_time->mday = 88;

                    hour_min_state = MONTH_DAY_STATE_DISPLAY;
    25d8:	10 92 b1 01 	sts	0x01B1, r1	; 0x8001b1 <hour_min_state+0x1>
    25dc:	10 92 b0 01 	sts	0x01B0, r1	; 0x8001b0 <hour_min_state>
                }
                // set button callbacks
                switch (month_day_state)
    25e0:	80 91 88 01 	lds	r24, 0x0188	; 0x800188 <month_day_state>
    25e4:	90 91 89 01 	lds	r25, 0x0189	; 0x800189 <month_day_state+0x1>
    25e8:	81 30       	cpi	r24, 0x01	; 1
    25ea:	91 05       	cpc	r25, r1
    25ec:	09 f4       	brne	.+2      	; 0x25f0 <main+0x216>
    25ee:	21 c1       	rjmp	.+578    	; 0x2832 <main+0x458>
    25f0:	08 f4       	brcc	.+2      	; 0x25f4 <main+0x21a>
    25f2:	0c c1       	rjmp	.+536    	; 0x280c <main+0x432>
    25f4:	02 97       	sbiw	r24, 0x02	; 2
    25f6:	91 f4       	brne	.+36     	; 0x261c <main+0x242>
                    /*
                +- buttons adjust the day
                adjust button short press goes back to month day display mode
                */
                case MONTH_DAY_STATE_ADJUST_DAY:
                    button_attach_single_click(&minus_button, decrement_day);
    25f8:	6d ec       	ldi	r22, 0xCD	; 205
    25fa:	70 e0       	ldi	r23, 0x00	; 0
    25fc:	88 eb       	ldi	r24, 0xB8	; 184
    25fe:	91 e0       	ldi	r25, 0x01	; 1
    2600:	0e 94 70 03 	call	0x6e0	; 0x6e0 <button_attach_single_click>
                    button_attach_single_click(&plus_button, increment_day);
    2604:	6b eb       	ldi	r22, 0xBB	; 187
    2606:	70 e0       	ldi	r23, 0x00	; 0
    2608:	8a e8       	ldi	r24, 0x8A	; 138
    260a:	91 e0       	ldi	r25, 0x01	; 1
    260c:	0e 94 70 03 	call	0x6e0	; 0x6e0 <button_attach_single_click>
                    button_attach_single_click(&adjust_button, swap_month_day_state);
    2610:	6d e9       	ldi	r22, 0x9D	; 157
    2612:	71 e0       	ldi	r23, 0x01	; 1
    2614:	8e ed       	ldi	r24, 0xDE	; 222
    2616:	91 e0       	ldi	r25, 0x01	; 1
    2618:	0e 94 70 03 	call	0x6e0	; 0x6e0 <button_attach_single_click>
                default:
                    break;
                }
            }
            // run forever
            seven_segment_show_month_day(clock_time->mon, clock_time->mday);
    261c:	e0 91 05 02 	lds	r30, 0x0205	; 0x800205 <clock_time>
    2620:	f0 91 06 02 	lds	r31, 0x0206	; 0x800206 <clock_time+0x1>
    2624:	66 81       	ldd	r22, Z+6	; 0x06
    2626:	80 85       	ldd	r24, Z+8	; 0x08
    2628:	0e 94 8a 06 	call	0xd14	; 0xd14 <seven_segment_show_month_day>
            switch (month_day_state)
    262c:	80 91 88 01 	lds	r24, 0x0188	; 0x800188 <month_day_state>
    2630:	90 91 89 01 	lds	r25, 0x0189	; 0x800189 <month_day_state+0x1>
    2634:	81 30       	cpi	r24, 0x01	; 1
    2636:	91 05       	cpc	r25, r1
    2638:	09 f4       	brne	.+2      	; 0x263c <main+0x262>
    263a:	cc c0       	rjmp	.+408    	; 0x27d4 <main+0x3fa>
    263c:	08 f4       	brcc	.+2      	; 0x2640 <main+0x266>
    263e:	ab c0       	rjmp	.+342    	; 0x2796 <main+0x3bc>
    2640:	02 97       	sbiw	r24, 0x02	; 2
    2642:	09 f0       	breq	.+2      	; 0x2646 <main+0x26c>
    2644:	54 cf       	rjmp	.-344    	; 0x24ee <main+0x114>
                /*
                the current time is displayed with a steady colon, but the minute portion is blinking.

                 */
            case HOUR_MIN_STATE_ADJUST_MIN:
                seven_segment_flash_digits_minutes(1);
    2646:	81 e0       	ldi	r24, 0x01	; 1
    2648:	0e 94 30 06 	call	0xc60	; 0xc60 <seven_segment_flash_digits_minutes>
                break;
    264c:	50 cf       	rjmp	.-352    	; 0x24ee <main+0x114>
                break;
            }
            break;
        case MAIN_STATE_ALARM:
            // run once
            if (state_start == false)
    264e:	81 11       	cpse	r24, r1
    2650:	0c c0       	rjmp	.+24     	; 0x266a <main+0x290>
            {
                state_start = true;
    2652:	10 93 dd 01 	sts	0x01DD, r17	; 0x8001dd <state_start>
                // run only when changing main state
                if (main_state_swapped == true)
    2656:	80 91 04 02 	lds	r24, 0x0204	; 0x800204 <main_state_swapped>
    265a:	81 30       	cpi	r24, 0x01	; 1
    265c:	11 f4       	brne	.+4      	; 0x2662 <main+0x288>
                {
                    main_state_swapped = false;
    265e:	10 92 04 02 	sts	0x0204, r1	; 0x800204 <main_state_swapped>
                }
                // set button callbacks
                switch (alarm_state)
    2662:	80 91 b2 01 	lds	r24, 0x01B2	; 0x8001b2 <alarm_state>
    2666:	90 91 b3 01 	lds	r25, 0x01B3	; 0x8001b3 <alarm_state+0x1>
                default:
                    break;
                }
            }
            // run forever
            switch (alarm_state)
    266a:	80 91 b2 01 	lds	r24, 0x01B2	; 0x8001b2 <alarm_state>
    266e:	90 91 b3 01 	lds	r25, 0x01B3	; 0x8001b3 <alarm_state+0x1>
    2672:	3d cf       	rjmp	.-390    	; 0x24ee <main+0x114>
            }
            break;
        // 7 segment test on and off
        case MAIN_STATE_TESTING:
            // run once
            if (state_start == false)
    2674:	81 11       	cpse	r24, r1
    2676:	12 c0       	rjmp	.+36     	; 0x269c <main+0x2c2>
            {
                state_start = true;
    2678:	10 93 dd 01 	sts	0x01DD, r17	; 0x8001dd <state_start>
                // run only when changing main state
                if (main_state_swapped == true)
    267c:	80 91 04 02 	lds	r24, 0x0204	; 0x800204 <main_state_swapped>
    2680:	81 30       	cpi	r24, 0x01	; 1
    2682:	31 f4       	brne	.+12     	; 0x2690 <main+0x2b6>
                {
                    main_state_swapped = false;
    2684:	10 92 04 02 	sts	0x0204, r1	; 0x800204 <main_state_swapped>
                    testing_state = TESTING_STATE_ALL_ON;
    2688:	d0 93 af 01 	sts	0x01AF, r29	; 0x8001af <testing_state+0x1>
    268c:	c0 93 ae 01 	sts	0x01AE, r28	; 0x8001ae <testing_state>
                }
                // attach adjust button
                button_attach_single_click(&adjust_button, swap_testing_state);
    2690:	62 ee       	ldi	r22, 0xE2	; 226
    2692:	71 e0       	ldi	r23, 0x01	; 1
    2694:	8e ed       	ldi	r24, 0xDE	; 222
    2696:	91 e0       	ldi	r25, 0x01	; 1
    2698:	0e 94 70 03 	call	0x6e0	; 0x6e0 <button_attach_single_click>
            }
            // run forever
            switch (testing_state)
    269c:	80 91 ae 01 	lds	r24, 0x01AE	; 0x8001ae <testing_state>
    26a0:	90 91 af 01 	lds	r25, 0x01AF	; 0x8001af <testing_state+0x1>
    26a4:	00 97       	sbiw	r24, 0x00	; 0
    26a6:	09 f4       	brne	.+2      	; 0x26aa <main+0x2d0>
    26a8:	99 c0       	rjmp	.+306    	; 0x27dc <main+0x402>
    26aa:	01 97       	sbiw	r24, 0x01	; 1
    26ac:	09 f0       	breq	.+2      	; 0x26b0 <main+0x2d6>
    26ae:	1f cf       	rjmp	.-450    	; 0x24ee <main+0x114>
                seven_segment_clear_all();
                display_updated = true;
                break;
            // 7 segment all on
            case TESTING_STATE_ALL_ON:
                seven_segment_set_all();
    26b0:	0e 94 3e 05 	call	0xa7c	; 0xa7c <seven_segment_set_all>
                display_updated = true;
    26b4:	10 93 dc 01 	sts	0x01DC, r17	; 0x8001dc <display_updated>
                break;
    26b8:	1a cf       	rjmp	.-460    	; 0x24ee <main+0x114>
        t_millis = get_millis();
        switch (main_state)
        {
        case MAIN_STATE_HOUR_MIN:
            // run once
            if (state_start == false)
    26ba:	81 11       	cpse	r24, r1
    26bc:	2a c0       	rjmp	.+84     	; 0x2712 <main+0x338>
            {
                state_start = true;
    26be:	10 93 dd 01 	sts	0x01DD, r17	; 0x8001dd <state_start>

                // run only when changing main state
                if (main_state_swapped == true)
    26c2:	80 91 04 02 	lds	r24, 0x0204	; 0x800204 <main_state_swapped>
    26c6:	81 30       	cpi	r24, 0x01	; 1
    26c8:	31 f4       	brne	.+12     	; 0x26d6 <main+0x2fc>
                {
                    main_state_swapped = false;
    26ca:	10 92 04 02 	sts	0x0204, r1	; 0x800204 <main_state_swapped>

                    // test
                    // clock_time->hour = 88;
                    // clock_time->min = 88;

                    hour_min_state = HOUR_MIN_STATE_DISPLAY;
    26ce:	10 92 b1 01 	sts	0x01B1, r1	; 0x8001b1 <hour_min_state+0x1>
    26d2:	10 92 b0 01 	sts	0x01B0, r1	; 0x8001b0 <hour_min_state>
                }
                // set button callbacks
                switch (hour_min_state)
    26d6:	80 91 b0 01 	lds	r24, 0x01B0	; 0x8001b0 <hour_min_state>
    26da:	90 91 b1 01 	lds	r25, 0x01B1	; 0x8001b1 <hour_min_state+0x1>
    26de:	81 30       	cpi	r24, 0x01	; 1
    26e0:	91 05       	cpc	r25, r1
    26e2:	09 f4       	brne	.+2      	; 0x26e6 <main+0x30c>
    26e4:	c2 c0       	rjmp	.+388    	; 0x286a <main+0x490>
    26e6:	08 f4       	brcc	.+2      	; 0x26ea <main+0x310>
    26e8:	ad c0       	rjmp	.+346    	; 0x2844 <main+0x46a>
    26ea:	02 97       	sbiw	r24, 0x02	; 2
    26ec:	91 f4       	brne	.+36     	; 0x2712 <main+0x338>
                /*
                +- buttons adjust the minute
                adjust button short press goes back to hour min display mode
                 */
                case HOUR_MIN_STATE_ADJUST_MIN:
                    button_attach_single_click(&minus_button, decrement_minute);
    26ee:	65 e8       	ldi	r22, 0x85	; 133
    26f0:	70 e0       	ldi	r23, 0x00	; 0
    26f2:	88 eb       	ldi	r24, 0xB8	; 184
    26f4:	91 e0       	ldi	r25, 0x01	; 1
    26f6:	0e 94 70 03 	call	0x6e0	; 0x6e0 <button_attach_single_click>
                    button_attach_single_click(&plus_button, increment_minute);
    26fa:	65 e7       	ldi	r22, 0x75	; 117
    26fc:	70 e0       	ldi	r23, 0x00	; 0
    26fe:	8a e8       	ldi	r24, 0x8A	; 138
    2700:	91 e0       	ldi	r25, 0x01	; 1
    2702:	0e 94 70 03 	call	0x6e0	; 0x6e0 <button_attach_single_click>
                    button_attach_single_click(&adjust_button, swap_hour_min_state);
    2706:	67 e7       	ldi	r22, 0x77	; 119
    2708:	71 e0       	ldi	r23, 0x01	; 1
    270a:	8e ed       	ldi	r24, 0xDE	; 222
    270c:	91 e0       	ldi	r25, 0x01	; 1
    270e:	0e 94 70 03 	call	0x6e0	; 0x6e0 <button_attach_single_click>
                default:
                    break;
                }
            }
            // run forever
            seven_segment_show_hour_minute(clock_time->hour, clock_time->min);
    2712:	e0 91 05 02 	lds	r30, 0x0205	; 0x800205 <clock_time>
    2716:	f0 91 06 02 	lds	r31, 0x0206	; 0x800206 <clock_time+0x1>
    271a:	62 81       	ldd	r22, Z+2	; 0x02
    271c:	84 81       	ldd	r24, Z+4	; 0x04
    271e:	0e 94 39 06 	call	0xc72	; 0xc72 <seven_segment_show_hour_minute>
            switch (hour_min_state)
    2722:	80 91 b0 01 	lds	r24, 0x01B0	; 0x8001b0 <hour_min_state>
    2726:	90 91 b1 01 	lds	r25, 0x01B1	; 0x8001b1 <hour_min_state+0x1>
    272a:	81 30       	cpi	r24, 0x01	; 1
    272c:	91 05       	cpc	r25, r1
    272e:	09 f4       	brne	.+2      	; 0x2732 <main+0x358>
    2730:	51 c0       	rjmp	.+162    	; 0x27d4 <main+0x3fa>
    2732:	08 f0       	brcs	.+2      	; 0x2736 <main+0x35c>
    2734:	85 cf       	rjmp	.-246    	; 0x2640 <main+0x266>
                /*
                the current time is displayed with a blinking colon.
                get time from the RTC every 250ms
                */
            case HOUR_MIN_STATE_DISPLAY:
                seven_segment_flash_colon(1);
    2736:	81 e0       	ldi	r24, 0x01	; 1
    2738:	0e 94 2d 06 	call	0xc5a	; 0xc5a <seven_segment_flash_colon>
                if (t_millis - prev_millis_read_rtc > 250)
    273c:	80 91 07 02 	lds	r24, 0x0207	; 0x800207 <t_millis>
    2740:	90 91 08 02 	lds	r25, 0x0208	; 0x800208 <t_millis+0x1>
    2744:	a0 91 09 02 	lds	r26, 0x0209	; 0x800209 <t_millis+0x2>
    2748:	b0 91 0a 02 	lds	r27, 0x020A	; 0x80020a <t_millis+0x3>
    274c:	40 91 0b 02 	lds	r20, 0x020B	; 0x80020b <prev_millis_read_rtc>
    2750:	50 91 0c 02 	lds	r21, 0x020C	; 0x80020c <prev_millis_read_rtc+0x1>
    2754:	60 91 0d 02 	lds	r22, 0x020D	; 0x80020d <prev_millis_read_rtc+0x2>
    2758:	70 91 0e 02 	lds	r23, 0x020E	; 0x80020e <prev_millis_read_rtc+0x3>
    275c:	6c 01       	movw	r12, r24
    275e:	7d 01       	movw	r14, r26
    2760:	c4 1a       	sub	r12, r20
    2762:	d5 0a       	sbc	r13, r21
    2764:	e6 0a       	sbc	r14, r22
    2766:	f7 0a       	sbc	r15, r23
    2768:	b7 01       	movw	r22, r14
    276a:	a6 01       	movw	r20, r12
    276c:	4b 3f       	cpi	r20, 0xFB	; 251
    276e:	51 05       	cpc	r21, r1
    2770:	61 05       	cpc	r22, r1
    2772:	71 05       	cpc	r23, r1
    2774:	08 f4       	brcc	.+2      	; 0x2778 <main+0x39e>
    2776:	bb ce       	rjmp	.-650    	; 0x24ee <main+0x114>
            {
            case YEAR_STATE_DISPLAY:

                if (t_millis - prev_millis_read_rtc > 1000)
                {
                    prev_millis_read_rtc = t_millis;
    2778:	80 93 0b 02 	sts	0x020B, r24	; 0x80020b <prev_millis_read_rtc>
    277c:	90 93 0c 02 	sts	0x020C, r25	; 0x80020c <prev_millis_read_rtc+0x1>
    2780:	a0 93 0d 02 	sts	0x020D, r26	; 0x80020d <prev_millis_read_rtc+0x2>
    2784:	b0 93 0e 02 	sts	0x020E, r27	; 0x80020e <prev_millis_read_rtc+0x3>
                    clock_time = rtc_get_time();
    2788:	0e 94 f3 08 	call	0x11e6	; 0x11e6 <rtc_get_time>
    278c:	90 93 06 02 	sts	0x0206, r25	; 0x800206 <clock_time+0x1>
    2790:	80 93 05 02 	sts	0x0205, r24	; 0x800205 <clock_time>
    2794:	ac ce       	rjmp	.-680    	; 0x24ee <main+0x114>
            seven_segment_show_year(100 + clock_time->year);
            switch (year_state)
            {
            case YEAR_STATE_DISPLAY:

                if (t_millis - prev_millis_read_rtc > 1000)
    2796:	80 91 07 02 	lds	r24, 0x0207	; 0x800207 <t_millis>
    279a:	90 91 08 02 	lds	r25, 0x0208	; 0x800208 <t_millis+0x1>
    279e:	a0 91 09 02 	lds	r26, 0x0209	; 0x800209 <t_millis+0x2>
    27a2:	b0 91 0a 02 	lds	r27, 0x020A	; 0x80020a <t_millis+0x3>
    27a6:	40 91 0b 02 	lds	r20, 0x020B	; 0x80020b <prev_millis_read_rtc>
    27aa:	50 91 0c 02 	lds	r21, 0x020C	; 0x80020c <prev_millis_read_rtc+0x1>
    27ae:	60 91 0d 02 	lds	r22, 0x020D	; 0x80020d <prev_millis_read_rtc+0x2>
    27b2:	70 91 0e 02 	lds	r23, 0x020E	; 0x80020e <prev_millis_read_rtc+0x3>
    27b6:	6c 01       	movw	r12, r24
    27b8:	7d 01       	movw	r14, r26
    27ba:	c4 1a       	sub	r12, r20
    27bc:	d5 0a       	sbc	r13, r21
    27be:	e6 0a       	sbc	r14, r22
    27c0:	f7 0a       	sbc	r15, r23
    27c2:	b7 01       	movw	r22, r14
    27c4:	a6 01       	movw	r20, r12
    27c6:	49 3e       	cpi	r20, 0xE9	; 233
    27c8:	53 40       	sbci	r21, 0x03	; 3
    27ca:	61 05       	cpc	r22, r1
    27cc:	71 05       	cpc	r23, r1
    27ce:	08 f4       	brcc	.+2      	; 0x27d2 <main+0x3f8>
    27d0:	8e ce       	rjmp	.-740    	; 0x24ee <main+0x114>
    27d2:	d2 cf       	rjmp	.-92     	; 0x2778 <main+0x39e>
                /*
                the current time is displayed with a steady colon, but the hour portion is blinking.

                */
            case HOUR_MIN_STATE_ADJUST_HOUR:
                seven_segment_flash_digits_hours(1);
    27d4:	81 e0       	ldi	r24, 0x01	; 1
    27d6:	0e 94 33 06 	call	0xc66	; 0xc66 <seven_segment_flash_digits_hours>
                break;
    27da:	89 ce       	rjmp	.-750    	; 0x24ee <main+0x114>
            // run forever
            switch (testing_state)
            {
            // 7 segment all off
            case TESTING_STATE_ALL_OFF:
                seven_segment_clear_all();
    27dc:	0e 94 32 05 	call	0xa64	; 0xa64 <seven_segment_clear_all>
                display_updated = true;
    27e0:	10 93 dc 01 	sts	0x01DC, r17	; 0x8001dc <display_updated>
                break;
    27e4:	84 ce       	rjmp	.-760    	; 0x24ee <main+0x114>
                /*
                +- buttons switch between main states
                adjust button long press would go into adjust hour mode
                */
                case YEAR_STATE_DISPLAY:
                    button_attach_single_click(&minus_button, decrement_main_state);
    27e6:	68 e5       	ldi	r22, 0x58	; 88
    27e8:	71 e0       	ldi	r23, 0x01	; 1
    27ea:	88 eb       	ldi	r24, 0xB8	; 184
    27ec:	91 e0       	ldi	r25, 0x01	; 1
    27ee:	0e 94 70 03 	call	0x6e0	; 0x6e0 <button_attach_single_click>
                    button_attach_single_click(&plus_button, increment_main_state);
    27f2:	6b e3       	ldi	r22, 0x3B	; 59
    27f4:	71 e0       	ldi	r23, 0x01	; 1
    27f6:	8a e8       	ldi	r24, 0x8A	; 138
    27f8:	91 e0       	ldi	r25, 0x01	; 1
    27fa:	0e 94 70 03 	call	0x6e0	; 0x6e0 <button_attach_single_click>
                    button_attach_long_press(&adjust_button, swap_year_state);
    27fe:	60 ec       	ldi	r22, 0xC0	; 192
    2800:	71 e0       	ldi	r23, 0x01	; 1
    2802:	8e ed       	ldi	r24, 0xDE	; 222
    2804:	91 e0       	ldi	r25, 0x01	; 1
    2806:	0e 94 78 03 	call	0x6f0	; 0x6f0 <button_attach_long_press>
                    break;
    280a:	c4 ce       	rjmp	.-632    	; 0x2594 <main+0x1ba>
                    /*
                    +- buttons switch between main states
                    adjust button long press would go into adjust month mode
                     */
                case MONTH_DAY_STATE_DISPLAY:
                    button_attach_single_click(&minus_button, decrement_main_state);
    280c:	68 e5       	ldi	r22, 0x58	; 88
    280e:	71 e0       	ldi	r23, 0x01	; 1
    2810:	88 eb       	ldi	r24, 0xB8	; 184
    2812:	91 e0       	ldi	r25, 0x01	; 1
    2814:	0e 94 70 03 	call	0x6e0	; 0x6e0 <button_attach_single_click>
                    button_attach_single_click(&plus_button, increment_main_state);
    2818:	6b e3       	ldi	r22, 0x3B	; 59
    281a:	71 e0       	ldi	r23, 0x01	; 1
    281c:	8a e8       	ldi	r24, 0x8A	; 138
    281e:	91 e0       	ldi	r25, 0x01	; 1
    2820:	0e 94 70 03 	call	0x6e0	; 0x6e0 <button_attach_single_click>
                    button_attach_long_press(&adjust_button, swap_month_day_state);
    2824:	6d e9       	ldi	r22, 0x9D	; 157
    2826:	71 e0       	ldi	r23, 0x01	; 1
    2828:	8e ed       	ldi	r24, 0xDE	; 222
    282a:	91 e0       	ldi	r25, 0x01	; 1
    282c:	0e 94 78 03 	call	0x6f0	; 0x6f0 <button_attach_long_press>
                    break;
    2830:	f5 ce       	rjmp	.-534    	; 0x261c <main+0x242>
                    /*
                +- buttons adjust the month
                adjust button short press goes into adjust day mode
                */
                case MONTH_DAY_STATE_ADJUST_MONTH:
                    button_attach_single_click(&minus_button, decrement_month);
    2832:	69 ea       	ldi	r22, 0xA9	; 169
    2834:	70 e0       	ldi	r23, 0x00	; 0
    2836:	88 eb       	ldi	r24, 0xB8	; 184
    2838:	91 e0       	ldi	r25, 0x01	; 1
    283a:	0e 94 70 03 	call	0x6e0	; 0x6e0 <button_attach_single_click>
                    button_attach_single_click(&plus_button, increment_month);
    283e:	67 e9       	ldi	r22, 0x97	; 151
    2840:	70 e0       	ldi	r23, 0x00	; 0
    2842:	e2 ce       	rjmp	.-572    	; 0x2608 <main+0x22e>
                /*
                +- buttons switch between main states
                adjust button long press would go into adjust hour mode
                */
                case HOUR_MIN_STATE_DISPLAY:
                    button_attach_single_click(&minus_button, decrement_main_state);
    2844:	68 e5       	ldi	r22, 0x58	; 88
    2846:	71 e0       	ldi	r23, 0x01	; 1
    2848:	88 eb       	ldi	r24, 0xB8	; 184
    284a:	91 e0       	ldi	r25, 0x01	; 1
    284c:	0e 94 70 03 	call	0x6e0	; 0x6e0 <button_attach_single_click>
                    button_attach_single_click(&plus_button, increment_main_state);
    2850:	6b e3       	ldi	r22, 0x3B	; 59
    2852:	71 e0       	ldi	r23, 0x01	; 1
    2854:	8a e8       	ldi	r24, 0x8A	; 138
    2856:	91 e0       	ldi	r25, 0x01	; 1
    2858:	0e 94 70 03 	call	0x6e0	; 0x6e0 <button_attach_single_click>
                    button_attach_long_press(&adjust_button, swap_hour_min_state);
    285c:	67 e7       	ldi	r22, 0x77	; 119
    285e:	71 e0       	ldi	r23, 0x01	; 1
    2860:	8e ed       	ldi	r24, 0xDE	; 222
    2862:	91 e0       	ldi	r25, 0x01	; 1
    2864:	0e 94 78 03 	call	0x6f0	; 0x6f0 <button_attach_long_press>
                    break;
    2868:	54 cf       	rjmp	.-344    	; 0x2712 <main+0x338>
                /*
                +- buttons adjust the hour
                adjust button short press goes into adjust minute mode
                */
                case HOUR_MIN_STATE_ADJUST_HOUR:
                    button_attach_single_click(&minus_button, decrement_hour);
    286a:	63 e6       	ldi	r22, 0x63	; 99
    286c:	70 e0       	ldi	r23, 0x00	; 0
    286e:	88 eb       	ldi	r24, 0xB8	; 184
    2870:	91 e0       	ldi	r25, 0x01	; 1
    2872:	0e 94 70 03 	call	0x6e0	; 0x6e0 <button_attach_single_click>
                    button_attach_single_click(&plus_button, increment_hour);
    2876:	63 e5       	ldi	r22, 0x53	; 83
    2878:	70 e0       	ldi	r23, 0x00	; 0
    287a:	41 cf       	rjmp	.-382    	; 0x26fe <main+0x324>

0000287c <__divmodhi4>:
    287c:	97 fb       	bst	r25, 7
    287e:	07 2e       	mov	r0, r23
    2880:	16 f4       	brtc	.+4      	; 0x2886 <__divmodhi4+0xa>
    2882:	00 94       	com	r0
    2884:	07 d0       	rcall	.+14     	; 0x2894 <__divmodhi4_neg1>
    2886:	77 fd       	sbrc	r23, 7
    2888:	09 d0       	rcall	.+18     	; 0x289c <__divmodhi4_neg2>
    288a:	0e 94 63 14 	call	0x28c6	; 0x28c6 <__udivmodhi4>
    288e:	07 fc       	sbrc	r0, 7
    2890:	05 d0       	rcall	.+10     	; 0x289c <__divmodhi4_neg2>
    2892:	3e f4       	brtc	.+14     	; 0x28a2 <__divmodhi4_exit>

00002894 <__divmodhi4_neg1>:
    2894:	90 95       	com	r25
    2896:	81 95       	neg	r24
    2898:	9f 4f       	sbci	r25, 0xFF	; 255
    289a:	08 95       	ret

0000289c <__divmodhi4_neg2>:
    289c:	70 95       	com	r23
    289e:	61 95       	neg	r22
    28a0:	7f 4f       	sbci	r23, 0xFF	; 255

000028a2 <__divmodhi4_exit>:
    28a2:	08 95       	ret

000028a4 <__tablejump2__>:
    28a4:	ee 0f       	add	r30, r30
    28a6:	ff 1f       	adc	r31, r31
    28a8:	05 90       	lpm	r0, Z+
    28aa:	f4 91       	lpm	r31, Z
    28ac:	e0 2d       	mov	r30, r0
    28ae:	09 94       	ijmp

000028b0 <__muluhisi3>:
    28b0:	0e 94 77 14 	call	0x28ee	; 0x28ee <__umulhisi3>
    28b4:	a5 9f       	mul	r26, r21
    28b6:	90 0d       	add	r25, r0
    28b8:	b4 9f       	mul	r27, r20
    28ba:	90 0d       	add	r25, r0
    28bc:	a4 9f       	mul	r26, r20
    28be:	80 0d       	add	r24, r0
    28c0:	91 1d       	adc	r25, r1
    28c2:	11 24       	eor	r1, r1
    28c4:	08 95       	ret

000028c6 <__udivmodhi4>:
    28c6:	aa 1b       	sub	r26, r26
    28c8:	bb 1b       	sub	r27, r27
    28ca:	51 e1       	ldi	r21, 0x11	; 17
    28cc:	07 c0       	rjmp	.+14     	; 0x28dc <__udivmodhi4_ep>

000028ce <__udivmodhi4_loop>:
    28ce:	aa 1f       	adc	r26, r26
    28d0:	bb 1f       	adc	r27, r27
    28d2:	a6 17       	cp	r26, r22
    28d4:	b7 07       	cpc	r27, r23
    28d6:	10 f0       	brcs	.+4      	; 0x28dc <__udivmodhi4_ep>
    28d8:	a6 1b       	sub	r26, r22
    28da:	b7 0b       	sbc	r27, r23

000028dc <__udivmodhi4_ep>:
    28dc:	88 1f       	adc	r24, r24
    28de:	99 1f       	adc	r25, r25
    28e0:	5a 95       	dec	r21
    28e2:	a9 f7       	brne	.-22     	; 0x28ce <__udivmodhi4_loop>
    28e4:	80 95       	com	r24
    28e6:	90 95       	com	r25
    28e8:	bc 01       	movw	r22, r24
    28ea:	cd 01       	movw	r24, r26
    28ec:	08 95       	ret

000028ee <__umulhisi3>:
    28ee:	a2 9f       	mul	r26, r18
    28f0:	b0 01       	movw	r22, r0
    28f2:	b3 9f       	mul	r27, r19
    28f4:	c0 01       	movw	r24, r0
    28f6:	a3 9f       	mul	r26, r19
    28f8:	70 0d       	add	r23, r0
    28fa:	81 1d       	adc	r24, r1
    28fc:	11 24       	eor	r1, r1
    28fe:	91 1d       	adc	r25, r1
    2900:	b2 9f       	mul	r27, r18
    2902:	70 0d       	add	r23, r0
    2904:	81 1d       	adc	r24, r1
    2906:	11 24       	eor	r1, r1
    2908:	91 1d       	adc	r25, r1
    290a:	08 95       	ret

0000290c <__cmpsf2>:
    290c:	0e 94 c1 14 	call	0x2982	; 0x2982 <__fp_cmp>
    2910:	08 f4       	brcc	.+2      	; 0x2914 <__cmpsf2+0x8>
    2912:	81 e0       	ldi	r24, 0x01	; 1
    2914:	08 95       	ret

00002916 <__fixsfsi>:
    2916:	0e 94 92 14 	call	0x2924	; 0x2924 <__fixunssfsi>
    291a:	68 94       	set
    291c:	b1 11       	cpse	r27, r1
    291e:	0c 94 08 15 	jmp	0x2a10	; 0x2a10 <__fp_szero>
    2922:	08 95       	ret

00002924 <__fixunssfsi>:
    2924:	0e 94 ed 14 	call	0x29da	; 0x29da <__fp_splitA>
    2928:	88 f0       	brcs	.+34     	; 0x294c <__fixunssfsi+0x28>
    292a:	9f 57       	subi	r25, 0x7F	; 127
    292c:	98 f0       	brcs	.+38     	; 0x2954 <__fixunssfsi+0x30>
    292e:	b9 2f       	mov	r27, r25
    2930:	99 27       	eor	r25, r25
    2932:	b7 51       	subi	r27, 0x17	; 23
    2934:	b0 f0       	brcs	.+44     	; 0x2962 <__fixunssfsi+0x3e>
    2936:	e1 f0       	breq	.+56     	; 0x2970 <__fixunssfsi+0x4c>
    2938:	66 0f       	add	r22, r22
    293a:	77 1f       	adc	r23, r23
    293c:	88 1f       	adc	r24, r24
    293e:	99 1f       	adc	r25, r25
    2940:	1a f0       	brmi	.+6      	; 0x2948 <__fixunssfsi+0x24>
    2942:	ba 95       	dec	r27
    2944:	c9 f7       	brne	.-14     	; 0x2938 <__fixunssfsi+0x14>
    2946:	14 c0       	rjmp	.+40     	; 0x2970 <__fixunssfsi+0x4c>
    2948:	b1 30       	cpi	r27, 0x01	; 1
    294a:	91 f0       	breq	.+36     	; 0x2970 <__fixunssfsi+0x4c>
    294c:	0e 94 07 15 	call	0x2a0e	; 0x2a0e <__fp_zero>
    2950:	b1 e0       	ldi	r27, 0x01	; 1
    2952:	08 95       	ret
    2954:	0c 94 07 15 	jmp	0x2a0e	; 0x2a0e <__fp_zero>
    2958:	67 2f       	mov	r22, r23
    295a:	78 2f       	mov	r23, r24
    295c:	88 27       	eor	r24, r24
    295e:	b8 5f       	subi	r27, 0xF8	; 248
    2960:	39 f0       	breq	.+14     	; 0x2970 <__fixunssfsi+0x4c>
    2962:	b9 3f       	cpi	r27, 0xF9	; 249
    2964:	cc f3       	brlt	.-14     	; 0x2958 <__fixunssfsi+0x34>
    2966:	86 95       	lsr	r24
    2968:	77 95       	ror	r23
    296a:	67 95       	ror	r22
    296c:	b3 95       	inc	r27
    296e:	d9 f7       	brne	.-10     	; 0x2966 <__fixunssfsi+0x42>
    2970:	3e f4       	brtc	.+14     	; 0x2980 <__fixunssfsi+0x5c>
    2972:	90 95       	com	r25
    2974:	80 95       	com	r24
    2976:	70 95       	com	r23
    2978:	61 95       	neg	r22
    297a:	7f 4f       	sbci	r23, 0xFF	; 255
    297c:	8f 4f       	sbci	r24, 0xFF	; 255
    297e:	9f 4f       	sbci	r25, 0xFF	; 255
    2980:	08 95       	ret

00002982 <__fp_cmp>:
    2982:	99 0f       	add	r25, r25
    2984:	00 08       	sbc	r0, r0
    2986:	55 0f       	add	r21, r21
    2988:	aa 0b       	sbc	r26, r26
    298a:	e0 e8       	ldi	r30, 0x80	; 128
    298c:	fe ef       	ldi	r31, 0xFE	; 254
    298e:	16 16       	cp	r1, r22
    2990:	17 06       	cpc	r1, r23
    2992:	e8 07       	cpc	r30, r24
    2994:	f9 07       	cpc	r31, r25
    2996:	c0 f0       	brcs	.+48     	; 0x29c8 <__fp_cmp+0x46>
    2998:	12 16       	cp	r1, r18
    299a:	13 06       	cpc	r1, r19
    299c:	e4 07       	cpc	r30, r20
    299e:	f5 07       	cpc	r31, r21
    29a0:	98 f0       	brcs	.+38     	; 0x29c8 <__fp_cmp+0x46>
    29a2:	62 1b       	sub	r22, r18
    29a4:	73 0b       	sbc	r23, r19
    29a6:	84 0b       	sbc	r24, r20
    29a8:	95 0b       	sbc	r25, r21
    29aa:	39 f4       	brne	.+14     	; 0x29ba <__fp_cmp+0x38>
    29ac:	0a 26       	eor	r0, r26
    29ae:	61 f0       	breq	.+24     	; 0x29c8 <__fp_cmp+0x46>
    29b0:	23 2b       	or	r18, r19
    29b2:	24 2b       	or	r18, r20
    29b4:	25 2b       	or	r18, r21
    29b6:	21 f4       	brne	.+8      	; 0x29c0 <__fp_cmp+0x3e>
    29b8:	08 95       	ret
    29ba:	0a 26       	eor	r0, r26
    29bc:	09 f4       	brne	.+2      	; 0x29c0 <__fp_cmp+0x3e>
    29be:	a1 40       	sbci	r26, 0x01	; 1
    29c0:	a6 95       	lsr	r26
    29c2:	8f ef       	ldi	r24, 0xFF	; 255
    29c4:	81 1d       	adc	r24, r1
    29c6:	81 1d       	adc	r24, r1
    29c8:	08 95       	ret

000029ca <__fp_split3>:
    29ca:	57 fd       	sbrc	r21, 7
    29cc:	90 58       	subi	r25, 0x80	; 128
    29ce:	44 0f       	add	r20, r20
    29d0:	55 1f       	adc	r21, r21
    29d2:	59 f0       	breq	.+22     	; 0x29ea <__fp_splitA+0x10>
    29d4:	5f 3f       	cpi	r21, 0xFF	; 255
    29d6:	71 f0       	breq	.+28     	; 0x29f4 <__fp_splitA+0x1a>
    29d8:	47 95       	ror	r20

000029da <__fp_splitA>:
    29da:	88 0f       	add	r24, r24
    29dc:	97 fb       	bst	r25, 7
    29de:	99 1f       	adc	r25, r25
    29e0:	61 f0       	breq	.+24     	; 0x29fa <__fp_splitA+0x20>
    29e2:	9f 3f       	cpi	r25, 0xFF	; 255
    29e4:	79 f0       	breq	.+30     	; 0x2a04 <__fp_splitA+0x2a>
    29e6:	87 95       	ror	r24
    29e8:	08 95       	ret
    29ea:	12 16       	cp	r1, r18
    29ec:	13 06       	cpc	r1, r19
    29ee:	14 06       	cpc	r1, r20
    29f0:	55 1f       	adc	r21, r21
    29f2:	f2 cf       	rjmp	.-28     	; 0x29d8 <__fp_split3+0xe>
    29f4:	46 95       	lsr	r20
    29f6:	f1 df       	rcall	.-30     	; 0x29da <__fp_splitA>
    29f8:	08 c0       	rjmp	.+16     	; 0x2a0a <__fp_splitA+0x30>
    29fa:	16 16       	cp	r1, r22
    29fc:	17 06       	cpc	r1, r23
    29fe:	18 06       	cpc	r1, r24
    2a00:	99 1f       	adc	r25, r25
    2a02:	f1 cf       	rjmp	.-30     	; 0x29e6 <__fp_splitA+0xc>
    2a04:	86 95       	lsr	r24
    2a06:	71 05       	cpc	r23, r1
    2a08:	61 05       	cpc	r22, r1
    2a0a:	08 94       	sec
    2a0c:	08 95       	ret

00002a0e <__fp_zero>:
    2a0e:	e8 94       	clt

00002a10 <__fp_szero>:
    2a10:	bb 27       	eor	r27, r27
    2a12:	66 27       	eor	r22, r22
    2a14:	77 27       	eor	r23, r23
    2a16:	cb 01       	movw	r24, r22
    2a18:	97 f9       	bld	r25, 7
    2a1a:	08 95       	ret

00002a1c <__gesf2>:
    2a1c:	0e 94 c1 14 	call	0x2982	; 0x2982 <__fp_cmp>
    2a20:	08 f4       	brcc	.+2      	; 0x2a24 <__gesf2+0x8>
    2a22:	8f ef       	ldi	r24, 0xFF	; 255
    2a24:	08 95       	ret

00002a26 <__mulsf3>:
    2a26:	0e 94 26 15 	call	0x2a4c	; 0x2a4c <__mulsf3x>
    2a2a:	0c 94 97 15 	jmp	0x2b2e	; 0x2b2e <__fp_round>
    2a2e:	0e 94 89 15 	call	0x2b12	; 0x2b12 <__fp_pscA>
    2a32:	38 f0       	brcs	.+14     	; 0x2a42 <__mulsf3+0x1c>
    2a34:	0e 94 90 15 	call	0x2b20	; 0x2b20 <__fp_pscB>
    2a38:	20 f0       	brcs	.+8      	; 0x2a42 <__mulsf3+0x1c>
    2a3a:	95 23       	and	r25, r21
    2a3c:	11 f0       	breq	.+4      	; 0x2a42 <__mulsf3+0x1c>
    2a3e:	0c 94 80 15 	jmp	0x2b00	; 0x2b00 <__fp_inf>
    2a42:	0c 94 86 15 	jmp	0x2b0c	; 0x2b0c <__fp_nan>
    2a46:	11 24       	eor	r1, r1
    2a48:	0c 94 08 15 	jmp	0x2a10	; 0x2a10 <__fp_szero>

00002a4c <__mulsf3x>:
    2a4c:	0e 94 e5 14 	call	0x29ca	; 0x29ca <__fp_split3>
    2a50:	70 f3       	brcs	.-36     	; 0x2a2e <__mulsf3+0x8>

00002a52 <__mulsf3_pse>:
    2a52:	95 9f       	mul	r25, r21
    2a54:	c1 f3       	breq	.-16     	; 0x2a46 <__mulsf3+0x20>
    2a56:	95 0f       	add	r25, r21
    2a58:	50 e0       	ldi	r21, 0x00	; 0
    2a5a:	55 1f       	adc	r21, r21
    2a5c:	62 9f       	mul	r22, r18
    2a5e:	f0 01       	movw	r30, r0
    2a60:	72 9f       	mul	r23, r18
    2a62:	bb 27       	eor	r27, r27
    2a64:	f0 0d       	add	r31, r0
    2a66:	b1 1d       	adc	r27, r1
    2a68:	63 9f       	mul	r22, r19
    2a6a:	aa 27       	eor	r26, r26
    2a6c:	f0 0d       	add	r31, r0
    2a6e:	b1 1d       	adc	r27, r1
    2a70:	aa 1f       	adc	r26, r26
    2a72:	64 9f       	mul	r22, r20
    2a74:	66 27       	eor	r22, r22
    2a76:	b0 0d       	add	r27, r0
    2a78:	a1 1d       	adc	r26, r1
    2a7a:	66 1f       	adc	r22, r22
    2a7c:	82 9f       	mul	r24, r18
    2a7e:	22 27       	eor	r18, r18
    2a80:	b0 0d       	add	r27, r0
    2a82:	a1 1d       	adc	r26, r1
    2a84:	62 1f       	adc	r22, r18
    2a86:	73 9f       	mul	r23, r19
    2a88:	b0 0d       	add	r27, r0
    2a8a:	a1 1d       	adc	r26, r1
    2a8c:	62 1f       	adc	r22, r18
    2a8e:	83 9f       	mul	r24, r19
    2a90:	a0 0d       	add	r26, r0
    2a92:	61 1d       	adc	r22, r1
    2a94:	22 1f       	adc	r18, r18
    2a96:	74 9f       	mul	r23, r20
    2a98:	33 27       	eor	r19, r19
    2a9a:	a0 0d       	add	r26, r0
    2a9c:	61 1d       	adc	r22, r1
    2a9e:	23 1f       	adc	r18, r19
    2aa0:	84 9f       	mul	r24, r20
    2aa2:	60 0d       	add	r22, r0
    2aa4:	21 1d       	adc	r18, r1
    2aa6:	82 2f       	mov	r24, r18
    2aa8:	76 2f       	mov	r23, r22
    2aaa:	6a 2f       	mov	r22, r26
    2aac:	11 24       	eor	r1, r1
    2aae:	9f 57       	subi	r25, 0x7F	; 127
    2ab0:	50 40       	sbci	r21, 0x00	; 0
    2ab2:	9a f0       	brmi	.+38     	; 0x2ada <__mulsf3_pse+0x88>
    2ab4:	f1 f0       	breq	.+60     	; 0x2af2 <__mulsf3_pse+0xa0>
    2ab6:	88 23       	and	r24, r24
    2ab8:	4a f0       	brmi	.+18     	; 0x2acc <__mulsf3_pse+0x7a>
    2aba:	ee 0f       	add	r30, r30
    2abc:	ff 1f       	adc	r31, r31
    2abe:	bb 1f       	adc	r27, r27
    2ac0:	66 1f       	adc	r22, r22
    2ac2:	77 1f       	adc	r23, r23
    2ac4:	88 1f       	adc	r24, r24
    2ac6:	91 50       	subi	r25, 0x01	; 1
    2ac8:	50 40       	sbci	r21, 0x00	; 0
    2aca:	a9 f7       	brne	.-22     	; 0x2ab6 <__mulsf3_pse+0x64>
    2acc:	9e 3f       	cpi	r25, 0xFE	; 254
    2ace:	51 05       	cpc	r21, r1
    2ad0:	80 f0       	brcs	.+32     	; 0x2af2 <__mulsf3_pse+0xa0>
    2ad2:	0c 94 80 15 	jmp	0x2b00	; 0x2b00 <__fp_inf>
    2ad6:	0c 94 08 15 	jmp	0x2a10	; 0x2a10 <__fp_szero>
    2ada:	5f 3f       	cpi	r21, 0xFF	; 255
    2adc:	e4 f3       	brlt	.-8      	; 0x2ad6 <__mulsf3_pse+0x84>
    2ade:	98 3e       	cpi	r25, 0xE8	; 232
    2ae0:	d4 f3       	brlt	.-12     	; 0x2ad6 <__mulsf3_pse+0x84>
    2ae2:	86 95       	lsr	r24
    2ae4:	77 95       	ror	r23
    2ae6:	67 95       	ror	r22
    2ae8:	b7 95       	ror	r27
    2aea:	f7 95       	ror	r31
    2aec:	e7 95       	ror	r30
    2aee:	9f 5f       	subi	r25, 0xFF	; 255
    2af0:	c1 f7       	brne	.-16     	; 0x2ae2 <__mulsf3_pse+0x90>
    2af2:	fe 2b       	or	r31, r30
    2af4:	88 0f       	add	r24, r24
    2af6:	91 1d       	adc	r25, r1
    2af8:	96 95       	lsr	r25
    2afa:	87 95       	ror	r24
    2afc:	97 f9       	bld	r25, 7
    2afe:	08 95       	ret

00002b00 <__fp_inf>:
    2b00:	97 f9       	bld	r25, 7
    2b02:	9f 67       	ori	r25, 0x7F	; 127
    2b04:	80 e8       	ldi	r24, 0x80	; 128
    2b06:	70 e0       	ldi	r23, 0x00	; 0
    2b08:	60 e0       	ldi	r22, 0x00	; 0
    2b0a:	08 95       	ret

00002b0c <__fp_nan>:
    2b0c:	9f ef       	ldi	r25, 0xFF	; 255
    2b0e:	80 ec       	ldi	r24, 0xC0	; 192
    2b10:	08 95       	ret

00002b12 <__fp_pscA>:
    2b12:	00 24       	eor	r0, r0
    2b14:	0a 94       	dec	r0
    2b16:	16 16       	cp	r1, r22
    2b18:	17 06       	cpc	r1, r23
    2b1a:	18 06       	cpc	r1, r24
    2b1c:	09 06       	cpc	r0, r25
    2b1e:	08 95       	ret

00002b20 <__fp_pscB>:
    2b20:	00 24       	eor	r0, r0
    2b22:	0a 94       	dec	r0
    2b24:	12 16       	cp	r1, r18
    2b26:	13 06       	cpc	r1, r19
    2b28:	14 06       	cpc	r1, r20
    2b2a:	05 06       	cpc	r0, r21
    2b2c:	08 95       	ret

00002b2e <__fp_round>:
    2b2e:	09 2e       	mov	r0, r25
    2b30:	03 94       	inc	r0
    2b32:	00 0c       	add	r0, r0
    2b34:	11 f4       	brne	.+4      	; 0x2b3a <__fp_round+0xc>
    2b36:	88 23       	and	r24, r24
    2b38:	52 f0       	brmi	.+20     	; 0x2b4e <__fp_round+0x20>
    2b3a:	bb 0f       	add	r27, r27
    2b3c:	40 f4       	brcc	.+16     	; 0x2b4e <__fp_round+0x20>
    2b3e:	bf 2b       	or	r27, r31
    2b40:	11 f4       	brne	.+4      	; 0x2b46 <__fp_round+0x18>
    2b42:	60 ff       	sbrs	r22, 0
    2b44:	04 c0       	rjmp	.+8      	; 0x2b4e <__fp_round+0x20>
    2b46:	6f 5f       	subi	r22, 0xFF	; 255
    2b48:	7f 4f       	sbci	r23, 0xFF	; 255
    2b4a:	8f 4f       	sbci	r24, 0xFF	; 255
    2b4c:	9f 4f       	sbci	r25, 0xFF	; 255
    2b4e:	08 95       	ret

00002b50 <_exit>:
    2b50:	f8 94       	cli

00002b52 <__stop_program>:
    2b52:	ff cf       	rjmp	.-2      	; 0x2b52 <__stop_program>
