
main.elf:     file format elf32-avr

Sections:
Idx Name          Size      VMA       LMA       File off  Algn
  0 .data         00000012  00800100  000011ac  00001240  2**0
                  CONTENTS, ALLOC, LOAD, DATA
  1 .text         000011ac  00000000  00000000  00000094  2**1
                  CONTENTS, ALLOC, LOAD, READONLY, CODE
  2 .bss          000000eb  00800112  00800112  00001252  2**0
                  ALLOC
  3 .stab         00003498  00000000  00000000  00001254  2**2
                  CONTENTS, READONLY, DEBUGGING
  4 .stabstr      00002215  00000000  00000000  000046ec  2**0
                  CONTENTS, READONLY, DEBUGGING
  5 .comment      00000011  00000000  00000000  00006901  2**0
                  CONTENTS, READONLY
  6 .note.gnu.avr.deviceinfo 00000040  00000000  00000000  00006914  2**2
                  CONTENTS, READONLY
  7 .avr.prop     00000016  00000000  00000000  00006954  2**0
                  CONTENTS, READONLY
  8 .debug_info   000005f4  00000000  00000000  0000696a  2**0
                  CONTENTS, READONLY, DEBUGGING
  9 .debug_abbrev 000005a2  00000000  00000000  00006f5e  2**0
                  CONTENTS, READONLY, DEBUGGING
 10 .debug_line   0000001a  00000000  00000000  00007500  2**0
                  CONTENTS, READONLY, DEBUGGING
 11 .debug_str    00000208  00000000  00000000  0000751a  2**0
                  CONTENTS, READONLY, DEBUGGING

Disassembly of section .text:

00000000 <__vectors>:
       0:	0c 94 34 00 	jmp	0x68	; 0x68 <__ctors_end>
       4:	0c 94 51 00 	jmp	0xa2	; 0xa2 <__bad_interrupt>
       8:	0c 94 51 00 	jmp	0xa2	; 0xa2 <__bad_interrupt>
       c:	0c 94 51 00 	jmp	0xa2	; 0xa2 <__bad_interrupt>
      10:	0c 94 51 00 	jmp	0xa2	; 0xa2 <__bad_interrupt>
      14:	0c 94 51 00 	jmp	0xa2	; 0xa2 <__bad_interrupt>
      18:	0c 94 51 00 	jmp	0xa2	; 0xa2 <__bad_interrupt>
      1c:	0c 94 cb 00 	jmp	0x196	; 0x196 <__vector_7>
      20:	0c 94 51 00 	jmp	0xa2	; 0xa2 <__bad_interrupt>
      24:	0c 94 51 00 	jmp	0xa2	; 0xa2 <__bad_interrupt>
      28:	0c 94 51 00 	jmp	0xa2	; 0xa2 <__bad_interrupt>
      2c:	0c 94 51 00 	jmp	0xa2	; 0xa2 <__bad_interrupt>
      30:	0c 94 51 00 	jmp	0xa2	; 0xa2 <__bad_interrupt>
      34:	0c 94 51 00 	jmp	0xa2	; 0xa2 <__bad_interrupt>
      38:	0c 94 a5 00 	jmp	0x14a	; 0x14a <__vector_14>
      3c:	0c 94 51 00 	jmp	0xa2	; 0xa2 <__bad_interrupt>
      40:	0c 94 51 00 	jmp	0xa2	; 0xa2 <__bad_interrupt>
      44:	0c 94 51 00 	jmp	0xa2	; 0xa2 <__bad_interrupt>
      48:	0c 94 51 00 	jmp	0xa2	; 0xa2 <__bad_interrupt>
      4c:	0c 94 51 00 	jmp	0xa2	; 0xa2 <__bad_interrupt>
      50:	0c 94 51 00 	jmp	0xa2	; 0xa2 <__bad_interrupt>
      54:	0c 94 51 00 	jmp	0xa2	; 0xa2 <__bad_interrupt>
      58:	0c 94 51 00 	jmp	0xa2	; 0xa2 <__bad_interrupt>
      5c:	0c 94 51 00 	jmp	0xa2	; 0xa2 <__bad_interrupt>
      60:	0c 94 51 00 	jmp	0xa2	; 0xa2 <__bad_interrupt>
      64:	0c 94 51 00 	jmp	0xa2	; 0xa2 <__bad_interrupt>

00000068 <__ctors_end>:
      68:	11 24       	eor	r1, r1
      6a:	1f be       	out	0x3f, r1	; 63
      6c:	cf ef       	ldi	r28, 0xFF	; 255
      6e:	d8 e0       	ldi	r29, 0x08	; 8
      70:	de bf       	out	0x3e, r29	; 62
      72:	cd bf       	out	0x3d, r28	; 61

00000074 <__do_copy_data>:
      74:	11 e0       	ldi	r17, 0x01	; 1
      76:	a0 e0       	ldi	r26, 0x00	; 0
      78:	b1 e0       	ldi	r27, 0x01	; 1
      7a:	ec ea       	ldi	r30, 0xAC	; 172
      7c:	f1 e1       	ldi	r31, 0x11	; 17
      7e:	02 c0       	rjmp	.+4      	; 0x84 <__do_copy_data+0x10>
      80:	05 90       	lpm	r0, Z+
      82:	0d 92       	st	X+, r0
      84:	a2 31       	cpi	r26, 0x12	; 18
      86:	b1 07       	cpc	r27, r17
      88:	d9 f7       	brne	.-10     	; 0x80 <__do_copy_data+0xc>

0000008a <__do_clear_bss>:
      8a:	21 e0       	ldi	r18, 0x01	; 1
      8c:	a2 e1       	ldi	r26, 0x12	; 18
      8e:	b1 e0       	ldi	r27, 0x01	; 1
      90:	01 c0       	rjmp	.+2      	; 0x94 <.do_clear_bss_start>

00000092 <.do_clear_bss_loop>:
      92:	1d 92       	st	X+, r1

00000094 <.do_clear_bss_start>:
      94:	ad 3f       	cpi	r26, 0xFD	; 253
      96:	b2 07       	cpc	r27, r18
      98:	e1 f7       	brne	.-8      	; 0x92 <.do_clear_bss_loop>
      9a:	0e 94 a9 06 	call	0xd52	; 0xd52 <main>
      9e:	0c 94 d4 08 	jmp	0x11a8	; 0x11a8 <_exit>

000000a2 <__bad_interrupt>:
      a2:	0c 94 00 00 	jmp	0	; 0x0 <__vectors>

000000a6 <increment_alarm_clock_state>:
/**
 * button callback to increment through all main alarm clock FSM states.
 */
void increment_alarm_clock_state(void)
{
    if (main_state == MAIN_STATE_TESTING)
      a6:	80 91 40 01 	lds	r24, 0x0140	; 0x800140 <main_state>
      aa:	90 91 41 01 	lds	r25, 0x0141	; 0x800141 <main_state+0x1>
      ae:	06 97       	sbiw	r24, 0x06	; 6
      b0:	71 f0       	breq	.+28     	; 0xce <increment_alarm_clock_state+0x28>
    {
        main_state = MAIN_STATE_HOUR_MIN;
    }
    else
    {
        main_state++;
      b2:	80 91 40 01 	lds	r24, 0x0140	; 0x800140 <main_state>
      b6:	90 91 41 01 	lds	r25, 0x0141	; 0x800141 <main_state+0x1>
      ba:	01 96       	adiw	r24, 0x01	; 1
      bc:	90 93 41 01 	sts	0x0141, r25	; 0x800141 <main_state+0x1>
      c0:	80 93 40 01 	sts	0x0140, r24	; 0x800140 <main_state>
 * set the state_start and display_updated flags false when a new main FSM state
 * is entered.
 */
void new_state_start()
{
    state_start = false;
      c4:	10 92 69 01 	sts	0x0169, r1	; 0x800169 <state_start>
    display_updated = false;
      c8:	10 92 68 01 	sts	0x0168, r1	; 0x800168 <display_updated>
    else
    {
        main_state++;
    }
    new_state_start();
}
      cc:	08 95       	ret
 */
void increment_alarm_clock_state(void)
{
    if (main_state == MAIN_STATE_TESTING)
    {
        main_state = MAIN_STATE_HOUR_MIN;
      ce:	10 92 41 01 	sts	0x0141, r1	; 0x800141 <main_state+0x1>
      d2:	10 92 40 01 	sts	0x0140, r1	; 0x800140 <main_state>
 * set the state_start and display_updated flags false when a new main FSM state
 * is entered.
 */
void new_state_start()
{
    state_start = false;
      d6:	10 92 69 01 	sts	0x0169, r1	; 0x800169 <state_start>
    display_updated = false;
      da:	10 92 68 01 	sts	0x0168, r1	; 0x800168 <display_updated>
    else
    {
        main_state++;
    }
    new_state_start();
}
      de:	08 95       	ret

000000e0 <decrement_alarm_clock_state>:
/**
 * button callback to decrement through all main alarm clock FSM states.
 */
void decrement_alarm_clock_state(void)
{
    if (main_state == MAIN_STATE_HOUR_MIN)
      e0:	80 91 40 01 	lds	r24, 0x0140	; 0x800140 <main_state>
      e4:	90 91 41 01 	lds	r25, 0x0141	; 0x800141 <main_state+0x1>
      e8:	89 2b       	or	r24, r25
      ea:	71 f0       	breq	.+28     	; 0x108 <decrement_alarm_clock_state+0x28>
    {
        main_state = MAIN_STATE_TESTING;
    }
    else
    {
        main_state--;
      ec:	80 91 40 01 	lds	r24, 0x0140	; 0x800140 <main_state>
      f0:	90 91 41 01 	lds	r25, 0x0141	; 0x800141 <main_state+0x1>
      f4:	01 97       	sbiw	r24, 0x01	; 1
      f6:	90 93 41 01 	sts	0x0141, r25	; 0x800141 <main_state+0x1>
      fa:	80 93 40 01 	sts	0x0140, r24	; 0x800140 <main_state>
 * set the state_start and display_updated flags false when a new main FSM state
 * is entered.
 */
void new_state_start()
{
    state_start = false;
      fe:	10 92 69 01 	sts	0x0169, r1	; 0x800169 <state_start>
    display_updated = false;
     102:	10 92 68 01 	sts	0x0168, r1	; 0x800168 <display_updated>
    else
    {
        main_state--;
    }
    new_state_start();
}
     106:	08 95       	ret
 */
void decrement_alarm_clock_state(void)
{
    if (main_state == MAIN_STATE_HOUR_MIN)
    {
        main_state = MAIN_STATE_TESTING;
     108:	86 e0       	ldi	r24, 0x06	; 6
     10a:	90 e0       	ldi	r25, 0x00	; 0
     10c:	90 93 41 01 	sts	0x0141, r25	; 0x800141 <main_state+0x1>
     110:	80 93 40 01 	sts	0x0140, r24	; 0x800140 <main_state>
 * set the state_start and display_updated flags false when a new main FSM state
 * is entered.
 */
void new_state_start()
{
    state_start = false;
     114:	10 92 69 01 	sts	0x0169, r1	; 0x800169 <state_start>
    display_updated = false;
     118:	10 92 68 01 	sts	0x0168, r1	; 0x800168 <display_updated>
    else
    {
        main_state--;
    }
    new_state_start();
}
     11c:	08 95       	ret

0000011e <swap_testing_state>:
}

/* swap through the different states in the display testing state */
void swap_testing_state(void)
{
    testing_state++;
     11e:	80 91 3a 01 	lds	r24, 0x013A	; 0x80013a <testing_state>
     122:	90 91 3b 01 	lds	r25, 0x013B	; 0x80013b <testing_state+0x1>
     126:	01 96       	adiw	r24, 0x01	; 1
     128:	90 93 3b 01 	sts	0x013B, r25	; 0x80013b <testing_state+0x1>
     12c:	80 93 3a 01 	sts	0x013A, r24	; 0x80013a <testing_state>
    if (testing_state == TESTING_STATE_END)
     130:	80 91 3a 01 	lds	r24, 0x013A	; 0x80013a <testing_state>
     134:	90 91 3b 01 	lds	r25, 0x013B	; 0x80013b <testing_state+0x1>
     138:	02 97       	sbiw	r24, 0x02	; 2
     13a:	21 f4       	brne	.+8      	; 0x144 <swap_testing_state+0x26>
    {
        testing_state = TESTING_STATE_ALL_OFF;
     13c:	10 92 3b 01 	sts	0x013B, r1	; 0x80013b <testing_state+0x1>
     140:	10 92 3a 01 	sts	0x013A, r1	; 0x80013a <testing_state>
    }
    display_updated = false;
     144:	10 92 68 01 	sts	0x0168, r1	; 0x800168 <display_updated>
}
     148:	08 95       	ret

0000014a <__vector_14>:
uint32_t t_millis;
Button minus_button, adjust_button, plus_button;

// interrupts
ISR(TIMER0_COMPA_vect)
{
     14a:	1f 92       	push	r1
     14c:	0f 92       	push	r0
     14e:	0f b6       	in	r0, 0x3f	; 63
     150:	0f 92       	push	r0
     152:	11 24       	eor	r1, r1
     154:	2f 93       	push	r18
     156:	3f 93       	push	r19
     158:	4f 93       	push	r20
     15a:	5f 93       	push	r21
     15c:	6f 93       	push	r22
     15e:	7f 93       	push	r23
     160:	8f 93       	push	r24
     162:	9f 93       	push	r25
     164:	af 93       	push	r26
     166:	bf 93       	push	r27
     168:	ef 93       	push	r30
     16a:	ff 93       	push	r31
    millis_timer_ISR_loop();
     16c:	0e 94 74 01 	call	0x2e8	; 0x2e8 <millis_timer_ISR_loop>
    // piezo_loop_ISR();
    seven_segment_loop_isr();
     170:	0e 94 30 04 	call	0x860	; 0x860 <seven_segment_loop_isr>
}
     174:	ff 91       	pop	r31
     176:	ef 91       	pop	r30
     178:	bf 91       	pop	r27
     17a:	af 91       	pop	r26
     17c:	9f 91       	pop	r25
     17e:	8f 91       	pop	r24
     180:	7f 91       	pop	r23
     182:	6f 91       	pop	r22
     184:	5f 91       	pop	r21
     186:	4f 91       	pop	r20
     188:	3f 91       	pop	r19
     18a:	2f 91       	pop	r18
     18c:	0f 90       	pop	r0
     18e:	0f be       	out	0x3f, r0	; 63
     190:	0f 90       	pop	r0
     192:	1f 90       	pop	r1
     194:	18 95       	reti

00000196 <__vector_7>:

ISR(TIMER2_COMPA_vect)
{
     196:	1f 92       	push	r1
     198:	0f 92       	push	r0
     19a:	0f b6       	in	r0, 0x3f	; 63
     19c:	0f 92       	push	r0
     19e:	11 24       	eor	r1, r1
}
     1a0:	0f 90       	pop	r0
     1a2:	0f be       	out	0x3f, r0	; 63
     1a4:	0f 90       	pop	r0
     1a6:	1f 90       	pop	r1
     1a8:	18 95       	reti

000001aa <timer2_init>:
    // WGM = 010, CTC mode
    // COM2A = 00, OC2A disconnected
    // CS2 = 100, prescaler 1/256, 16us per increment
    // OCR2A = 250 - 1 = 249, 250 * 16us = 4ms
    // enable OCIE2A, output compare match A interrupt handle
    TCCR2A = 0;
     1aa:	a0 eb       	ldi	r26, 0xB0	; 176
     1ac:	b0 e0       	ldi	r27, 0x00	; 0
     1ae:	1c 92       	st	X, r1
    TCCR2B = 0;
     1b0:	e1 eb       	ldi	r30, 0xB1	; 177
     1b2:	f0 e0       	ldi	r31, 0x00	; 0
     1b4:	10 82       	st	Z, r1
    TCCR2A |= _BV(WGM21);
     1b6:	8c 91       	ld	r24, X
     1b8:	82 60       	ori	r24, 0x02	; 2
     1ba:	8c 93       	st	X, r24
    TCCR2B |= _BV(CS22) | _BV(CS21);
     1bc:	80 81       	ld	r24, Z
     1be:	86 60       	ori	r24, 0x06	; 6
     1c0:	80 83       	st	Z, r24
    TIMSK2 |= _BV(OCIE2A);
     1c2:	e0 e7       	ldi	r30, 0x70	; 112
     1c4:	f0 e0       	ldi	r31, 0x00	; 0
     1c6:	80 81       	ld	r24, Z
     1c8:	82 60       	ori	r24, 0x02	; 2
     1ca:	80 83       	st	Z, r24
    OCR2A = 249;
     1cc:	89 ef       	ldi	r24, 0xF9	; 249
     1ce:	80 93 b3 00 	sts	0x00B3, r24	; 0x8000b3 <__TEXT_REGION_LENGTH__+0x7f80b3>
    sei();
     1d2:	78 94       	sei
}
     1d4:	08 95       	ret

000001d6 <new_state_start>:
 * set the state_start and display_updated flags false when a new main FSM state
 * is entered.
 */
void new_state_start()
{
    state_start = false;
     1d6:	10 92 69 01 	sts	0x0169, r1	; 0x800169 <state_start>
    display_updated = false;
     1da:	10 92 68 01 	sts	0x0168, r1	; 0x800168 <display_updated>
}
     1de:	08 95       	ret

000001e0 <swap_hour_min_state>:
volatile testing_state_t testing_state;

/* swap through the different states in the hour minute state */
void swap_hour_min_state(void)
{
    hour_min_state++;
     1e0:	80 91 3c 01 	lds	r24, 0x013C	; 0x80013c <hour_min_state>
     1e4:	90 91 3d 01 	lds	r25, 0x013D	; 0x80013d <hour_min_state+0x1>
     1e8:	01 96       	adiw	r24, 0x01	; 1
     1ea:	90 93 3d 01 	sts	0x013D, r25	; 0x80013d <hour_min_state+0x1>
     1ee:	80 93 3c 01 	sts	0x013C, r24	; 0x80013c <hour_min_state>
    if (hour_min_state == HOUR_MIN_STATE_END)
     1f2:	80 91 3c 01 	lds	r24, 0x013C	; 0x80013c <hour_min_state>
     1f6:	90 91 3d 01 	lds	r25, 0x013D	; 0x80013d <hour_min_state+0x1>
     1fa:	03 97       	sbiw	r24, 0x03	; 3
     1fc:	21 f4       	brne	.+8      	; 0x206 <swap_hour_min_state+0x26>
    {
        hour_min_state = HOUR_MIN_STATE_DISPLAY;
     1fe:	10 92 3d 01 	sts	0x013D, r1	; 0x80013d <hour_min_state+0x1>
     202:	10 92 3c 01 	sts	0x013C, r1	; 0x80013c <hour_min_state>
    }
    display_updated = false;
     206:	10 92 68 01 	sts	0x0168, r1	; 0x800168 <display_updated>
}
     20a:	08 95       	ret

0000020c <swap_alarm_state>:

/* swap through the different states in the alarm state */
void swap_alarm_state(void)
{
    alarm_state++;
     20c:	80 91 3e 01 	lds	r24, 0x013E	; 0x80013e <alarm_state>
     210:	90 91 3f 01 	lds	r25, 0x013F	; 0x80013f <alarm_state+0x1>
     214:	01 96       	adiw	r24, 0x01	; 1
     216:	90 93 3f 01 	sts	0x013F, r25	; 0x80013f <alarm_state+0x1>
     21a:	80 93 3e 01 	sts	0x013E, r24	; 0x80013e <alarm_state>
    if (alarm_state == ALARM_STATE_END)
     21e:	80 91 3e 01 	lds	r24, 0x013E	; 0x80013e <alarm_state>
     222:	90 91 3f 01 	lds	r25, 0x013F	; 0x80013f <alarm_state+0x1>
     226:	03 97       	sbiw	r24, 0x03	; 3
     228:	21 f4       	brne	.+8      	; 0x232 <swap_alarm_state+0x26>
    {
        alarm_state = ALARM_STATE_DISPLAY;
     22a:	10 92 3f 01 	sts	0x013F, r1	; 0x80013f <alarm_state+0x1>
     22e:	10 92 3e 01 	sts	0x013E, r1	; 0x80013e <alarm_state>
    }
    display_updated = false;
     232:	10 92 68 01 	sts	0x0168, r1	; 0x800168 <display_updated>
}
     236:	08 95       	ret

00000238 <swap_month_day_state>:

/* swap through the different states in the month day state */
void swap_month_day_state(void)
{
    month_day_state++;
     238:	80 91 14 01 	lds	r24, 0x0114	; 0x800114 <month_day_state>
     23c:	90 91 15 01 	lds	r25, 0x0115	; 0x800115 <month_day_state+0x1>
     240:	01 96       	adiw	r24, 0x01	; 1
     242:	90 93 15 01 	sts	0x0115, r25	; 0x800115 <month_day_state+0x1>
     246:	80 93 14 01 	sts	0x0114, r24	; 0x800114 <month_day_state>
    if (month_day_state == MONTH_DAY_STATE_END)
     24a:	80 91 14 01 	lds	r24, 0x0114	; 0x800114 <month_day_state>
     24e:	90 91 15 01 	lds	r25, 0x0115	; 0x800115 <month_day_state+0x1>
     252:	03 97       	sbiw	r24, 0x03	; 3
     254:	21 f4       	brne	.+8      	; 0x25e <swap_month_day_state+0x26>
    {
        month_day_state = MONTH_DAY_STATE_DISPLAY;
     256:	10 92 15 01 	sts	0x0115, r1	; 0x800115 <month_day_state+0x1>
     25a:	10 92 14 01 	sts	0x0114, r1	; 0x800114 <month_day_state>
    }
    display_updated = false;
     25e:	10 92 68 01 	sts	0x0168, r1	; 0x800168 <display_updated>
}
     262:	08 95       	ret

00000264 <swap_year_state>:

/* swap through the different states in the year state */
void swap_year_state(void)
{
    year_state++;
     264:	80 91 12 01 	lds	r24, 0x0112	; 0x800112 <__data_end>
     268:	90 91 13 01 	lds	r25, 0x0113	; 0x800113 <__data_end+0x1>
     26c:	01 96       	adiw	r24, 0x01	; 1
     26e:	90 93 13 01 	sts	0x0113, r25	; 0x800113 <__data_end+0x1>
     272:	80 93 12 01 	sts	0x0112, r24	; 0x800112 <__data_end>
    if (year_state == YEAR_STATE_END)
     276:	80 91 12 01 	lds	r24, 0x0112	; 0x800112 <__data_end>
     27a:	90 91 13 01 	lds	r25, 0x0113	; 0x800113 <__data_end+0x1>
     27e:	02 97       	sbiw	r24, 0x02	; 2
     280:	21 f4       	brne	.+8      	; 0x28a <swap_year_state+0x26>
    {
        year_state = YEAR_STATE_DISPLAY;
     282:	10 92 13 01 	sts	0x0113, r1	; 0x800113 <__data_end+0x1>
     286:	10 92 12 01 	sts	0x0112, r1	; 0x800112 <__data_end>
    }
    display_updated = false;
     28a:	10 92 68 01 	sts	0x0168, r1	; 0x800168 <display_updated>
}
     28e:	08 95       	ret

00000290 <swap_temperature_state>:

/* swap through the different states in the temperature state */
void swap_temperature_state(void)
{
    temperature_state++;
     290:	80 91 8e 01 	lds	r24, 0x018E	; 0x80018e <temperature_state>
     294:	90 91 8f 01 	lds	r25, 0x018F	; 0x80018f <temperature_state+0x1>
     298:	01 96       	adiw	r24, 0x01	; 1
     29a:	90 93 8f 01 	sts	0x018F, r25	; 0x80018f <temperature_state+0x1>
     29e:	80 93 8e 01 	sts	0x018E, r24	; 0x80018e <temperature_state>
    if (temperature_state == TEMPERATURE_STATE_END)
     2a2:	80 91 8e 01 	lds	r24, 0x018E	; 0x80018e <temperature_state>
     2a6:	90 91 8f 01 	lds	r25, 0x018F	; 0x80018f <temperature_state+0x1>
     2aa:	01 97       	sbiw	r24, 0x01	; 1
     2ac:	21 f4       	brne	.+8      	; 0x2b6 <swap_temperature_state+0x26>
    {
        temperature_state = TEMPERATURE_STATE_DISPLAY_TEMPERATURE;
     2ae:	10 92 8f 01 	sts	0x018F, r1	; 0x80018f <temperature_state+0x1>
     2b2:	10 92 8e 01 	sts	0x018E, r1	; 0x80018e <temperature_state>
    }
    display_updated = false;
     2b6:	10 92 68 01 	sts	0x0168, r1	; 0x800168 <display_updated>
}
     2ba:	08 95       	ret

000002bc <swap_humidity_state>:

/* swap through the different states in the humidity state */
void swap_humidity_state(void)
{
    humidity_state++;
     2bc:	80 91 42 01 	lds	r24, 0x0142	; 0x800142 <humidity_state>
     2c0:	90 91 43 01 	lds	r25, 0x0143	; 0x800143 <humidity_state+0x1>
     2c4:	01 96       	adiw	r24, 0x01	; 1
     2c6:	90 93 43 01 	sts	0x0143, r25	; 0x800143 <humidity_state+0x1>
     2ca:	80 93 42 01 	sts	0x0142, r24	; 0x800142 <humidity_state>
    if (humidity_state == HUMIDITY_STATE_END)
     2ce:	80 91 42 01 	lds	r24, 0x0142	; 0x800142 <humidity_state>
     2d2:	90 91 43 01 	lds	r25, 0x0143	; 0x800143 <humidity_state+0x1>
     2d6:	01 97       	sbiw	r24, 0x01	; 1
     2d8:	21 f4       	brne	.+8      	; 0x2e2 <swap_humidity_state+0x26>
    {
        humidity_state = HUMIDITY_STATE_DISPLAY_HUMIDITY;
     2da:	10 92 43 01 	sts	0x0143, r1	; 0x800143 <humidity_state+0x1>
     2de:	10 92 42 01 	sts	0x0142, r1	; 0x800142 <humidity_state>
    }
    display_updated = false;
     2e2:	10 92 68 01 	sts	0x0168, r1	; 0x800168 <display_updated>
}
     2e6:	08 95       	ret

000002e8 <millis_timer_ISR_loop>:
/**
 * ISR TIMER0_COMPA_VECT runs every 1ms
 */
void millis_timer_ISR_loop(void)
{
    millis++;
     2e8:	80 91 94 01 	lds	r24, 0x0194	; 0x800194 <millis>
     2ec:	90 91 95 01 	lds	r25, 0x0195	; 0x800195 <millis+0x1>
     2f0:	a0 91 96 01 	lds	r26, 0x0196	; 0x800196 <millis+0x2>
     2f4:	b0 91 97 01 	lds	r27, 0x0197	; 0x800197 <millis+0x3>
     2f8:	01 96       	adiw	r24, 0x01	; 1
     2fa:	a1 1d       	adc	r26, r1
     2fc:	b1 1d       	adc	r27, r1
     2fe:	80 93 94 01 	sts	0x0194, r24	; 0x800194 <millis>
     302:	90 93 95 01 	sts	0x0195, r25	; 0x800195 <millis+0x1>
     306:	a0 93 96 01 	sts	0x0196, r26	; 0x800196 <millis+0x2>
     30a:	b0 93 97 01 	sts	0x0197, r27	; 0x800197 <millis+0x3>
}
     30e:	08 95       	ret

00000310 <millis_timer_init>:
    // TCCR0A = 0x00;
    // TCCR0B = 0x00;
    // TCCR0B |= _BV(CS01) | _BV(CS00);
    // TIMSK0 |= _BV(TOIE0);
    // sei();
    millis = 0;
     310:	10 92 94 01 	sts	0x0194, r1	; 0x800194 <millis>
     314:	10 92 95 01 	sts	0x0195, r1	; 0x800195 <millis+0x1>
     318:	10 92 96 01 	sts	0x0196, r1	; 0x800196 <millis+0x2>
     31c:	10 92 97 01 	sts	0x0197, r1	; 0x800197 <millis+0x3>

    TCCR0A = 0x00;
     320:	14 bc       	out	0x24, r1	; 36
    TCCR0B = 0x00;
     322:	15 bc       	out	0x25, r1	; 37
    // WGM0 = 0b010, CTC mode
    // COM0A = 0b00, COM0B = 0b00, normal port operation
    TCCR0A |= _BV(WGM01);
     324:	84 b5       	in	r24, 0x24	; 36
     326:	82 60       	ori	r24, 0x02	; 2
     328:	84 bd       	out	0x24, r24	; 36
    // CS0 = 0b011, prescaler 64
    // each tick is 4 us
    TCCR0B |= _BV(CS01) | _BV(CS00);
     32a:	85 b5       	in	r24, 0x25	; 37
     32c:	83 60       	ori	r24, 0x03	; 3
     32e:	85 bd       	out	0x25, r24	; 37
    // TCNT0 counts from 0 to 249 (restart every 250 counts)
    OCR0A = 249;
     330:	89 ef       	ldi	r24, 0xF9	; 249
     332:	87 bd       	out	0x27, r24	; 39
    OCR0B = 0;
     334:	18 bc       	out	0x28, r1	; 40
    // OCIE0B = 0b1, OCIE0A = 0b1
    TIMSK0 |= _BV(OCIE0A);
     336:	ee e6       	ldi	r30, 0x6E	; 110
     338:	f0 e0       	ldi	r31, 0x00	; 0
     33a:	80 81       	ld	r24, Z
     33c:	82 60       	ori	r24, 0x02	; 2
     33e:	80 83       	st	Z, r24
    // TIMSK0 |= _BV(OCIE0B);
    // TIMSK0
    // TIFR0
    sei();
     340:	78 94       	sei
}
     342:	08 95       	ret

00000344 <get_millis>:
 * @brief get current milliseconds since boot
 */
uint32_t get_millis(void)
{
    uint32_t m;
    ATOMIC_BLOCK(ATOMIC_RESTORESTATE)
     344:	2f b7       	in	r18, 0x3f	; 63
    return 1;
}

static __inline__ uint8_t __iCliRetVal(void)
{
    cli();
     346:	f8 94       	cli
    {
        m = millis;
     348:	60 91 94 01 	lds	r22, 0x0194	; 0x800194 <millis>
     34c:	70 91 95 01 	lds	r23, 0x0195	; 0x800195 <millis+0x1>
     350:	80 91 96 01 	lds	r24, 0x0196	; 0x800196 <millis+0x2>
     354:	90 91 97 01 	lds	r25, 0x0197	; 0x800197 <millis+0x3>
    (void)__s;
}

static __inline__ void __iRestore(const  uint8_t *__s)
{
    SREG = *__s;
     358:	2f bf       	out	0x3f, r18	; 63
    }
    return m;
}
     35a:	08 95       	ret

0000035c <get_micros>:
/**
 * @brief get current microseconds since boot
 *  get_micros has a resolution of 4us.
 */
uint32_t get_micros(void)
{
     35c:	0f 93       	push	r16
     35e:	1f 93       	push	r17
    uint32_t m;
    uint8_t t;

    ATOMIC_BLOCK(ATOMIC_RESTORESTATE)
     360:	8f b7       	in	r24, 0x3f	; 63
    return 1;
}

static __inline__ uint8_t __iCliRetVal(void)
{
    cli();
     362:	f8 94       	cli
    {
        // m = micros;
        m = millis;
     364:	20 91 94 01 	lds	r18, 0x0194	; 0x800194 <millis>
     368:	30 91 95 01 	lds	r19, 0x0195	; 0x800195 <millis+0x1>
     36c:	40 91 96 01 	lds	r20, 0x0196	; 0x800196 <millis+0x2>
     370:	50 91 97 01 	lds	r21, 0x0197	; 0x800197 <millis+0x3>
        t = TCNT0;
     374:	e6 b5       	in	r30, 0x26	; 38
        // if timer has overflowed but ISR hasn't run yet
        if ((TIFR0 & (1 << OCF0A)) && (t < 249))
     376:	a9 9b       	sbis	0x15, 1	; 21
     378:	06 c0       	rjmp	.+12     	; 0x386 <get_micros+0x2a>
     37a:	e9 3f       	cpi	r30, 0xF9	; 249
     37c:	20 f4       	brcc	.+8      	; 0x386 <get_micros+0x2a>
        {
            m++;
     37e:	2f 5f       	subi	r18, 0xFF	; 255
     380:	3f 4f       	sbci	r19, 0xFF	; 255
     382:	4f 4f       	sbci	r20, 0xFF	; 255
     384:	5f 4f       	sbci	r21, 0xFF	; 255
        }
        sei();
     386:	78 94       	sei
    (void)__s;
}

static __inline__ void __iRestore(const  uint8_t *__s)
{
    SREG = *__s;
     388:	8f bf       	out	0x3f, r24	; 63
    }
    return m * 1000 + t * 4;
     38a:	a8 ee       	ldi	r26, 0xE8	; 232
     38c:	b3 e0       	ldi	r27, 0x03	; 3
     38e:	0e 94 84 07 	call	0xf08	; 0xf08 <__muluhisi3>
     392:	2e 2f       	mov	r18, r30
     394:	30 e0       	ldi	r19, 0x00	; 0
     396:	22 0f       	add	r18, r18
     398:	33 1f       	adc	r19, r19
     39a:	22 0f       	add	r18, r18
     39c:	33 1f       	adc	r19, r19
     39e:	89 01       	movw	r16, r18
     3a0:	33 0f       	add	r19, r19
     3a2:	22 0b       	sbc	r18, r18
     3a4:	33 0b       	sbc	r19, r19
     3a6:	60 0f       	add	r22, r16
     3a8:	71 1f       	adc	r23, r17
     3aa:	82 1f       	adc	r24, r18
     3ac:	93 1f       	adc	r25, r19
     3ae:	1f 91       	pop	r17
     3b0:	0f 91       	pop	r16
     3b2:	08 95       	ret

000003b4 <gpio_set_pin_output>:
#include "gpio.h"

void gpio_set_pin_output(Pin *pin)
{
     3b4:	dc 01       	movw	r26, r24
    *pin->ddr |= _BV(pin->pin_num);
     3b6:	ed 91       	ld	r30, X+
     3b8:	fc 91       	ld	r31, X
     3ba:	11 97       	sbiw	r26, 0x01	; 1
     3bc:	90 81       	ld	r25, Z
     3be:	16 96       	adiw	r26, 0x06	; 6
     3c0:	8c 91       	ld	r24, X
     3c2:	21 e0       	ldi	r18, 0x01	; 1
     3c4:	30 e0       	ldi	r19, 0x00	; 0
     3c6:	01 c0       	rjmp	.+2      	; 0x3ca <gpio_set_pin_output+0x16>
     3c8:	22 0f       	add	r18, r18
     3ca:	8a 95       	dec	r24
     3cc:	ea f7       	brpl	.-6      	; 0x3c8 <gpio_set_pin_output+0x14>
     3ce:	89 2f       	mov	r24, r25
     3d0:	82 2b       	or	r24, r18
     3d2:	80 83       	st	Z, r24
}
     3d4:	08 95       	ret

000003d6 <gpio_set_pin_input>:

void gpio_set_pin_input(Pin *pin)
{
     3d6:	dc 01       	movw	r26, r24
    *pin->ddr &= ~_BV(pin->pin_num);
     3d8:	ed 91       	ld	r30, X+
     3da:	fc 91       	ld	r31, X
     3dc:	11 97       	sbiw	r26, 0x01	; 1
     3de:	20 81       	ld	r18, Z
     3e0:	16 96       	adiw	r26, 0x06	; 6
     3e2:	3c 91       	ld	r19, X
     3e4:	81 e0       	ldi	r24, 0x01	; 1
     3e6:	90 e0       	ldi	r25, 0x00	; 0
     3e8:	01 c0       	rjmp	.+2      	; 0x3ec <gpio_set_pin_input+0x16>
     3ea:	88 0f       	add	r24, r24
     3ec:	3a 95       	dec	r19
     3ee:	ea f7       	brpl	.-6      	; 0x3ea <gpio_set_pin_input+0x14>
     3f0:	80 95       	com	r24
     3f2:	82 23       	and	r24, r18
     3f4:	80 83       	st	Z, r24
}
     3f6:	08 95       	ret

000003f8 <gpio_set_pin_input_pullup>:

void gpio_set_pin_input_pullup(Pin *pin)
{
     3f8:	fc 01       	movw	r30, r24
    *pin->ddr |= _BV(pin->pin_num);
}

void gpio_set_pin_input(Pin *pin)
{
    *pin->ddr &= ~_BV(pin->pin_num);
     3fa:	a0 81       	ld	r26, Z
     3fc:	b1 81       	ldd	r27, Z+1	; 0x01
     3fe:	8c 91       	ld	r24, X
     400:	96 81       	ldd	r25, Z+6	; 0x06
     402:	41 e0       	ldi	r20, 0x01	; 1
     404:	50 e0       	ldi	r21, 0x00	; 0
     406:	9a 01       	movw	r18, r20
     408:	01 c0       	rjmp	.+2      	; 0x40c <__EEPROM_REGION_LENGTH__+0xc>
     40a:	22 0f       	add	r18, r18
     40c:	9a 95       	dec	r25
     40e:	ea f7       	brpl	.-6      	; 0x40a <__EEPROM_REGION_LENGTH__+0xa>
     410:	20 95       	com	r18
     412:	28 23       	and	r18, r24
     414:	2c 93       	st	X, r18
    }
}

void gpio_set_pin_high(Pin *pin)
{
    *pin->port |= _BV(pin->pin_num);
     416:	a2 81       	ldd	r26, Z+2	; 0x02
     418:	b3 81       	ldd	r27, Z+3	; 0x03
     41a:	8c 91       	ld	r24, X
     41c:	96 81       	ldd	r25, Z+6	; 0x06
     41e:	01 c0       	rjmp	.+2      	; 0x422 <__EEPROM_REGION_LENGTH__+0x22>
     420:	44 0f       	add	r20, r20
     422:	9a 95       	dec	r25
     424:	ea f7       	brpl	.-6      	; 0x420 <__EEPROM_REGION_LENGTH__+0x20>
     426:	48 2b       	or	r20, r24
     428:	4c 93       	st	X, r20

void gpio_set_pin_input_pullup(Pin *pin)
{
    gpio_set_pin_input(pin);
    gpio_set_pin_high(pin);
}
     42a:	08 95       	ret

0000042c <gpio_toggle_pin_mode>:

void gpio_toggle_pin_mode(Pin *pin)
{
     42c:	dc 01       	movw	r26, r24
    *pin->ddr ^= _BV(pin->pin_num);
     42e:	ed 91       	ld	r30, X+
     430:	fc 91       	ld	r31, X
     432:	11 97       	sbiw	r26, 0x01	; 1
     434:	90 81       	ld	r25, Z
     436:	16 96       	adiw	r26, 0x06	; 6
     438:	8c 91       	ld	r24, X
     43a:	21 e0       	ldi	r18, 0x01	; 1
     43c:	30 e0       	ldi	r19, 0x00	; 0
     43e:	01 c0       	rjmp	.+2      	; 0x442 <gpio_toggle_pin_mode+0x16>
     440:	22 0f       	add	r18, r18
     442:	8a 95       	dec	r24
     444:	ea f7       	brpl	.-6      	; 0x440 <gpio_toggle_pin_mode+0x14>
     446:	89 2f       	mov	r24, r25
     448:	82 27       	eor	r24, r18
     44a:	80 83       	st	Z, r24
}
     44c:	08 95       	ret

0000044e <gpio_read_pin>:

uint8_t gpio_read_pin(Pin *pin)
{
    if (*pin->pin & _BV(pin->pin_num))
     44e:	dc 01       	movw	r26, r24
     450:	14 96       	adiw	r26, 0x04	; 4
     452:	ed 91       	ld	r30, X+
     454:	fc 91       	ld	r31, X
     456:	15 97       	sbiw	r26, 0x05	; 5
     458:	20 81       	ld	r18, Z
     45a:	30 e0       	ldi	r19, 0x00	; 0
     45c:	16 96       	adiw	r26, 0x06	; 6
     45e:	8c 91       	ld	r24, X
     460:	f9 01       	movw	r30, r18
     462:	02 c0       	rjmp	.+4      	; 0x468 <gpio_read_pin+0x1a>
     464:	f5 95       	asr	r31
     466:	e7 95       	ror	r30
     468:	8a 95       	dec	r24
     46a:	e2 f7       	brpl	.-8      	; 0x464 <gpio_read_pin+0x16>
     46c:	cf 01       	movw	r24, r30
    }
    else
    {
        return 0;
    }
}
     46e:	81 70       	andi	r24, 0x01	; 1
     470:	08 95       	ret

00000472 <gpio_set_pin_val>:
void gpio_set_pin_val(Pin *pin, uint8_t value)
{
     472:	dc 01       	movw	r26, r24
     474:	12 96       	adiw	r26, 0x02	; 2
     476:	ed 91       	ld	r30, X+
     478:	fc 91       	ld	r31, X
     47a:	13 97       	sbiw	r26, 0x03	; 3
     47c:	16 96       	adiw	r26, 0x06	; 6
     47e:	2c 91       	ld	r18, X
     480:	81 e0       	ldi	r24, 0x01	; 1
     482:	90 e0       	ldi	r25, 0x00	; 0
     484:	01 c0       	rjmp	.+2      	; 0x488 <gpio_set_pin_val+0x16>
     486:	88 0f       	add	r24, r24
     488:	2a 95       	dec	r18
     48a:	ea f7       	brpl	.-6      	; 0x486 <gpio_set_pin_val+0x14>
    }
}

void gpio_set_pin_high(Pin *pin)
{
    *pin->port |= _BV(pin->pin_num);
     48c:	90 81       	ld	r25, Z
        return 0;
    }
}
void gpio_set_pin_val(Pin *pin, uint8_t value)
{
    if (value)
     48e:	61 11       	cpse	r22, r1
     490:	04 c0       	rjmp	.+8      	; 0x49a <gpio_set_pin_val+0x28>
    *pin->port |= _BV(pin->pin_num);
}

void gpio_set_pin_low(Pin *pin)
{
    *pin->port &= ~_BV(pin->pin_num);
     492:	80 95       	com	r24
     494:	89 23       	and	r24, r25
     496:	80 83       	st	Z, r24
    }
    else
    {
        gpio_set_pin_low(pin);
    }
}
     498:	08 95       	ret

void gpio_set_pin_high(Pin *pin)
{
    *pin->port |= _BV(pin->pin_num);
     49a:	89 2b       	or	r24, r25
     49c:	80 83       	st	Z, r24
     49e:	08 95       	ret

000004a0 <gpio_set_pin_high>:
        gpio_set_pin_low(pin);
    }
}

void gpio_set_pin_high(Pin *pin)
{
     4a0:	dc 01       	movw	r26, r24
    *pin->port |= _BV(pin->pin_num);
     4a2:	12 96       	adiw	r26, 0x02	; 2
     4a4:	ed 91       	ld	r30, X+
     4a6:	fc 91       	ld	r31, X
     4a8:	13 97       	sbiw	r26, 0x03	; 3
     4aa:	90 81       	ld	r25, Z
     4ac:	16 96       	adiw	r26, 0x06	; 6
     4ae:	8c 91       	ld	r24, X
     4b0:	21 e0       	ldi	r18, 0x01	; 1
     4b2:	30 e0       	ldi	r19, 0x00	; 0
     4b4:	01 c0       	rjmp	.+2      	; 0x4b8 <gpio_set_pin_high+0x18>
     4b6:	22 0f       	add	r18, r18
     4b8:	8a 95       	dec	r24
     4ba:	ea f7       	brpl	.-6      	; 0x4b6 <gpio_set_pin_high+0x16>
     4bc:	89 2f       	mov	r24, r25
     4be:	82 2b       	or	r24, r18
     4c0:	80 83       	st	Z, r24
}
     4c2:	08 95       	ret

000004c4 <gpio_set_pin_low>:

void gpio_set_pin_low(Pin *pin)
{
     4c4:	dc 01       	movw	r26, r24
    *pin->port &= ~_BV(pin->pin_num);
     4c6:	12 96       	adiw	r26, 0x02	; 2
     4c8:	ed 91       	ld	r30, X+
     4ca:	fc 91       	ld	r31, X
     4cc:	13 97       	sbiw	r26, 0x03	; 3
     4ce:	20 81       	ld	r18, Z
     4d0:	16 96       	adiw	r26, 0x06	; 6
     4d2:	3c 91       	ld	r19, X
     4d4:	81 e0       	ldi	r24, 0x01	; 1
     4d6:	90 e0       	ldi	r25, 0x00	; 0
     4d8:	01 c0       	rjmp	.+2      	; 0x4dc <gpio_set_pin_low+0x18>
     4da:	88 0f       	add	r24, r24
     4dc:	3a 95       	dec	r19
     4de:	ea f7       	brpl	.-6      	; 0x4da <gpio_set_pin_low+0x16>
     4e0:	80 95       	com	r24
     4e2:	82 23       	and	r24, r18
     4e4:	80 83       	st	Z, r24
}
     4e6:	08 95       	ret

000004e8 <gpio_toggle_pin_output>:

void gpio_toggle_pin_output(Pin *pin)
{
     4e8:	dc 01       	movw	r26, r24
    *pin->port ^= _BV(pin->pin_num);
     4ea:	12 96       	adiw	r26, 0x02	; 2
     4ec:	ed 91       	ld	r30, X+
     4ee:	fc 91       	ld	r31, X
     4f0:	13 97       	sbiw	r26, 0x03	; 3
     4f2:	90 81       	ld	r25, Z
     4f4:	16 96       	adiw	r26, 0x06	; 6
     4f6:	8c 91       	ld	r24, X
     4f8:	21 e0       	ldi	r18, 0x01	; 1
     4fa:	30 e0       	ldi	r19, 0x00	; 0
     4fc:	01 c0       	rjmp	.+2      	; 0x500 <gpio_toggle_pin_output+0x18>
     4fe:	22 0f       	add	r18, r18
     500:	8a 95       	dec	r24
     502:	ea f7       	brpl	.-6      	; 0x4fe <gpio_toggle_pin_output+0x16>
     504:	89 2f       	mov	r24, r25
     506:	82 27       	eor	r24, r18
     508:	80 83       	st	Z, r24
     50a:	08 95       	ret

0000050c <button_setup>:
#include "button.h"

void button_setup(Button *btn)
{
     50c:	cf 93       	push	r28
     50e:	df 93       	push	r29
     510:	ec 01       	movw	r28, r24
    /*
    default time values
    */
    gpio_set_pin_input(&btn->button_pin);
     512:	0e 94 eb 01 	call	0x3d6	; 0x3d6 <gpio_set_pin_input>
    gpio_set_pin_high(&btn->button_pin);
     516:	ce 01       	movw	r24, r28
     518:	0e 94 50 02 	call	0x4a0	; 0x4a0 <gpio_set_pin_high>
    btn->debounce_ms = 10;
     51c:	8a e0       	ldi	r24, 0x0A	; 10
     51e:	90 e0       	ldi	r25, 0x00	; 0
     520:	98 87       	std	Y+8, r25	; 0x08
     522:	8f 83       	std	Y+7, r24	; 0x07
    btn->click_period_timeout_ms = 60;
     524:	8c e3       	ldi	r24, 0x3C	; 60
     526:	90 e0       	ldi	r25, 0x00	; 0
     528:	9a 87       	std	Y+10, r25	; 0x0a
     52a:	89 87       	std	Y+9, r24	; 0x09
    btn->longpress_ms = 1000;
     52c:	88 ee       	ldi	r24, 0xE8	; 232
     52e:	93 e0       	ldi	r25, 0x03	; 3
     530:	9c 87       	std	Y+12, r25	; 0x0c
     532:	8b 87       	std	Y+11, r24	; 0x0b
    btn->_state = BUTTON_STATE_INIT;
     534:	1a a2       	std	Y+34, r1	; 0x22
     536:	19 a2       	std	Y+33, r1	; 0x21
    btn->num_clicks = 0;
     538:	1b a2       	std	Y+35, r1	; 0x23
    btn->_debouncedBState = 1;
     53a:	81 e0       	ldi	r24, 0x01	; 1
     53c:	8c 8b       	std	Y+20, r24	; 0x14
}
     53e:	df 91       	pop	r29
     540:	cf 91       	pop	r28
     542:	08 95       	ret

00000544 <button_set_debounce_ms>:
    button_fsm(btn, button_debounce(btn));
}

void button_set_debounce_ms(Button *btn, uint16_t ms)
{
    btn->debounce_ms = ms;
     544:	fc 01       	movw	r30, r24
     546:	70 87       	std	Z+8, r23	; 0x08
     548:	67 83       	std	Z+7, r22	; 0x07
}
     54a:	08 95       	ret

0000054c <button_set_click_ms>:

void button_set_click_ms(Button *btn, uint16_t ms)
{
    btn->click_period_timeout_ms = ms;
     54c:	fc 01       	movw	r30, r24
     54e:	72 87       	std	Z+10, r23	; 0x0a
     550:	61 87       	std	Z+9, r22	; 0x09
}
     552:	08 95       	ret

00000554 <button_set_press_ms>:

void button_set_press_ms(Button *btn, uint16_t ms)
{
    btn->longpress_ms = ms;
     554:	fc 01       	movw	r30, r24
     556:	74 87       	std	Z+12, r23	; 0x0c
     558:	63 87       	std	Z+11, r22	; 0x0b
}
     55a:	08 95       	ret

0000055c <button_attach_single_click>:

void button_attach_single_click(Button *btn,
                                button_action_t action)
{
    btn->single_click_action = action;
     55c:	fc 01       	movw	r30, r24
     55e:	76 87       	std	Z+14, r23	; 0x0e
     560:	65 87       	std	Z+13, r22	; 0x0d
}
     562:	08 95       	ret

00000564 <button_attach_double_click>:

void button_attach_double_click(Button *btn,
                                button_action_t action)
{
    btn->double_click_action = action;
     564:	fc 01       	movw	r30, r24
     566:	70 8b       	std	Z+16, r23	; 0x10
     568:	67 87       	std	Z+15, r22	; 0x0f
}
     56a:	08 95       	ret

0000056c <button_attach_long_press>:

void button_attach_long_press(Button *btn,
                              button_action_t action)
{
    btn->long_press_action = action;
     56c:	fc 01       	movw	r30, r24
     56e:	72 8b       	std	Z+18, r23	; 0x12
     570:	61 8b       	std	Z+17, r22	; 0x11
}
     572:	08 95       	ret

00000574 <button_debounce>:

// , button_action_t f1, button_action_t f2
uint8_t button_debounce(Button *btn)
{
     574:	0f 93       	push	r16
     576:	1f 93       	push	r17
     578:	cf 93       	push	r28
     57a:	df 93       	push	r29
     57c:	ec 01       	movw	r28, r24
    btn->now = get_millis();
     57e:	0e 94 a2 01 	call	0x344	; 0x344 <get_millis>
     582:	6d 8b       	std	Y+21, r22	; 0x15
     584:	7e 8b       	std	Y+22, r23	; 0x16
     586:	8f 8b       	std	Y+23, r24	; 0x17
     588:	98 8f       	std	Y+24, r25	; 0x18
    uint8_t rawState = gpio_read_pin(&btn->button_pin);
     58a:	ce 01       	movw	r24, r28
     58c:	0e 94 27 02 	call	0x44e	; 0x44e <gpio_read_pin>
    if (btn->_lastDebouncedBState == rawState)
     590:	9b 89       	ldd	r25, Y+19	; 0x13
     592:	98 17       	cp	r25, r24
     594:	79 f0       	breq	.+30     	; 0x5b4 <button_debounce+0x40>
            btn->_debouncedBState = rawState;
        }
    }
    else
    {
        btn->_lastDebouncedTime = btn->now;
     596:	4d 89       	ldd	r20, Y+21	; 0x15
     598:	5e 89       	ldd	r21, Y+22	; 0x16
     59a:	6f 89       	ldd	r22, Y+23	; 0x17
     59c:	78 8d       	ldd	r23, Y+24	; 0x18
     59e:	49 8f       	std	Y+25, r20	; 0x19
     5a0:	5a 8f       	std	Y+26, r21	; 0x1a
     5a2:	6b 8f       	std	Y+27, r22	; 0x1b
     5a4:	7c 8f       	std	Y+28, r23	; 0x1c
        btn->_lastDebouncedBState = rawState;
     5a6:	8b 8b       	std	Y+19, r24	; 0x13
     5a8:	8c 89       	ldd	r24, Y+20	; 0x14
    }
    return btn->_debouncedBState;
}
     5aa:	df 91       	pop	r29
     5ac:	cf 91       	pop	r28
     5ae:	1f 91       	pop	r17
     5b0:	0f 91       	pop	r16
     5b2:	08 95       	ret
{
    btn->now = get_millis();
    uint8_t rawState = gpio_read_pin(&btn->button_pin);
    if (btn->_lastDebouncedBState == rawState)
    {
        if ((btn->now - btn->_lastDebouncedTime) > btn->debounce_ms)
     5b4:	0d 89       	ldd	r16, Y+21	; 0x15
     5b6:	1e 89       	ldd	r17, Y+22	; 0x16
     5b8:	2f 89       	ldd	r18, Y+23	; 0x17
     5ba:	38 8d       	ldd	r19, Y+24	; 0x18
     5bc:	49 8d       	ldd	r20, Y+25	; 0x19
     5be:	5a 8d       	ldd	r21, Y+26	; 0x1a
     5c0:	6b 8d       	ldd	r22, Y+27	; 0x1b
     5c2:	7c 8d       	ldd	r23, Y+28	; 0x1c
     5c4:	04 1b       	sub	r16, r20
     5c6:	15 0b       	sbc	r17, r21
     5c8:	26 0b       	sbc	r18, r22
     5ca:	37 0b       	sbc	r19, r23
     5cc:	4f 81       	ldd	r20, Y+7	; 0x07
     5ce:	58 85       	ldd	r21, Y+8	; 0x08
     5d0:	70 e0       	ldi	r23, 0x00	; 0
     5d2:	60 e0       	ldi	r22, 0x00	; 0
     5d4:	40 17       	cp	r20, r16
     5d6:	51 07       	cpc	r21, r17
     5d8:	62 07       	cpc	r22, r18
     5da:	73 07       	cpc	r23, r19
     5dc:	28 f7       	brcc	.-54     	; 0x5a8 <button_debounce+0x34>
        {
            btn->_debouncedBState = rawState;
     5de:	8c 8b       	std	Y+20, r24	; 0x14
    {
        btn->_lastDebouncedTime = btn->now;
        btn->_lastDebouncedBState = rawState;
    }
    return btn->_debouncedBState;
}
     5e0:	df 91       	pop	r29
     5e2:	cf 91       	pop	r28
     5e4:	1f 91       	pop	r17
     5e6:	0f 91       	pop	r16
     5e8:	08 95       	ret

000005ea <_newState>:

void _newState(Button *btn, enum button_state state)
{
     5ea:	cf 93       	push	r28
     5ec:	df 93       	push	r29
     5ee:	ec 01       	movw	r28, r24
    btn->_state = state;
     5f0:	7a a3       	std	Y+34, r23	; 0x22
     5f2:	69 a3       	std	Y+33, r22	; 0x21
    btn->_startTime = get_millis();
     5f4:	0e 94 a2 01 	call	0x344	; 0x344 <get_millis>
     5f8:	6d 8f       	std	Y+29, r22	; 0x1d
     5fa:	7e 8f       	std	Y+30, r23	; 0x1e
     5fc:	8f 8f       	std	Y+31, r24	; 0x1f
     5fe:	98 a3       	std	Y+32, r25	; 0x20
}
     600:	df 91       	pop	r29
     602:	cf 91       	pop	r28
     604:	08 95       	ret

00000606 <button_reset>:

void button_reset(Button *btn)
{
     606:	cf 93       	push	r28
     608:	df 93       	push	r29
     60a:	ec 01       	movw	r28, r24
    btn->_state = BUTTON_STATE_INIT;
     60c:	1a a2       	std	Y+34, r1	; 0x22
     60e:	19 a2       	std	Y+33, r1	; 0x21
    btn->num_clicks = 0;
     610:	1b a2       	std	Y+35, r1	; 0x23
    btn->_startTime = get_millis();
     612:	0e 94 a2 01 	call	0x344	; 0x344 <get_millis>
     616:	6d 8f       	std	Y+29, r22	; 0x1d
     618:	7e 8f       	std	Y+30, r23	; 0x1e
     61a:	8f 8f       	std	Y+31, r24	; 0x1f
     61c:	98 a3       	std	Y+32, r25	; 0x20
}
     61e:	df 91       	pop	r29
     620:	cf 91       	pop	r28
     622:	08 95       	ret

00000624 <button_fsm>:

void button_fsm(Button *btn, uint8_t debouncedBState)
{
     624:	cf 93       	push	r28
     626:	df 93       	push	r29
     628:	ec 01       	movw	r28, r24
     62a:	26 2f       	mov	r18, r22
    uint32_t waitTime = btn->now - btn->_startTime;
     62c:	8d 89       	ldd	r24, Y+21	; 0x15
     62e:	9e 89       	ldd	r25, Y+22	; 0x16
     630:	af 89       	ldd	r26, Y+23	; 0x17
     632:	b8 8d       	ldd	r27, Y+24	; 0x18
     634:	4d 8d       	ldd	r20, Y+29	; 0x1d
     636:	5e 8d       	ldd	r21, Y+30	; 0x1e
     638:	6f 8d       	ldd	r22, Y+31	; 0x1f
     63a:	78 a1       	ldd	r23, Y+32	; 0x20
     63c:	84 1b       	sub	r24, r20
     63e:	95 0b       	sbc	r25, r21
     640:	a6 0b       	sbc	r26, r22
     642:	b7 0b       	sbc	r27, r23
    switch (btn->_state)
     644:	49 a1       	ldd	r20, Y+33	; 0x21
     646:	5a a1       	ldd	r21, Y+34	; 0x22
     648:	42 30       	cpi	r20, 0x02	; 2
     64a:	51 05       	cpc	r21, r1
     64c:	09 f4       	brne	.+2      	; 0x650 <button_fsm+0x2c>
     64e:	6a c0       	rjmp	.+212    	; 0x724 <button_fsm+0x100>
     650:	98 f0       	brcs	.+38     	; 0x678 <button_fsm+0x54>
     652:	43 30       	cpi	r20, 0x03	; 3
     654:	51 05       	cpc	r21, r1
     656:	09 f4       	brne	.+2      	; 0x65a <button_fsm+0x36>
     658:	3f c0       	rjmp	.+126    	; 0x6d8 <button_fsm+0xb4>
     65a:	44 30       	cpi	r20, 0x04	; 4
     65c:	51 05       	cpc	r21, r1
     65e:	79 f1       	breq	.+94     	; 0x6be <button_fsm+0x9a>
    btn->_startTime = get_millis();
}

void button_reset(Button *btn)
{
    btn->_state = BUTTON_STATE_INIT;
     660:	1a a2       	std	Y+34, r1	; 0x22
     662:	19 a2       	std	Y+33, r1	; 0x21
    btn->num_clicks = 0;
     664:	1b a2       	std	Y+35, r1	; 0x23
    btn->_startTime = get_millis();
     666:	0e 94 a2 01 	call	0x344	; 0x344 <get_millis>
     66a:	6d 8f       	std	Y+29, r22	; 0x1d
     66c:	7e 8f       	std	Y+30, r23	; 0x1e
     66e:	8f 8f       	std	Y+31, r24	; 0x1f
     670:	98 a3       	std	Y+32, r25	; 0x20
     */
    default:
        button_reset(btn);
        break;
    }
}
     672:	df 91       	pop	r29
     674:	cf 91       	pop	r28
     676:	08 95       	ret
}

void button_fsm(Button *btn, uint8_t debouncedBState)
{
    uint32_t waitTime = btn->now - btn->_startTime;
    switch (btn->_state)
     678:	41 15       	cp	r20, r1
     67a:	51 05       	cpc	r21, r1
     67c:	09 f4       	brne	.+2      	; 0x680 <button_fsm+0x5c>
     67e:	44 c0       	rjmp	.+136    	; 0x708 <button_fsm+0xe4>
     680:	41 30       	cpi	r20, 0x01	; 1
     682:	51 05       	cpc	r21, r1
     684:	69 f7       	brne	.-38     	; 0x660 <button_fsm+0x3c>
    case BUTTON_STATE_DOWN:
        /**
         * if in BUTTON_STATE_DOWN and button debounced state is HIGH,
         * change state to BUTTON_STATE_UP
         */
        if (debouncedBState)
     686:	21 11       	cpse	r18, r1
     688:	64 c0       	rjmp	.+200    	; 0x752 <button_fsm+0x12e>
        /**
         * if in BUTTON_STATE_DOWN and the waiting time exceeds the long press time,
         * run button long press function
         * change button state to BUTTON_STATE_PRESS
         */
        else if (waitTime > btn->longpress_ms)
     68a:	2b 85       	ldd	r18, Y+11	; 0x0b
     68c:	3c 85       	ldd	r19, Y+12	; 0x0c
     68e:	a9 01       	movw	r20, r18
     690:	70 e0       	ldi	r23, 0x00	; 0
     692:	60 e0       	ldi	r22, 0x00	; 0
     694:	48 17       	cp	r20, r24
     696:	59 07       	cpc	r21, r25
     698:	6a 07       	cpc	r22, r26
     69a:	7b 07       	cpc	r23, r27
     69c:	50 f7       	brcc	.-44     	; 0x672 <button_fsm+0x4e>
        {
            if (btn->long_press_action)
     69e:	e9 89       	ldd	r30, Y+17	; 0x11
     6a0:	fa 89       	ldd	r31, Y+18	; 0x12
     6a2:	30 97       	sbiw	r30, 0x00	; 0
     6a4:	09 f0       	breq	.+2      	; 0x6a8 <button_fsm+0x84>
                btn->long_press_action();
     6a6:	09 95       	icall
    return btn->_debouncedBState;
}

void _newState(Button *btn, enum button_state state)
{
    btn->_state = state;
     6a8:	84 e0       	ldi	r24, 0x04	; 4
     6aa:	90 e0       	ldi	r25, 0x00	; 0
     6ac:	9a a3       	std	Y+34, r25	; 0x22
     6ae:	89 a3       	std	Y+33, r24	; 0x21
    btn->_startTime = get_millis();
     6b0:	0e 94 a2 01 	call	0x344	; 0x344 <get_millis>
     6b4:	6d 8f       	std	Y+29, r22	; 0x1d
     6b6:	7e 8f       	std	Y+30, r23	; 0x1e
     6b8:	8f 8f       	std	Y+31, r24	; 0x1f
     6ba:	98 a3       	std	Y+32, r25	; 0x20
     6bc:	da cf       	rjmp	.-76     	; 0x672 <button_fsm+0x4e>
     */
    case BUTTON_STATE_PRESS:
        /**
         * if button has been released, change state to BUTTON_STATE_PRESSEND.
         */
        if (debouncedBState)
     6be:	22 23       	and	r18, r18
     6c0:	c1 f2       	breq	.-80     	; 0x672 <button_fsm+0x4e>
    return btn->_debouncedBState;
}

void _newState(Button *btn, enum button_state state)
{
    btn->_state = state;
     6c2:	85 e0       	ldi	r24, 0x05	; 5
     6c4:	90 e0       	ldi	r25, 0x00	; 0
     6c6:	9a a3       	std	Y+34, r25	; 0x22
     6c8:	89 a3       	std	Y+33, r24	; 0x21
    btn->_startTime = get_millis();
     6ca:	0e 94 a2 01 	call	0x344	; 0x344 <get_millis>
     6ce:	6d 8f       	std	Y+29, r22	; 0x1d
     6d0:	7e 8f       	std	Y+30, r23	; 0x1e
     6d2:	8f 8f       	std	Y+31, r24	; 0x1f
     6d4:	98 a3       	std	Y+32, r25	; 0x20
     6d6:	cd cf       	rjmp	.-102    	; 0x672 <button_fsm+0x4e>
         * else if in BUTTON_STATE_COUNT and the waiting time exceeded the
         * click time,
         * execute the appropriate callback based on the number of clicks.
         *
         */
        if (!debouncedBState)
     6d8:	22 23       	and	r18, r18
     6da:	09 f4       	brne	.+2      	; 0x6de <button_fsm+0xba>
     6dc:	45 c0       	rjmp	.+138    	; 0x768 <button_fsm+0x144>
        {
            _newState(btn, BUTTON_STATE_DOWN);
            btn->_startTime = btn->now;
        }
        else if (waitTime > btn->click_period_timeout_ms)
     6de:	29 85       	ldd	r18, Y+9	; 0x09
     6e0:	3a 85       	ldd	r19, Y+10	; 0x0a
     6e2:	a9 01       	movw	r20, r18
     6e4:	70 e0       	ldi	r23, 0x00	; 0
     6e6:	60 e0       	ldi	r22, 0x00	; 0
     6e8:	48 17       	cp	r20, r24
     6ea:	59 07       	cpc	r21, r25
     6ec:	6a 07       	cpc	r22, r26
     6ee:	7b 07       	cpc	r23, r27
     6f0:	08 f0       	brcs	.+2      	; 0x6f4 <button_fsm+0xd0>
     6f2:	bf cf       	rjmp	.-130    	; 0x672 <button_fsm+0x4e>
        {
            switch (btn->num_clicks)
     6f4:	8b a1       	ldd	r24, Y+35	; 0x23
     6f6:	81 30       	cpi	r24, 0x01	; 1
     6f8:	29 f5       	brne	.+74     	; 0x744 <button_fsm+0x120>
            {
            case 1:
                if (btn->single_click_action)
     6fa:	ed 85       	ldd	r30, Y+13	; 0x0d
     6fc:	fe 85       	ldd	r31, Y+14	; 0x0e
     6fe:	30 97       	sbiw	r30, 0x00	; 0
     700:	09 f4       	brne	.+2      	; 0x704 <button_fsm+0xe0>
     702:	ae cf       	rjmp	.-164    	; 0x660 <button_fsm+0x3c>
                    btn->single_click_action();
                break;
            default:
                if (btn->double_click_action)
                    btn->double_click_action();
     704:	09 95       	icall
     706:	ac cf       	rjmp	.-168    	; 0x660 <button_fsm+0x3c>
        /**
         * if in BUTTON_STATE_INIT and button debounced state is LOW,
         * save the time to _startTime
         * change state to BUTTON_STATE_DOWN
         */
        if (!debouncedBState)
     708:	21 11       	cpse	r18, r1
     70a:	b3 cf       	rjmp	.-154    	; 0x672 <button_fsm+0x4e>
        {
            btn->num_clicks = 0;
     70c:	1b a2       	std	Y+35, r1	; 0x23
    return btn->_debouncedBState;
}

void _newState(Button *btn, enum button_state state)
{
    btn->_state = state;
     70e:	81 e0       	ldi	r24, 0x01	; 1
     710:	90 e0       	ldi	r25, 0x00	; 0
     712:	9a a3       	std	Y+34, r25	; 0x22
     714:	89 a3       	std	Y+33, r24	; 0x21
    btn->_startTime = get_millis();
     716:	0e 94 a2 01 	call	0x344	; 0x344 <get_millis>
     71a:	6d 8f       	std	Y+29, r22	; 0x1d
     71c:	7e 8f       	std	Y+30, r23	; 0x1e
     71e:	8f 8f       	std	Y+31, r24	; 0x1f
     720:	98 a3       	std	Y+32, r25	; 0x20
     722:	a7 cf       	rjmp	.-178    	; 0x672 <button_fsm+0x4e>
    case BUTTON_STATE_UP:
        /**
         * If in BUTTON_STATE_UP, increment button click counter then
         * change button state to BUTTON_STATE_COUNT
         */
        btn->num_clicks++;
     724:	8b a1       	ldd	r24, Y+35	; 0x23
     726:	8f 5f       	subi	r24, 0xFF	; 255
     728:	8b a3       	std	Y+35, r24	; 0x23
    return btn->_debouncedBState;
}

void _newState(Button *btn, enum button_state state)
{
    btn->_state = state;
     72a:	83 e0       	ldi	r24, 0x03	; 3
     72c:	90 e0       	ldi	r25, 0x00	; 0
     72e:	9a a3       	std	Y+34, r25	; 0x22
     730:	89 a3       	std	Y+33, r24	; 0x21
    btn->_startTime = get_millis();
     732:	0e 94 a2 01 	call	0x344	; 0x344 <get_millis>
     736:	6d 8f       	std	Y+29, r22	; 0x1d
     738:	7e 8f       	std	Y+30, r23	; 0x1e
     73a:	8f 8f       	std	Y+31, r24	; 0x1f
     73c:	98 a3       	std	Y+32, r25	; 0x20
     */
    default:
        button_reset(btn);
        break;
    }
}
     73e:	df 91       	pop	r29
     740:	cf 91       	pop	r28
     742:	08 95       	ret
            case 1:
                if (btn->single_click_action)
                    btn->single_click_action();
                break;
            default:
                if (btn->double_click_action)
     744:	ef 85       	ldd	r30, Y+15	; 0x0f
     746:	f8 89       	ldd	r31, Y+16	; 0x10
     748:	30 97       	sbiw	r30, 0x00	; 0
     74a:	09 f4       	brne	.+2      	; 0x74e <button_fsm+0x12a>
     74c:	89 cf       	rjmp	.-238    	; 0x660 <button_fsm+0x3c>
                    btn->double_click_action();
     74e:	09 95       	icall
     750:	87 cf       	rjmp	.-242    	; 0x660 <button_fsm+0x3c>
    return btn->_debouncedBState;
}

void _newState(Button *btn, enum button_state state)
{
    btn->_state = state;
     752:	82 e0       	ldi	r24, 0x02	; 2
     754:	90 e0       	ldi	r25, 0x00	; 0
     756:	9a a3       	std	Y+34, r25	; 0x22
     758:	89 a3       	std	Y+33, r24	; 0x21
    btn->_startTime = get_millis();
     75a:	0e 94 a2 01 	call	0x344	; 0x344 <get_millis>
     75e:	6d 8f       	std	Y+29, r22	; 0x1d
     760:	7e 8f       	std	Y+30, r23	; 0x1e
     762:	8f 8f       	std	Y+31, r24	; 0x1f
     764:	98 a3       	std	Y+32, r25	; 0x20
     766:	85 cf       	rjmp	.-246    	; 0x672 <button_fsm+0x4e>
    return btn->_debouncedBState;
}

void _newState(Button *btn, enum button_state state)
{
    btn->_state = state;
     768:	81 e0       	ldi	r24, 0x01	; 1
     76a:	90 e0       	ldi	r25, 0x00	; 0
     76c:	9a a3       	std	Y+34, r25	; 0x22
     76e:	89 a3       	std	Y+33, r24	; 0x21
    btn->_startTime = get_millis();
     770:	0e 94 a2 01 	call	0x344	; 0x344 <get_millis>
         *
         */
        if (!debouncedBState)
        {
            _newState(btn, BUTTON_STATE_DOWN);
            btn->_startTime = btn->now;
     774:	8d 89       	ldd	r24, Y+21	; 0x15
     776:	9e 89       	ldd	r25, Y+22	; 0x16
     778:	af 89       	ldd	r26, Y+23	; 0x17
     77a:	b8 8d       	ldd	r27, Y+24	; 0x18
     77c:	8d 8f       	std	Y+29, r24	; 0x1d
     77e:	9e 8f       	std	Y+30, r25	; 0x1e
     780:	af 8f       	std	Y+31, r26	; 0x1f
     782:	b8 a3       	std	Y+32, r27	; 0x20
     784:	76 cf       	rjmp	.-276    	; 0x672 <button_fsm+0x4e>

00000786 <button_ISR_tick>:
    btn->num_clicks = 0;
    btn->_debouncedBState = 1;
}

void button_ISR_tick(Button *btn)
{
     786:	cf 93       	push	r28
     788:	df 93       	push	r29
     78a:	ec 01       	movw	r28, r24
    button_fsm(btn, button_debounce(btn));
     78c:	0e 94 ba 02 	call	0x574	; 0x574 <button_debounce>
     790:	68 2f       	mov	r22, r24
     792:	ce 01       	movw	r24, r28
}
     794:	df 91       	pop	r29
     796:	cf 91       	pop	r28
    btn->_debouncedBState = 1;
}

void button_ISR_tick(Button *btn)
{
    button_fsm(btn, button_debounce(btn));
     798:	0c 94 12 03 	jmp	0x624	; 0x624 <button_fsm>

0000079c <seven_segment_init>:
Pin digit_pins[4];
Pin colon_pin;
uint32_t prev_millis_colon_flash;

void seven_segment_init()
{
     79c:	cf 92       	push	r12
     79e:	df 92       	push	r13
     7a0:	ef 92       	push	r14
     7a2:	ff 92       	push	r15
     7a4:	0f 93       	push	r16
     7a6:	1f 93       	push	r17
     7a8:	cf 93       	push	r28
     7aa:	df 93       	push	r29
     7ac:	c1 ec       	ldi	r28, 0xC1	; 193
     7ae:	d1 e0       	ldi	r29, 0x01	; 1
     7b0:	10 e0       	ldi	r17, 0x00	; 0
    for (int i = 0; i < 8; i++)
    {
        segment_pins[i].ddr = &SEGMENTS_DDR;
     7b2:	3a e2       	ldi	r19, 0x2A	; 42
     7b4:	c3 2e       	mov	r12, r19
     7b6:	d1 2c       	mov	r13, r1
        segment_pins[i].port = &SEGMENTS_PORT;
     7b8:	4b e2       	ldi	r20, 0x2B	; 43
     7ba:	e4 2e       	mov	r14, r20
     7bc:	f1 2c       	mov	r15, r1

void seven_segment_init()
{
    for (int i = 0; i < 8; i++)
    {
        segment_pins[i].ddr = &SEGMENTS_DDR;
     7be:	d9 82       	std	Y+1, r13	; 0x01
     7c0:	c8 82       	st	Y, r12
        segment_pins[i].port = &SEGMENTS_PORT;
     7c2:	fb 82       	std	Y+3, r15	; 0x03
     7c4:	ea 82       	std	Y+2, r14	; 0x02
        segment_pins[i].pin_num = i;
     7c6:	1e 83       	std	Y+6, r17	; 0x06
        gpio_set_pin_output(&segment_pins[i]);
     7c8:	ce 01       	movw	r24, r28
     7ca:	0e 94 da 01 	call	0x3b4	; 0x3b4 <gpio_set_pin_output>
     7ce:	27 96       	adiw	r28, 0x07	; 7
     7d0:	1f 5f       	subi	r17, 0xFF	; 255
Pin colon_pin;
uint32_t prev_millis_colon_flash;

void seven_segment_init()
{
    for (int i = 0; i < 8; i++)
     7d2:	18 30       	cpi	r17, 0x08	; 8
     7d4:	a1 f7       	brne	.-24     	; 0x7be <seven_segment_init+0x22>
     7d6:	f1 2c       	mov	r15, r1
     7d8:	e1 2c       	mov	r14, r1
        segment_pins[i].ddr = &SEGMENTS_DDR;
        segment_pins[i].port = &SEGMENTS_PORT;
        segment_pins[i].pin_num = i;
        gpio_set_pin_output(&segment_pins[i]);
    }
    int i1 = 0;
     7da:	90 e0       	ldi	r25, 0x00	; 0
     7dc:	80 e0       	ldi	r24, 0x00	; 0
        // gpio_set_pin_output(&digit_pins[i]);

        // skip PB1
        if (i != 1)
        {
            digit_pins[i1].ddr = &DIGITS_DDR;
     7de:	04 e2       	ldi	r16, 0x24	; 36
     7e0:	10 e0       	ldi	r17, 0x00	; 0
            digit_pins[i1].port = &DIGITS_PORT;
     7e2:	c5 e2       	ldi	r28, 0x25	; 37
     7e4:	d0 e0       	ldi	r29, 0x00	; 0
     7e6:	fc 01       	movw	r30, r24
     7e8:	ee 0f       	add	r30, r30
     7ea:	ff 1f       	adc	r31, r31
     7ec:	ee 0f       	add	r30, r30
     7ee:	ff 1f       	adc	r31, r31
     7f0:	ee 0f       	add	r30, r30
     7f2:	ff 1f       	adc	r31, r31
     7f4:	e8 1b       	sub	r30, r24
     7f6:	f9 0b       	sbc	r31, r25
     7f8:	e1 56       	subi	r30, 0x61	; 97
     7fa:	fe 4f       	sbci	r31, 0xFE	; 254
     7fc:	6c 01       	movw	r12, r24
     7fe:	2f ef       	ldi	r18, 0xFF	; 255
     800:	c2 1a       	sub	r12, r18
     802:	d2 0a       	sbc	r13, r18
        // // digit_pins[i].pin = &PINB;
        // digit_pins[i].pin_num = i;
        // gpio_set_pin_output(&digit_pins[i]);

        // skip PB1
        if (i != 1)
     804:	21 e0       	ldi	r18, 0x01	; 1
     806:	e2 16       	cp	r14, r18
     808:	f1 04       	cpc	r15, r1
     80a:	41 f1       	breq	.+80     	; 0x85c <__DATA_REGION_LENGTH__+0x5c>
        {
            digit_pins[i1].ddr = &DIGITS_DDR;
     80c:	11 83       	std	Z+1, r17	; 0x01
     80e:	00 83       	st	Z, r16
            digit_pins[i1].port = &DIGITS_PORT;
     810:	d3 83       	std	Z+3, r29	; 0x03
     812:	c2 83       	std	Z+2, r28	; 0x02
            // digit_pins[i].pin = &PINB;
            digit_pins[i1].pin_num = i;
     814:	e6 82       	std	Z+6, r14	; 0x06
            gpio_set_pin_output(&digit_pins[i1]);
     816:	cf 01       	movw	r24, r30
     818:	0e 94 da 01 	call	0x3b4	; 0x3b4 <gpio_set_pin_output>
        segment_pins[i].port = &SEGMENTS_PORT;
        segment_pins[i].pin_num = i;
        gpio_set_pin_output(&segment_pins[i]);
    }
    int i1 = 0;
    for (int i = 0; i < 5; i++)
     81c:	84 e0       	ldi	r24, 0x04	; 4
     81e:	e8 16       	cp	r14, r24
     820:	f1 04       	cpc	r15, r1
     822:	29 f0       	breq	.+10     	; 0x82e <__DATA_REGION_LENGTH__+0x2e>
     824:	2f ef       	ldi	r18, 0xFF	; 255
     826:	e2 1a       	sub	r14, r18
     828:	f2 0a       	sbc	r15, r18
     82a:	c6 01       	movw	r24, r12
     82c:	dc cf       	rjmp	.-72     	; 0x7e6 <seven_segment_init+0x4a>
            gpio_set_pin_output(&digit_pins[i1]);
            i1++;
        }
    }

    colon_pin.ddr = &COLON_DDR;
     82e:	10 93 99 01 	sts	0x0199, r17	; 0x800199 <colon_pin+0x1>
     832:	00 93 98 01 	sts	0x0198, r16	; 0x800198 <colon_pin>
    colon_pin.port = &COLON_PORT;
     836:	d0 93 9b 01 	sts	0x019B, r29	; 0x80019b <colon_pin+0x3>
     83a:	c0 93 9a 01 	sts	0x019A, r28	; 0x80019a <colon_pin+0x2>
    colon_pin.pin_num = COLON_PIN_NUM;
     83e:	85 e0       	ldi	r24, 0x05	; 5
     840:	80 93 9e 01 	sts	0x019E, r24	; 0x80019e <colon_pin+0x6>
    gpio_set_pin_output(&colon_pin);
     844:	88 e9       	ldi	r24, 0x98	; 152
     846:	91 e0       	ldi	r25, 0x01	; 1
}
     848:	df 91       	pop	r29
     84a:	cf 91       	pop	r28
     84c:	1f 91       	pop	r17
     84e:	0f 91       	pop	r16
     850:	ff 90       	pop	r15
     852:	ef 90       	pop	r14
     854:	df 90       	pop	r13
     856:	cf 90       	pop	r12
    }

    colon_pin.ddr = &COLON_DDR;
    colon_pin.port = &COLON_PORT;
    colon_pin.pin_num = COLON_PIN_NUM;
    gpio_set_pin_output(&colon_pin);
     858:	0c 94 da 01 	jmp	0x3b4	; 0x3b4 <gpio_set_pin_output>
     85c:	6c 01       	movw	r12, r24
     85e:	e2 cf       	rjmp	.-60     	; 0x824 <__DATA_REGION_LENGTH__+0x24>

00000860 <seven_segment_loop_isr>:
}

void seven_segment_loop_isr(void)
{

    gpio_set_pin_val(&colon_pin, display_data.colon);
     860:	60 91 bf 01 	lds	r22, 0x01BF	; 0x8001bf <display_data+0x4>
     864:	88 e9       	ldi	r24, 0x98	; 152
     866:	91 e0       	ldi	r25, 0x01	; 1
     868:	0e 94 39 02 	call	0x472	; 0x472 <gpio_set_pin_val>
    // DIGITS_PORT |= 0x0F;
    DIGITS_PORT |= 0x1D; // skip PB1
     86c:	85 b1       	in	r24, 0x05	; 5
     86e:	8d 61       	ori	r24, 0x1D	; 29
     870:	85 b9       	out	0x05, r24	; 5
    // DIGITS_PORT &= ~(_BV(3 - display_data.cur_digit_index));
    DIGITS_PORT &= ~(_BV(digit_pins[3 - display_data.cur_digit_index].pin_num));
     872:	35 b1       	in	r19, 0x05	; 5
     874:	20 91 c0 01 	lds	r18, 0x01C0	; 0x8001c0 <display_data+0x5>
     878:	42 2f       	mov	r20, r18
     87a:	50 e0       	ldi	r21, 0x00	; 0
     87c:	63 e0       	ldi	r22, 0x03	; 3
     87e:	70 e0       	ldi	r23, 0x00	; 0
     880:	64 1b       	sub	r22, r20
     882:	75 0b       	sbc	r23, r21
     884:	fb 01       	movw	r30, r22
     886:	ee 0f       	add	r30, r30
     888:	ff 1f       	adc	r31, r31
     88a:	ee 0f       	add	r30, r30
     88c:	ff 1f       	adc	r31, r31
     88e:	ee 0f       	add	r30, r30
     890:	ff 1f       	adc	r31, r31
     892:	e6 1b       	sub	r30, r22
     894:	f7 0b       	sbc	r31, r23
     896:	e1 56       	subi	r30, 0x61	; 97
     898:	fe 4f       	sbci	r31, 0xFE	; 254
     89a:	66 81       	ldd	r22, Z+6	; 0x06
     89c:	81 e0       	ldi	r24, 0x01	; 1
     89e:	90 e0       	ldi	r25, 0x00	; 0
     8a0:	01 c0       	rjmp	.+2      	; 0x8a4 <seven_segment_loop_isr+0x44>
     8a2:	88 0f       	add	r24, r24
     8a4:	6a 95       	dec	r22
     8a6:	ea f7       	brpl	.-6      	; 0x8a2 <seven_segment_loop_isr+0x42>
     8a8:	80 95       	com	r24
     8aa:	83 23       	and	r24, r19
     8ac:	85 b9       	out	0x05, r24	; 5
    SEGMENTS_PORT = ~display_data.display_digits[display_data.cur_digit_index];
     8ae:	45 54       	subi	r20, 0x45	; 69
     8b0:	5e 4f       	sbci	r21, 0xFE	; 254
     8b2:	fa 01       	movw	r30, r20
     8b4:	80 81       	ld	r24, Z
     8b6:	80 95       	com	r24
     8b8:	8b b9       	out	0x0b, r24	; 11
    display_data.cur_digit_index++;
     8ba:	2f 5f       	subi	r18, 0xFF	; 255
    if (display_data.cur_digit_index > 3)
     8bc:	24 30       	cpi	r18, 0x04	; 4
     8be:	18 f0       	brcs	.+6      	; 0x8c6 <seven_segment_loop_isr+0x66>
    {
        display_data.cur_digit_index = 0;
     8c0:	10 92 c0 01 	sts	0x01C0, r1	; 0x8001c0 <display_data+0x5>
    }
}
     8c4:	08 95       	ret
    // DIGITS_PORT |= 0x0F;
    DIGITS_PORT |= 0x1D; // skip PB1
    // DIGITS_PORT &= ~(_BV(3 - display_data.cur_digit_index));
    DIGITS_PORT &= ~(_BV(digit_pins[3 - display_data.cur_digit_index].pin_num));
    SEGMENTS_PORT = ~display_data.display_digits[display_data.cur_digit_index];
    display_data.cur_digit_index++;
     8c6:	20 93 c0 01 	sts	0x01C0, r18	; 0x8001c0 <display_data+0x5>
     8ca:	08 95       	ret

000008cc <seven_segment_clear_all>:
 */
void seven_segment_clear_all(void)
{
    for (int i = 0; i < 4; i++)
    {
        display_data.display_digits[i] = 0;
     8cc:	eb eb       	ldi	r30, 0xBB	; 187
     8ce:	f1 e0       	ldi	r31, 0x01	; 1
     8d0:	10 82       	st	Z, r1
     8d2:	11 82       	std	Z+1, r1	; 0x01
     8d4:	12 82       	std	Z+2, r1	; 0x02
     8d6:	13 82       	std	Z+3, r1	; 0x03
    }
    display_data.colon = 0;
     8d8:	14 82       	std	Z+4, r1	; 0x04
}
     8da:	08 95       	ret

000008dc <seven_segment_set_all>:

void seven_segment_set_all(void)
{
    for (int i = 0; i < 4; i++)
    {
        display_data.display_digits[i] = 255;
     8dc:	eb eb       	ldi	r30, 0xBB	; 187
     8de:	f1 e0       	ldi	r31, 0x01	; 1
     8e0:	8f ef       	ldi	r24, 0xFF	; 255
     8e2:	80 83       	st	Z, r24
     8e4:	81 83       	std	Z+1, r24	; 0x01
     8e6:	82 83       	std	Z+2, r24	; 0x02
     8e8:	83 83       	std	Z+3, r24	; 0x03
    }
    display_data.colon = 1;
     8ea:	81 e0       	ldi	r24, 0x01	; 1
     8ec:	84 83       	std	Z+4, r24	; 0x04
}
     8ee:	08 95       	ret

000008f0 <seven_segment_write_byte_to_digit>:

void seven_segment_write_byte_to_digit(uint8_t byte, uint8_t digit)
{
    display_data.display_digits[digit] = byte;
     8f0:	e6 2f       	mov	r30, r22
     8f2:	f0 e0       	ldi	r31, 0x00	; 0
     8f4:	e5 54       	subi	r30, 0x45	; 69
     8f6:	fe 4f       	sbci	r31, 0xFE	; 254
     8f8:	80 83       	st	Z, r24
}
     8fa:	08 95       	ret

000008fc <seven_segment_write_bytes>:

void seven_segment_write_bytes(uint8_t bytes[4])
{
     8fc:	dc 01       	movw	r26, r24
     8fe:	eb eb       	ldi	r30, 0xBB	; 187
     900:	f1 e0       	ldi	r31, 0x01	; 1
    for (int i = 0; i < 4; i++)
    {
        seven_segment_write_byte_to_digit(bytes[i], i);
     902:	8d 91       	ld	r24, X+
    display_data.colon = 1;
}

void seven_segment_write_byte_to_digit(uint8_t byte, uint8_t digit)
{
    display_data.display_digits[digit] = byte;
     904:	81 93       	st	Z+, r24
}

void seven_segment_write_bytes(uint8_t bytes[4])
{
    for (int i = 0; i < 4; i++)
     906:	81 e0       	ldi	r24, 0x01	; 1
     908:	ef 3b       	cpi	r30, 0xBF	; 191
     90a:	f8 07       	cpc	r31, r24
     90c:	d1 f7       	brne	.-12     	; 0x902 <__stack+0x3>
    {
        seven_segment_write_byte_to_digit(bytes[i], i);
    }
}
     90e:	08 95       	ret

00000910 <seven_segment_write_digit_val_to_digit>:
    display_data.colon = 1;
}

void seven_segment_write_byte_to_digit(uint8_t byte, uint8_t digit)
{
    display_data.display_digits[digit] = byte;
     910:	e6 2f       	mov	r30, r22
     912:	f0 e0       	ldi	r31, 0x00	; 0
     914:	e5 54       	subi	r30, 0x45	; 69
     916:	fe 4f       	sbci	r31, 0xFE	; 254
    }
}

void seven_segment_write_digit_val_to_digit(uint8_t digit_index, uint8_t digit)
{
    seven_segment_write_byte_to_digit(digit_values[digit_index], digit);
     918:	a8 2f       	mov	r26, r24
     91a:	b0 e0       	ldi	r27, 0x00	; 0
     91c:	a0 50       	subi	r26, 0x00	; 0
     91e:	bf 4f       	sbci	r27, 0xFF	; 255
    display_data.colon = 1;
}

void seven_segment_write_byte_to_digit(uint8_t byte, uint8_t digit)
{
    display_data.display_digits[digit] = byte;
     920:	8c 91       	ld	r24, X
     922:	80 83       	st	Z, r24
}

void seven_segment_write_digit_val_to_digit(uint8_t digit_index, uint8_t digit)
{
    seven_segment_write_byte_to_digit(digit_values[digit_index], digit);
}
     924:	08 95       	ret

00000926 <seven_segment_write_digit_vals>:

void seven_segment_write_digit_vals(uint8_t digit_indices[4])
{
     926:	cf 93       	push	r28
     928:	df 93       	push	r29
     92a:	ec 01       	movw	r28, r24
     92c:	ab eb       	ldi	r26, 0xBB	; 187
     92e:	b1 e0       	ldi	r27, 0x01	; 1
    for (int i = 0; i < 4; i++)
    {
        seven_segment_write_digit_val_to_digit(digit_indices[i], i);
     930:	e9 91       	ld	r30, Y+
    }
}

void seven_segment_write_digit_val_to_digit(uint8_t digit_index, uint8_t digit)
{
    seven_segment_write_byte_to_digit(digit_values[digit_index], digit);
     932:	f0 e0       	ldi	r31, 0x00	; 0
     934:	e0 50       	subi	r30, 0x00	; 0
     936:	ff 4f       	sbci	r31, 0xFF	; 255
    display_data.colon = 1;
}

void seven_segment_write_byte_to_digit(uint8_t byte, uint8_t digit)
{
    display_data.display_digits[digit] = byte;
     938:	80 81       	ld	r24, Z
     93a:	8d 93       	st	X+, r24
    seven_segment_write_byte_to_digit(digit_values[digit_index], digit);
}

void seven_segment_write_digit_vals(uint8_t digit_indices[4])
{
    for (int i = 0; i < 4; i++)
     93c:	81 e0       	ldi	r24, 0x01	; 1
     93e:	af 3b       	cpi	r26, 0xBF	; 191
     940:	b8 07       	cpc	r27, r24
     942:	b1 f7       	brne	.-20     	; 0x930 <seven_segment_write_digit_vals+0xa>
    {
        seven_segment_write_digit_val_to_digit(digit_indices[i], i);
    }
}
     944:	df 91       	pop	r29
     946:	cf 91       	pop	r28
     948:	08 95       	ret

0000094a <seven_segment_set_colon>:

void seven_segment_set_colon(uint8_t state)
{
    display_data.colon = state;
     94a:	80 93 bf 01 	sts	0x01BF, r24	; 0x8001bf <display_data+0x4>
}
     94e:	08 95       	ret

00000950 <flash_colon_loop>:

void flash_colon_loop(uint32_t t_millis)
{
     950:	cf 92       	push	r12
     952:	df 92       	push	r13
     954:	ef 92       	push	r14
     956:	ff 92       	push	r15
     958:	0f 93       	push	r16
     95a:	1f 93       	push	r17
    if (t_millis - prev_millis_colon_flash > 500)
     95c:	00 91 f9 01 	lds	r16, 0x01F9	; 0x8001f9 <prev_millis_colon_flash>
     960:	10 91 fa 01 	lds	r17, 0x01FA	; 0x8001fa <prev_millis_colon_flash+0x1>
     964:	20 91 fb 01 	lds	r18, 0x01FB	; 0x8001fb <prev_millis_colon_flash+0x2>
     968:	30 91 fc 01 	lds	r19, 0x01FC	; 0x8001fc <prev_millis_colon_flash+0x3>
     96c:	6b 01       	movw	r12, r22
     96e:	7c 01       	movw	r14, r24
     970:	c0 1a       	sub	r12, r16
     972:	d1 0a       	sbc	r13, r17
     974:	e2 0a       	sbc	r14, r18
     976:	f3 0a       	sbc	r15, r19
     978:	97 01       	movw	r18, r14
     97a:	86 01       	movw	r16, r12
     97c:	05 3f       	cpi	r16, 0xF5	; 245
     97e:	11 40       	sbci	r17, 0x01	; 1
     980:	21 05       	cpc	r18, r1
     982:	31 05       	cpc	r19, r1
     984:	78 f0       	brcs	.+30     	; 0x9a4 <flash_colon_loop+0x54>
    {
        prev_millis_colon_flash = t_millis;
     986:	60 93 f9 01 	sts	0x01F9, r22	; 0x8001f9 <prev_millis_colon_flash>
     98a:	70 93 fa 01 	sts	0x01FA, r23	; 0x8001fa <prev_millis_colon_flash+0x1>
     98e:	80 93 fb 01 	sts	0x01FB, r24	; 0x8001fb <prev_millis_colon_flash+0x2>
     992:	90 93 fc 01 	sts	0x01FC, r25	; 0x8001fc <prev_millis_colon_flash+0x3>
        if (display_data.colon)
     996:	81 e0       	ldi	r24, 0x01	; 1
     998:	90 91 bf 01 	lds	r25, 0x01BF	; 0x8001bf <display_data+0x4>
     99c:	91 11       	cpse	r25, r1
     99e:	09 c0       	rjmp	.+18     	; 0x9b2 <flash_colon_loop+0x62>
        }
        else
        {
            seven_segment_set_colon(0);
        }
        display_data.colon = !display_data.colon;
     9a0:	80 93 bf 01 	sts	0x01BF, r24	; 0x8001bf <display_data+0x4>
    }
}
     9a4:	1f 91       	pop	r17
     9a6:	0f 91       	pop	r16
     9a8:	ff 90       	pop	r15
     9aa:	ef 90       	pop	r14
     9ac:	df 90       	pop	r13
     9ae:	cf 90       	pop	r12
     9b0:	08 95       	ret
void flash_colon_loop(uint32_t t_millis)
{
    if (t_millis - prev_millis_colon_flash > 500)
    {
        prev_millis_colon_flash = t_millis;
        if (display_data.colon)
     9b2:	80 e0       	ldi	r24, 0x00	; 0
     9b4:	f5 cf       	rjmp	.-22     	; 0x9a0 <flash_colon_loop+0x50>

000009b6 <seven_segment_set_decimal_point>:
    }
}

void seven_segment_set_decimal_point(uint8_t digit)
{
    display_data.display_digits[digit] |= _BV(7);
     9b6:	e8 2f       	mov	r30, r24
     9b8:	f0 e0       	ldi	r31, 0x00	; 0
     9ba:	e5 54       	subi	r30, 0x45	; 69
     9bc:	fe 4f       	sbci	r31, 0xFE	; 254
     9be:	80 81       	ld	r24, Z
     9c0:	80 68       	ori	r24, 0x80	; 128
     9c2:	80 83       	st	Z, r24
}
     9c4:	08 95       	ret

000009c6 <seven_segment_show_hour_minute>:

void seven_segment_show_hour_minute(uint8_t hour, uint8_t minute)
{
     9c6:	88 31       	cpi	r24, 0x18	; 24
     9c8:	08 f0       	brcs	.+2      	; 0x9cc <seven_segment_show_hour_minute+0x6>
     9ca:	87 e1       	ldi	r24, 0x17	; 23
     9cc:	e6 2f       	mov	r30, r22
     9ce:	6c 33       	cpi	r22, 0x3C	; 60
     9d0:	08 f0       	brcs	.+2      	; 0x9d4 <seven_segment_show_hour_minute+0xe>
     9d2:	eb e3       	ldi	r30, 0x3B	; 59
    }

    uint8_t digit_indices[4];

    // get hour tens digit
    digit_indices[0] = hour / 10;
     9d4:	9d ec       	ldi	r25, 0xCD	; 205
     9d6:	89 9f       	mul	r24, r25
     9d8:	21 2d       	mov	r18, r1
     9da:	11 24       	eor	r1, r1
     9dc:	32 2f       	mov	r19, r18
     9de:	36 95       	lsr	r19
     9e0:	36 95       	lsr	r19
     9e2:	36 95       	lsr	r19
    }
}

void seven_segment_write_digit_val_to_digit(uint8_t digit_index, uint8_t digit)
{
    seven_segment_write_byte_to_digit(digit_values[digit_index], digit);
     9e4:	a3 2f       	mov	r26, r19
     9e6:	b0 e0       	ldi	r27, 0x00	; 0
     9e8:	a0 50       	subi	r26, 0x00	; 0
     9ea:	bf 4f       	sbci	r27, 0xFF	; 255
    display_data.colon = 1;
}

void seven_segment_write_byte_to_digit(uint8_t byte, uint8_t digit)
{
    display_data.display_digits[digit] = byte;
     9ec:	2c 91       	ld	r18, X
     9ee:	20 93 bb 01 	sts	0x01BB, r18	; 0x8001bb <display_data>
    uint8_t digit_indices[4];

    // get hour tens digit
    digit_indices[0] = hour / 10;
    // get hour ones digit
    digit_indices[1] = hour % 10;
     9f2:	23 2f       	mov	r18, r19
     9f4:	22 0f       	add	r18, r18
     9f6:	22 0f       	add	r18, r18
     9f8:	23 0f       	add	r18, r19
     9fa:	22 0f       	add	r18, r18
     9fc:	82 1b       	sub	r24, r18
    }
}

void seven_segment_write_digit_val_to_digit(uint8_t digit_index, uint8_t digit)
{
    seven_segment_write_byte_to_digit(digit_values[digit_index], digit);
     9fe:	a8 2f       	mov	r26, r24
     a00:	b0 e0       	ldi	r27, 0x00	; 0
     a02:	a0 50       	subi	r26, 0x00	; 0
     a04:	bf 4f       	sbci	r27, 0xFF	; 255
    display_data.colon = 1;
}

void seven_segment_write_byte_to_digit(uint8_t byte, uint8_t digit)
{
    display_data.display_digits[digit] = byte;
     a06:	8c 91       	ld	r24, X
     a08:	80 93 bc 01 	sts	0x01BC, r24	; 0x8001bc <display_data+0x1>
    digit_indices[0] = hour / 10;
    // get hour ones digit
    digit_indices[1] = hour % 10;

    // get minute tens digit
    digit_indices[2] = minute / 10;
     a0c:	e9 9f       	mul	r30, r25
     a0e:	81 2d       	mov	r24, r1
     a10:	11 24       	eor	r1, r1
     a12:	86 95       	lsr	r24
     a14:	86 95       	lsr	r24
     a16:	86 95       	lsr	r24
    }
}

void seven_segment_write_digit_val_to_digit(uint8_t digit_index, uint8_t digit)
{
    seven_segment_write_byte_to_digit(digit_values[digit_index], digit);
     a18:	a8 2f       	mov	r26, r24
     a1a:	b0 e0       	ldi	r27, 0x00	; 0
     a1c:	a0 50       	subi	r26, 0x00	; 0
     a1e:	bf 4f       	sbci	r27, 0xFF	; 255
    display_data.colon = 1;
}

void seven_segment_write_byte_to_digit(uint8_t byte, uint8_t digit)
{
    display_data.display_digits[digit] = byte;
     a20:	9c 91       	ld	r25, X
     a22:	90 93 bd 01 	sts	0x01BD, r25	; 0x8001bd <display_data+0x2>
    digit_indices[1] = hour % 10;

    // get minute tens digit
    digit_indices[2] = minute / 10;
    // get minute ones digit
    digit_indices[3] = minute % 10;
     a26:	98 2f       	mov	r25, r24
     a28:	99 0f       	add	r25, r25
     a2a:	99 0f       	add	r25, r25
     a2c:	89 0f       	add	r24, r25
     a2e:	88 0f       	add	r24, r24
     a30:	e8 1b       	sub	r30, r24
    }
}

void seven_segment_write_digit_val_to_digit(uint8_t digit_index, uint8_t digit)
{
    seven_segment_write_byte_to_digit(digit_values[digit_index], digit);
     a32:	f0 e0       	ldi	r31, 0x00	; 0
     a34:	e0 50       	subi	r30, 0x00	; 0
     a36:	ff 4f       	sbci	r31, 0xFF	; 255
    display_data.colon = 1;
}

void seven_segment_write_byte_to_digit(uint8_t byte, uint8_t digit)
{
    display_data.display_digits[digit] = byte;
     a38:	80 81       	ld	r24, Z
     a3a:	80 93 be 01 	sts	0x01BE, r24	; 0x8001be <display_data+0x3>
    // get minute ones digit
    digit_indices[3] = minute % 10;

    // write to display
    seven_segment_write_digit_vals(digit_indices);
}
     a3e:	08 95       	ret

00000a40 <seven_segment_show_month_day>:

void seven_segment_show_month_day(uint8_t month, uint8_t day)
{
     a40:	3f e3       	ldi	r19, 0x3F	; 63
     a42:	91 e0       	ldi	r25, 0x01	; 1
    // error checking
    if (month < 1)
     a44:	88 23       	and	r24, r24
     a46:	d1 f0       	breq	.+52     	; 0xa7c <seven_segment_show_month_day+0x3c>
     a48:	8d 30       	cpi	r24, 0x0D	; 13
     a4a:	08 f0       	brcs	.+2      	; 0xa4e <seven_segment_show_month_day+0xe>
     a4c:	45 c0       	rjmp	.+138    	; 0xad8 <seven_segment_show_month_day+0x98>
     a4e:	2d ec       	ldi	r18, 0xCD	; 205
     a50:	82 9f       	mul	r24, r18
     a52:	21 2d       	mov	r18, r1
     a54:	11 24       	eor	r1, r1
     a56:	92 2f       	mov	r25, r18
     a58:	96 95       	lsr	r25
     a5a:	96 95       	lsr	r25
     a5c:	96 95       	lsr	r25
     a5e:	e9 2f       	mov	r30, r25
     a60:	ee 0f       	add	r30, r30
     a62:	ee 0f       	add	r30, r30
     a64:	e9 0f       	add	r30, r25
     a66:	ee 0f       	add	r30, r30
     a68:	98 2f       	mov	r25, r24
     a6a:	9e 1b       	sub	r25, r30
     a6c:	26 95       	lsr	r18
     a6e:	26 95       	lsr	r18
     a70:	26 95       	lsr	r18
     a72:	e2 2f       	mov	r30, r18
     a74:	f0 e0       	ldi	r31, 0x00	; 0
     a76:	e0 50       	subi	r30, 0x00	; 0
     a78:	ff 4f       	sbci	r31, 0xFF	; 255
     a7a:	30 81       	ld	r19, Z
     a7c:	81 e0       	ldi	r24, 0x01	; 1
    }
    else if (month > 12)
    {
        month = 12;
    }
    if (day < 1)
     a7e:	66 23       	and	r22, r22
     a80:	89 f0       	breq	.+34     	; 0xaa4 <seven_segment_show_month_day+0x64>
     a82:	86 2f       	mov	r24, r22
     a84:	60 32       	cpi	r22, 0x20	; 32
     a86:	30 f5       	brcc	.+76     	; 0xad4 <seven_segment_show_month_day+0x94>
     a88:	ed ec       	ldi	r30, 0xCD	; 205
     a8a:	8e 9f       	mul	r24, r30
     a8c:	e1 2d       	mov	r30, r1
     a8e:	11 24       	eor	r1, r1
     a90:	6e 2f       	mov	r22, r30
     a92:	66 95       	lsr	r22
     a94:	66 95       	lsr	r22
     a96:	66 95       	lsr	r22
     a98:	26 2f       	mov	r18, r22
     a9a:	22 0f       	add	r18, r18
     a9c:	22 0f       	add	r18, r18
     a9e:	26 0f       	add	r18, r22
     aa0:	22 0f       	add	r18, r18
     aa2:	82 1b       	sub	r24, r18
    display_data.colon = 1;
}

void seven_segment_write_byte_to_digit(uint8_t byte, uint8_t digit)
{
    display_data.display_digits[digit] = byte;
     aa4:	30 93 bb 01 	sts	0x01BB, r19	; 0x8001bb <display_data>
     aa8:	e9 2f       	mov	r30, r25
     aaa:	f0 e0       	ldi	r31, 0x00	; 0
     aac:	e0 50       	subi	r30, 0x00	; 0
     aae:	ff 4f       	sbci	r31, 0xFF	; 255
     ab0:	90 81       	ld	r25, Z
     ab2:	90 93 bc 01 	sts	0x01BC, r25	; 0x8001bc <display_data+0x1>
     ab6:	e6 2f       	mov	r30, r22
     ab8:	f0 e0       	ldi	r31, 0x00	; 0
     aba:	e0 50       	subi	r30, 0x00	; 0
     abc:	ff 4f       	sbci	r31, 0xFF	; 255
     abe:	90 81       	ld	r25, Z
     ac0:	90 93 bd 01 	sts	0x01BD, r25	; 0x8001bd <display_data+0x2>
     ac4:	e8 2f       	mov	r30, r24
     ac6:	f0 e0       	ldi	r31, 0x00	; 0
     ac8:	e0 50       	subi	r30, 0x00	; 0
     aca:	ff 4f       	sbci	r31, 0xFF	; 255
     acc:	80 81       	ld	r24, Z
     ace:	80 93 be 01 	sts	0x01BE, r24	; 0x8001be <display_data+0x3>
    // get minute ones digit
    digit_indices[3] = day % 10;

    // write to display
    seven_segment_write_digit_vals(digit_indices);
}
     ad2:	08 95       	ret
     ad4:	8f e1       	ldi	r24, 0x1F	; 31
     ad6:	d8 cf       	rjmp	.-80     	; 0xa88 <seven_segment_show_month_day+0x48>
     ad8:	8c e0       	ldi	r24, 0x0C	; 12
     ada:	b9 cf       	rjmp	.-142    	; 0xa4e <seven_segment_show_month_day+0xe>

00000adc <seven_segment_show_year>:

void seven_segment_show_year(uint16_t year)
{
     adc:	cf 93       	push	r28
     ade:	df 93       	push	r29
     ae0:	9c 01       	movw	r18, r24
     ae2:	20 31       	cpi	r18, 0x10	; 16
     ae4:	87 e2       	ldi	r24, 0x27	; 39
     ae6:	38 07       	cpc	r19, r24
     ae8:	10 f0       	brcs	.+4      	; 0xaee <seven_segment_show_year+0x12>
     aea:	2f e0       	ldi	r18, 0x0F	; 15
     aec:	37 e2       	ldi	r19, 0x27	; 39
    else if (year > 9999)
    {
        year = 9999;
    }
    uint8_t digit_indices[4];
    digit_indices[0] = year / 1000;
     aee:	c9 01       	movw	r24, r18
     af0:	68 ee       	ldi	r22, 0xE8	; 232
     af2:	73 e0       	ldi	r23, 0x03	; 3
     af4:	0e 94 6a 07 	call	0xed4	; 0xed4 <__divmodhi4>
    }
}

void seven_segment_write_digit_val_to_digit(uint8_t digit_index, uint8_t digit)
{
    seven_segment_write_byte_to_digit(digit_values[digit_index], digit);
     af8:	60 50       	subi	r22, 0x00	; 0
     afa:	7f 4f       	sbci	r23, 0xFF	; 255
    display_data.colon = 1;
}

void seven_segment_write_byte_to_digit(uint8_t byte, uint8_t digit)
{
    display_data.display_digits[digit] = byte;
     afc:	fb 01       	movw	r30, r22
     afe:	40 81       	ld	r20, Z
     b00:	40 93 bb 01 	sts	0x01BB, r20	; 0x8001bb <display_data>
    {
        year = 9999;
    }
    uint8_t digit_indices[4];
    digit_indices[0] = year / 1000;
    digit_indices[1] = (year % 1000) / 100;
     b04:	c4 e6       	ldi	r28, 0x64	; 100
     b06:	d0 e0       	ldi	r29, 0x00	; 0
     b08:	be 01       	movw	r22, r28
     b0a:	0e 94 6a 07 	call	0xed4	; 0xed4 <__divmodhi4>
    }
}

void seven_segment_write_digit_val_to_digit(uint8_t digit_index, uint8_t digit)
{
    seven_segment_write_byte_to_digit(digit_values[digit_index], digit);
     b0e:	fb 01       	movw	r30, r22
     b10:	e0 50       	subi	r30, 0x00	; 0
     b12:	ff 4f       	sbci	r31, 0xFF	; 255
    display_data.colon = 1;
}

void seven_segment_write_byte_to_digit(uint8_t byte, uint8_t digit)
{
    display_data.display_digits[digit] = byte;
     b14:	80 81       	ld	r24, Z
     b16:	80 93 bc 01 	sts	0x01BC, r24	; 0x8001bc <display_data+0x1>
        year = 9999;
    }
    uint8_t digit_indices[4];
    digit_indices[0] = year / 1000;
    digit_indices[1] = (year % 1000) / 100;
    digit_indices[2] = (year % 100) / 10;
     b1a:	c9 01       	movw	r24, r18
     b1c:	be 01       	movw	r22, r28
     b1e:	0e 94 6a 07 	call	0xed4	; 0xed4 <__divmodhi4>
     b22:	ca e0       	ldi	r28, 0x0A	; 10
     b24:	d0 e0       	ldi	r29, 0x00	; 0
     b26:	be 01       	movw	r22, r28
     b28:	0e 94 6a 07 	call	0xed4	; 0xed4 <__divmodhi4>
    }
}

void seven_segment_write_digit_val_to_digit(uint8_t digit_index, uint8_t digit)
{
    seven_segment_write_byte_to_digit(digit_values[digit_index], digit);
     b2c:	fb 01       	movw	r30, r22
     b2e:	e0 50       	subi	r30, 0x00	; 0
     b30:	ff 4f       	sbci	r31, 0xFF	; 255
    display_data.colon = 1;
}

void seven_segment_write_byte_to_digit(uint8_t byte, uint8_t digit)
{
    display_data.display_digits[digit] = byte;
     b32:	80 81       	ld	r24, Z
     b34:	80 93 bd 01 	sts	0x01BD, r24	; 0x8001bd <display_data+0x2>
    }
    uint8_t digit_indices[4];
    digit_indices[0] = year / 1000;
    digit_indices[1] = (year % 1000) / 100;
    digit_indices[2] = (year % 100) / 10;
    digit_indices[3] = year % 10;
     b38:	c9 01       	movw	r24, r18
     b3a:	be 01       	movw	r22, r28
     b3c:	0e 94 6a 07 	call	0xed4	; 0xed4 <__divmodhi4>
    }
}

void seven_segment_write_digit_val_to_digit(uint8_t digit_index, uint8_t digit)
{
    seven_segment_write_byte_to_digit(digit_values[digit_index], digit);
     b40:	fc 01       	movw	r30, r24
     b42:	e0 50       	subi	r30, 0x00	; 0
     b44:	ff 4f       	sbci	r31, 0xFF	; 255
    display_data.colon = 1;
}

void seven_segment_write_byte_to_digit(uint8_t byte, uint8_t digit)
{
    display_data.display_digits[digit] = byte;
     b46:	80 81       	ld	r24, Z
     b48:	80 93 be 01 	sts	0x01BE, r24	; 0x8001be <display_data+0x3>
    digit_indices[0] = year / 1000;
    digit_indices[1] = (year % 1000) / 100;
    digit_indices[2] = (year % 100) / 10;
    digit_indices[3] = year % 10;
    seven_segment_write_digit_vals(digit_indices);
}
     b4c:	df 91       	pop	r29
     b4e:	cf 91       	pop	r28
     b50:	08 95       	ret

00000b52 <seven_segment_show_temperature>:

void seven_segment_show_temperature(float temperature_celsius)
{
     b52:	cf 92       	push	r12
     b54:	df 92       	push	r13
     b56:	ef 92       	push	r14
     b58:	ff 92       	push	r15
     b5a:	0f 93       	push	r16
     b5c:	1f 93       	push	r17
     b5e:	cf 93       	push	r28
     b60:	df 93       	push	r29
     b62:	6b 01       	movw	r12, r22
     b64:	7c 01       	movw	r14, r24
    int16_t temperature_int;
    // 27.0C
    if (temperature_celsius < -40.)
     b66:	20 e0       	ldi	r18, 0x00	; 0
     b68:	30 e0       	ldi	r19, 0x00	; 0
     b6a:	40 e2       	ldi	r20, 0x20	; 32
     b6c:	52 ec       	ldi	r21, 0xC2	; 194
     b6e:	0e 94 b2 07 	call	0xf64	; 0xf64 <__cmpsf2>
     b72:	87 fd       	sbrc	r24, 7
     b74:	35 c0       	rjmp	.+106    	; 0xbe0 <seven_segment_show_temperature+0x8e>
    {
        temperature_celsius = -40.;
    }
    else if (temperature_celsius > 125.)
     b76:	20 e0       	ldi	r18, 0x00	; 0
     b78:	30 e0       	ldi	r19, 0x00	; 0
     b7a:	4a ef       	ldi	r20, 0xFA	; 250
     b7c:	52 e4       	ldi	r21, 0x42	; 66
     b7e:	c7 01       	movw	r24, r14
     b80:	b6 01       	movw	r22, r12
     b82:	0e 94 3a 08 	call	0x1074	; 0x1074 <__gesf2>
     b86:	18 16       	cp	r1, r24
     b88:	0c f4       	brge	.+2      	; 0xb8c <seven_segment_show_temperature+0x3a>
     b8a:	5b c0       	rjmp	.+182    	; 0xc42 <seven_segment_show_temperature+0xf0>
    {
        temperature_celsius = 125.;
    }
    uint8_t digit_indices[4];
    // get tens digit
    if (temperature_celsius < 0.)
     b8c:	20 e0       	ldi	r18, 0x00	; 0
     b8e:	30 e0       	ldi	r19, 0x00	; 0
     b90:	a9 01       	movw	r20, r18
     b92:	c7 01       	movw	r24, r14
     b94:	b6 01       	movw	r22, r12
     b96:	0e 94 b2 07 	call	0xf64	; 0xf64 <__cmpsf2>
     b9a:	87 fd       	sbrc	r24, 7
     b9c:	5c c0       	rjmp	.+184    	; 0xc56 <seven_segment_show_temperature+0x104>
     b9e:	20 e0       	ldi	r18, 0x00	; 0
     ba0:	30 e0       	ldi	r19, 0x00	; 0
     ba2:	40 e2       	ldi	r20, 0x20	; 32
     ba4:	51 e4       	ldi	r21, 0x41	; 65
     ba6:	c7 01       	movw	r24, r14
     ba8:	b6 01       	movw	r22, r12
     baa:	0e 94 3f 08 	call	0x107e	; 0x107e <__mulsf3>
     bae:	0e 94 b7 07 	call	0xf6e	; 0xf6e <__fixsfsi>
     bb2:	fb 01       	movw	r30, r22
     bb4:	cb 01       	movw	r24, r22
     bb6:	64 e6       	ldi	r22, 0x64	; 100
     bb8:	70 e0       	ldi	r23, 0x00	; 0
     bba:	0e 94 6a 07 	call	0xed4	; 0xed4 <__divmodhi4>
     bbe:	eb 01       	movw	r28, r22
     bc0:	0a e0       	ldi	r16, 0x0A	; 10
     bc2:	10 e0       	ldi	r17, 0x00	; 0
     bc4:	b8 01       	movw	r22, r16
     bc6:	0e 94 6a 07 	call	0xed4	; 0xed4 <__divmodhi4>
     bca:	26 2f       	mov	r18, r22
     bcc:	cf 01       	movw	r24, r30
     bce:	b8 01       	movw	r22, r16
     bd0:	0e 94 6a 07 	call	0xed4	; 0xed4 <__divmodhi4>
     bd4:	e8 2f       	mov	r30, r24
     bd6:	dd 27       	eor	r29, r29
     bd8:	c0 50       	subi	r28, 0x00	; 0
     bda:	df 4f       	sbci	r29, 0xFF	; 255
     bdc:	c8 81       	ld	r28, Y
     bde:	09 c0       	rjmp	.+18     	; 0xbf2 <seven_segment_show_temperature+0xa0>
     be0:	c6 e6       	ldi	r28, 0x66	; 102
     be2:	e0 e0       	ldi	r30, 0x00	; 0
     be4:	20 e0       	ldi	r18, 0x00	; 0
{
    int16_t temperature_int;
    // 27.0C
    if (temperature_celsius < -40.)
    {
        temperature_celsius = -40.;
     be6:	c1 2c       	mov	r12, r1
     be8:	d1 2c       	mov	r13, r1
     bea:	90 e2       	ldi	r25, 0x20	; 32
     bec:	e9 2e       	mov	r14, r25
     bee:	92 ec       	ldi	r25, 0xC2	; 194
     bf0:	f9 2e       	mov	r15, r25
    display_data.colon = 1;
}

void seven_segment_write_byte_to_digit(uint8_t byte, uint8_t digit)
{
    display_data.display_digits[digit] = byte;
     bf2:	c0 93 bb 01 	sts	0x01BB, r28	; 0x8001bb <display_data>
     bf6:	a2 2f       	mov	r26, r18
     bf8:	b0 e0       	ldi	r27, 0x00	; 0
     bfa:	a0 50       	subi	r26, 0x00	; 0
     bfc:	bf 4f       	sbci	r27, 0xFF	; 255
     bfe:	8c 91       	ld	r24, X
     c00:	f0 e0       	ldi	r31, 0x00	; 0
     c02:	e0 50       	subi	r30, 0x00	; 0
     c04:	ff 4f       	sbci	r31, 0xFF	; 255
     c06:	90 81       	ld	r25, Z
     c08:	90 93 bd 01 	sts	0x01BD, r25	; 0x8001bd <display_data+0x2>
     c0c:	99 e3       	ldi	r25, 0x39	; 57
     c0e:	90 93 be 01 	sts	0x01BE, r25	; 0x8001be <display_data+0x3>
    }
}

void seven_segment_set_decimal_point(uint8_t digit)
{
    display_data.display_digits[digit] |= _BV(7);
     c12:	80 68       	ori	r24, 0x80	; 128
     c14:	80 93 bc 01 	sts	0x01BC, r24	; 0x8001bc <display_data+0x1>
    // last digit get C for celsius
    digit_indices[3] = 0xc;
    seven_segment_write_digit_vals(digit_indices);
    seven_segment_set_decimal_point(1);
    // if temperature sub zero, light up the 0th decimal point
    if (temperature_celsius < 0.)
     c18:	20 e0       	ldi	r18, 0x00	; 0
     c1a:	30 e0       	ldi	r19, 0x00	; 0
     c1c:	a9 01       	movw	r20, r18
     c1e:	c7 01       	movw	r24, r14
     c20:	b6 01       	movw	r22, r12
     c22:	0e 94 b2 07 	call	0xf64	; 0xf64 <__cmpsf2>
     c26:	87 ff       	sbrs	r24, 7
     c28:	03 c0       	rjmp	.+6      	; 0xc30 <seven_segment_show_temperature+0xde>
    }
}

void seven_segment_set_decimal_point(uint8_t digit)
{
    display_data.display_digits[digit] |= _BV(7);
     c2a:	c0 68       	ori	r28, 0x80	; 128
     c2c:	c0 93 bb 01 	sts	0x01BB, r28	; 0x8001bb <display_data>
    // if temperature sub zero, light up the 0th decimal point
    if (temperature_celsius < 0.)
    {
        seven_segment_set_decimal_point(0);
    }
}
     c30:	df 91       	pop	r29
     c32:	cf 91       	pop	r28
     c34:	1f 91       	pop	r17
     c36:	0f 91       	pop	r16
     c38:	ff 90       	pop	r15
     c3a:	ef 90       	pop	r14
     c3c:	df 90       	pop	r13
     c3e:	cf 90       	pop	r12
     c40:	08 95       	ret
     c42:	c9 e3       	ldi	r28, 0x39	; 57
     c44:	e0 e0       	ldi	r30, 0x00	; 0
     c46:	25 e0       	ldi	r18, 0x05	; 5
    {
        temperature_celsius = -40.;
    }
    else if (temperature_celsius > 125.)
    {
        temperature_celsius = 125.;
     c48:	c1 2c       	mov	r12, r1
     c4a:	d1 2c       	mov	r13, r1
     c4c:	8a ef       	ldi	r24, 0xFA	; 250
     c4e:	e8 2e       	mov	r14, r24
     c50:	82 e4       	ldi	r24, 0x42	; 66
     c52:	f8 2e       	mov	r15, r24
     c54:	ce cf       	rjmp	.-100    	; 0xbf2 <seven_segment_show_temperature+0xa0>
     c56:	20 e0       	ldi	r18, 0x00	; 0
     c58:	30 e0       	ldi	r19, 0x00	; 0
     c5a:	40 e2       	ldi	r20, 0x20	; 32
     c5c:	51 ec       	ldi	r21, 0xC1	; 193
     c5e:	c7 01       	movw	r24, r14
     c60:	b6 01       	movw	r22, r12
     c62:	0e 94 3f 08 	call	0x107e	; 0x107e <__mulsf3>
     c66:	0e 94 b7 07 	call	0xf6e	; 0xf6e <__fixsfsi>
     c6a:	fb 01       	movw	r30, r22
     c6c:	cb 01       	movw	r24, r22
     c6e:	64 e6       	ldi	r22, 0x64	; 100
     c70:	70 e0       	ldi	r23, 0x00	; 0
     c72:	0e 94 6a 07 	call	0xed4	; 0xed4 <__divmodhi4>
     c76:	eb 01       	movw	r28, r22
     c78:	0a e0       	ldi	r16, 0x0A	; 10
     c7a:	10 e0       	ldi	r17, 0x00	; 0
     c7c:	b8 01       	movw	r22, r16
     c7e:	0e 94 6a 07 	call	0xed4	; 0xed4 <__divmodhi4>
     c82:	26 2f       	mov	r18, r22
     c84:	cf 01       	movw	r24, r30
     c86:	b8 01       	movw	r22, r16
     c88:	0e 94 6a 07 	call	0xed4	; 0xed4 <__divmodhi4>
     c8c:	e8 2f       	mov	r30, r24
     c8e:	de 01       	movw	r26, r28
     c90:	bb 27       	eor	r27, r27
     c92:	a0 50       	subi	r26, 0x00	; 0
     c94:	bf 4f       	sbci	r27, 0xFF	; 255
     c96:	cc 91       	ld	r28, X
     c98:	ac cf       	rjmp	.-168    	; 0xbf2 <seven_segment_show_temperature+0xa0>

00000c9a <seven_segment_show_humidity>:
     c9a:	cf 92       	push	r12
     c9c:	df 92       	push	r13
     c9e:	ef 92       	push	r14
     ca0:	ff 92       	push	r15
     ca2:	cf 93       	push	r28
     ca4:	df 93       	push	r29
     ca6:	6b 01       	movw	r12, r22
     ca8:	7c 01       	movw	r14, r24
     caa:	20 e0       	ldi	r18, 0x00	; 0
     cac:	30 e0       	ldi	r19, 0x00	; 0
     cae:	a9 01       	movw	r20, r18
     cb0:	0e 94 b2 07 	call	0xf64	; 0xf64 <__cmpsf2>
     cb4:	87 fd       	sbrc	r24, 7
     cb6:	49 c0       	rjmp	.+146    	; 0xd4a <seven_segment_show_humidity+0xb0>
     cb8:	20 e0       	ldi	r18, 0x00	; 0
     cba:	30 e0       	ldi	r19, 0x00	; 0
     cbc:	48 ec       	ldi	r20, 0xC8	; 200
     cbe:	52 e4       	ldi	r21, 0x42	; 66
     cc0:	c7 01       	movw	r24, r14
     cc2:	b6 01       	movw	r22, r12
     cc4:	0e 94 3a 08 	call	0x1074	; 0x1074 <__gesf2>
     cc8:	18 16       	cp	r1, r24
     cca:	dc f1       	brlt	.+118    	; 0xd42 <seven_segment_show_humidity+0xa8>
     ccc:	20 e0       	ldi	r18, 0x00	; 0
     cce:	30 e0       	ldi	r19, 0x00	; 0
     cd0:	40 e2       	ldi	r20, 0x20	; 32
     cd2:	51 e4       	ldi	r21, 0x41	; 65
     cd4:	c7 01       	movw	r24, r14
     cd6:	b6 01       	movw	r22, r12
     cd8:	0e 94 3f 08 	call	0x107e	; 0x107e <__mulsf3>
     cdc:	0e 94 b7 07 	call	0xf6e	; 0xf6e <__fixsfsi>
     ce0:	fb 01       	movw	r30, r22
     ce2:	cb 01       	movw	r24, r22
     ce4:	64 e6       	ldi	r22, 0x64	; 100
     ce6:	70 e0       	ldi	r23, 0x00	; 0
     ce8:	0e 94 6a 07 	call	0xed4	; 0xed4 <__divmodhi4>
     cec:	7b 01       	movw	r14, r22
     cee:	ca e0       	ldi	r28, 0x0A	; 10
     cf0:	d0 e0       	ldi	r29, 0x00	; 0
     cf2:	be 01       	movw	r22, r28
     cf4:	0e 94 6a 07 	call	0xed4	; 0xed4 <__divmodhi4>
     cf8:	26 2f       	mov	r18, r22
     cfa:	cf 01       	movw	r24, r30
     cfc:	be 01       	movw	r22, r28
     cfe:	0e 94 6a 07 	call	0xed4	; 0xed4 <__divmodhi4>
     d02:	e8 2f       	mov	r30, r24
     d04:	d7 01       	movw	r26, r14
     d06:	bb 27       	eor	r27, r27
     d08:	a0 50       	subi	r26, 0x00	; 0
     d0a:	bf 4f       	sbci	r27, 0xFF	; 255
     d0c:	8c 91       	ld	r24, X
     d0e:	80 93 bb 01 	sts	0x01BB, r24	; 0x8001bb <display_data>
     d12:	a2 2f       	mov	r26, r18
     d14:	b0 e0       	ldi	r27, 0x00	; 0
     d16:	a0 50       	subi	r26, 0x00	; 0
     d18:	bf 4f       	sbci	r27, 0xFF	; 255
     d1a:	8c 91       	ld	r24, X
     d1c:	f0 e0       	ldi	r31, 0x00	; 0
     d1e:	e0 50       	subi	r30, 0x00	; 0
     d20:	ff 4f       	sbci	r31, 0xFF	; 255
     d22:	90 81       	ld	r25, Z
     d24:	90 93 bd 01 	sts	0x01BD, r25	; 0x8001bd <display_data+0x2>
     d28:	94 e7       	ldi	r25, 0x74	; 116
     d2a:	90 93 be 01 	sts	0x01BE, r25	; 0x8001be <display_data+0x3>
     d2e:	80 68       	ori	r24, 0x80	; 128
     d30:	80 93 bc 01 	sts	0x01BC, r24	; 0x8001bc <display_data+0x1>
     d34:	df 91       	pop	r29
     d36:	cf 91       	pop	r28
     d38:	ff 90       	pop	r15
     d3a:	ef 90       	pop	r14
     d3c:	df 90       	pop	r13
     d3e:	cf 90       	pop	r12
     d40:	08 95       	ret
     d42:	87 e7       	ldi	r24, 0x77	; 119
     d44:	e0 e0       	ldi	r30, 0x00	; 0
     d46:	20 e0       	ldi	r18, 0x00	; 0
     d48:	e2 cf       	rjmp	.-60     	; 0xd0e <seven_segment_show_humidity+0x74>
     d4a:	8f e3       	ldi	r24, 0x3F	; 63
     d4c:	e0 e0       	ldi	r30, 0x00	; 0
     d4e:	20 e0       	ldi	r18, 0x00	; 0
     d50:	de cf       	rjmp	.-68     	; 0xd0e <seven_segment_show_humidity+0x74>

00000d52 <main>:
// ************************************************************************************************

int main()
{
    // initialize timers
    millis_timer_init();
     d52:	0e 94 88 01 	call	0x310	; 0x310 <millis_timer_init>
    // timer2_init
    // initialize buttons
    minus_button.button_pin.ddr = &BTNS_DDR;
     d56:	47 e2       	ldi	r20, 0x27	; 39
     d58:	50 e0       	ldi	r21, 0x00	; 0
     d5a:	50 93 45 01 	sts	0x0145, r21	; 0x800145 <minus_button+0x1>
     d5e:	40 93 44 01 	sts	0x0144, r20	; 0x800144 <minus_button>
    minus_button.button_pin.port = &BTNS_PORT;
     d62:	28 e2       	ldi	r18, 0x28	; 40
     d64:	30 e0       	ldi	r19, 0x00	; 0
     d66:	30 93 47 01 	sts	0x0147, r19	; 0x800147 <minus_button+0x3>
     d6a:	20 93 46 01 	sts	0x0146, r18	; 0x800146 <minus_button+0x2>
    minus_button.button_pin.pin = &BTNS_PIN;
     d6e:	86 e2       	ldi	r24, 0x26	; 38
     d70:	90 e0       	ldi	r25, 0x00	; 0
     d72:	90 93 49 01 	sts	0x0149, r25	; 0x800149 <minus_button+0x5>
     d76:	80 93 48 01 	sts	0x0148, r24	; 0x800148 <minus_button+0x4>
    minus_button.button_pin.pin_num = BTN_1_PIN_NUM;
     d7a:	61 e0       	ldi	r22, 0x01	; 1
     d7c:	60 93 4a 01 	sts	0x014A, r22	; 0x80014a <minus_button+0x6>
    adjust_button.button_pin.ddr = &BTNS_DDR;
     d80:	50 93 6b 01 	sts	0x016B, r21	; 0x80016b <adjust_button+0x1>
     d84:	40 93 6a 01 	sts	0x016A, r20	; 0x80016a <adjust_button>
    adjust_button.button_pin.port = &BTNS_PORT;
     d88:	30 93 6d 01 	sts	0x016D, r19	; 0x80016d <adjust_button+0x3>
     d8c:	20 93 6c 01 	sts	0x016C, r18	; 0x80016c <adjust_button+0x2>
    adjust_button.button_pin.pin = &BTNS_PIN;
     d90:	90 93 6f 01 	sts	0x016F, r25	; 0x80016f <adjust_button+0x5>
     d94:	80 93 6e 01 	sts	0x016E, r24	; 0x80016e <adjust_button+0x4>
    adjust_button.button_pin.pin_num = BTN_2_PIN_NUM;
     d98:	62 e0       	ldi	r22, 0x02	; 2
     d9a:	60 93 70 01 	sts	0x0170, r22	; 0x800170 <adjust_button+0x6>
    plus_button.button_pin.ddr = &BTNS_DDR;
     d9e:	50 93 17 01 	sts	0x0117, r21	; 0x800117 <plus_button+0x1>
     da2:	40 93 16 01 	sts	0x0116, r20	; 0x800116 <plus_button>
    plus_button.button_pin.port = &BTNS_PORT;
     da6:	30 93 19 01 	sts	0x0119, r19	; 0x800119 <plus_button+0x3>
     daa:	20 93 18 01 	sts	0x0118, r18	; 0x800118 <plus_button+0x2>
    plus_button.button_pin.pin = &BTNS_PIN;
     dae:	90 93 1b 01 	sts	0x011B, r25	; 0x80011b <plus_button+0x5>
     db2:	80 93 1a 01 	sts	0x011A, r24	; 0x80011a <plus_button+0x4>
    plus_button.button_pin.pin_num = BTN_3_PIN_NUM;
     db6:	83 e0       	ldi	r24, 0x03	; 3
     db8:	80 93 1c 01 	sts	0x011C, r24	; 0x80011c <plus_button+0x6>
    button_setup(&minus_button);
     dbc:	84 e4       	ldi	r24, 0x44	; 68
     dbe:	91 e0       	ldi	r25, 0x01	; 1
     dc0:	0e 94 86 02 	call	0x50c	; 0x50c <button_setup>
    button_setup(&adjust_button);
     dc4:	8a e6       	ldi	r24, 0x6A	; 106
     dc6:	91 e0       	ldi	r25, 0x01	; 1
     dc8:	0e 94 86 02 	call	0x50c	; 0x50c <button_setup>
    button_setup(&plus_button);
     dcc:	86 e1       	ldi	r24, 0x16	; 22
     dce:	91 e0       	ldi	r25, 0x01	; 1
     dd0:	0e 94 86 02 	call	0x50c	; 0x50c <button_setup>
    short press plus button goes to next mode

    in time mode,

    */
    button_attach_single_click(&minus_button, decrement_alarm_clock_state);
     dd4:	60 e7       	ldi	r22, 0x70	; 112
     dd6:	70 e0       	ldi	r23, 0x00	; 0
     dd8:	84 e4       	ldi	r24, 0x44	; 68
     dda:	91 e0       	ldi	r25, 0x01	; 1
     ddc:	0e 94 ae 02 	call	0x55c	; 0x55c <button_attach_single_click>
    button_attach_single_click(&plus_button, increment_alarm_clock_state);
     de0:	63 e5       	ldi	r22, 0x53	; 83
     de2:	70 e0       	ldi	r23, 0x00	; 0
     de4:	86 e1       	ldi	r24, 0x16	; 22
     de6:	91 e0       	ldi	r25, 0x01	; 1
     de8:	0e 94 ae 02 	call	0x55c	; 0x55c <button_attach_single_click>

    // initialize seven segment
    seven_segment_init();
     dec:	0e 94 ce 03 	call	0x79c	; 0x79c <seven_segment_init>
    seven_segment_clear_all();
     df0:	0e 94 66 04 	call	0x8cc	; 0x8cc <seven_segment_clear_all>
            // 7 segment all off
            case TESTING_STATE_ALL_OFF:
                if (display_updated == false)
                {
                    seven_segment_clear_all();
                    display_updated = true;
     df4:	c1 e0       	ldi	r28, 0x01	; 1
            if (state_start == false)
            {
                state_start = true;
                // attach adjust button
                button_attach_single_click(&adjust_button, swap_testing_state);
                testing_state = TESTING_STATE_ALL_ON;
     df6:	01 e0       	ldi	r16, 0x01	; 1
     df8:	10 e0       	ldi	r17, 0x00	; 0
    // ************************************************************************************************

    while (1)
    {

        switch (main_state)
     dfa:	e0 91 40 01 	lds	r30, 0x0140	; 0x800140 <main_state>
     dfe:	f0 91 41 01 	lds	r31, 0x0141	; 0x800141 <main_state+0x1>
     e02:	e7 30       	cpi	r30, 0x07	; 7
     e04:	f1 05       	cpc	r31, r1
     e06:	78 f4       	brcc	.+30     	; 0xe26 <main+0xd4>
     e08:	e8 5f       	subi	r30, 0xF8	; 248
     e0a:	f8 4f       	sbci	r31, 0xF8	; 248
     e0c:	0c 94 7e 07 	jmp	0xefc	; 0xefc <__tablejump2__>
     e10:	49 07       	cpc	r20, r25
     e12:	2f 07       	cpc	r18, r31
     e14:	2a 07       	cpc	r18, r26
     e16:	25 07       	cpc	r18, r21
     e18:	20 07       	cpc	r18, r16
     e1a:	0f 07       	cpc	r16, r31
     e1c:	34 07       	cpc	r19, r20
            default:
                break;
            }
            break;
        case MAIN_STATE_HUMIDITY:
            switch (humidity_state)
     e1e:	80 91 42 01 	lds	r24, 0x0142	; 0x800142 <humidity_state>
     e22:	90 91 43 01 	lds	r25, 0x0143	; 0x800143 <humidity_state+0x1>
        default:
            break;
        }

        // button tick ISRs
        button_ISR_tick(&minus_button);
     e26:	84 e4       	ldi	r24, 0x44	; 68
     e28:	91 e0       	ldi	r25, 0x01	; 1
     e2a:	0e 94 c3 03 	call	0x786	; 0x786 <button_ISR_tick>
        button_ISR_tick(&adjust_button);
     e2e:	8a e6       	ldi	r24, 0x6A	; 106
     e30:	91 e0       	ldi	r25, 0x01	; 1
     e32:	0e 94 c3 03 	call	0x786	; 0x786 <button_ISR_tick>
        button_ISR_tick(&plus_button);
     e36:	86 e1       	ldi	r24, 0x16	; 22
     e38:	91 e0       	ldi	r25, 0x01	; 1
     e3a:	0e 94 c3 03 	call	0x786	; 0x786 <button_ISR_tick>
    // ************************************************************************************************

    while (1)
    {

        switch (main_state)
     e3e:	dd cf       	rjmp	.-70     	; 0xdfa <main+0xa8>
            default:
                break;
            }
            break;
        case MAIN_STATE_TEMPERATURE:
            switch (temperature_state)
     e40:	80 91 8e 01 	lds	r24, 0x018E	; 0x80018e <temperature_state>
     e44:	90 91 8f 01 	lds	r25, 0x018F	; 0x80018f <temperature_state+0x1>
     e48:	ee cf       	rjmp	.-36     	; 0xe26 <main+0xd4>
            default:
                break;
            }
            break;
        case MAIN_STATE_YEAR:
            switch (year_state)
     e4a:	80 91 12 01 	lds	r24, 0x0112	; 0x800112 <__data_end>
     e4e:	90 91 13 01 	lds	r25, 0x0113	; 0x800113 <__data_end+0x1>
     e52:	e9 cf       	rjmp	.-46     	; 0xe26 <main+0xd4>
            default:
                break;
            }
            break;
        case MAIN_STATE_MONTH_DAY:
            switch (month_day_state)
     e54:	80 91 14 01 	lds	r24, 0x0114	; 0x800114 <month_day_state>
     e58:	90 91 15 01 	lds	r25, 0x0115	; 0x800115 <month_day_state+0x1>
     e5c:	e4 cf       	rjmp	.-56     	; 0xe26 <main+0xd4>
            default:
                break;
            }
            break;
        case MAIN_STATE_ALARM:
            switch (alarm_state)
     e5e:	80 91 3e 01 	lds	r24, 0x013E	; 0x80013e <alarm_state>
     e62:	90 91 3f 01 	lds	r25, 0x013F	; 0x80013f <alarm_state+0x1>
     e66:	df cf       	rjmp	.-66     	; 0xe26 <main+0xd4>
                break;
            }
            break;
        // 7 segment test on and off
        case MAIN_STATE_TESTING:
            if (state_start == false)
     e68:	80 91 69 01 	lds	r24, 0x0169	; 0x800169 <state_start>
     e6c:	88 23       	and	r24, r24
     e6e:	29 f1       	breq	.+74     	; 0xeba <main+0x168>
                state_start = true;
                // attach adjust button
                button_attach_single_click(&adjust_button, swap_testing_state);
                testing_state = TESTING_STATE_ALL_ON;
            }
            switch (testing_state)
     e70:	80 91 3a 01 	lds	r24, 0x013A	; 0x80013a <testing_state>
     e74:	90 91 3b 01 	lds	r25, 0x013B	; 0x80013b <testing_state+0x1>
     e78:	00 97       	sbiw	r24, 0x00	; 0
     e7a:	b1 f0       	breq	.+44     	; 0xea8 <main+0x156>
     e7c:	01 97       	sbiw	r24, 0x01	; 1
     e7e:	99 f6       	brne	.-90     	; 0xe26 <main+0xd4>
                }
                break;
            // 7 segment all on
            case TESTING_STATE_ALL_ON:

                if (display_updated == false)
     e80:	80 91 68 01 	lds	r24, 0x0168	; 0x800168 <display_updated>
     e84:	81 11       	cpse	r24, r1
     e86:	cf cf       	rjmp	.-98     	; 0xe26 <main+0xd4>
                {
                    seven_segment_set_all();
     e88:	0e 94 6e 04 	call	0x8dc	; 0x8dc <seven_segment_set_all>
                    display_updated = true;
     e8c:	c0 93 68 01 	sts	0x0168, r28	; 0x800168 <display_updated>
     e90:	ca cf       	rjmp	.-108    	; 0xe26 <main+0xd4>
    {

        switch (main_state)
        {
        case MAIN_STATE_HOUR_MIN:
            if (state_start == false)
     e92:	80 91 69 01 	lds	r24, 0x0169	; 0x800169 <state_start>
     e96:	81 11       	cpse	r24, r1
     e98:	02 c0       	rjmp	.+4      	; 0xe9e <main+0x14c>
            {
                state_start = true;
     e9a:	c0 93 69 01 	sts	0x0169, r28	; 0x800169 <state_start>
            }
            switch (hour_min_state)
     e9e:	80 91 3c 01 	lds	r24, 0x013C	; 0x80013c <hour_min_state>
     ea2:	90 91 3d 01 	lds	r25, 0x013D	; 0x80013d <hour_min_state+0x1>
     ea6:	bf cf       	rjmp	.-130    	; 0xe26 <main+0xd4>
            }
            switch (testing_state)
            {
            // 7 segment all off
            case TESTING_STATE_ALL_OFF:
                if (display_updated == false)
     ea8:	80 91 68 01 	lds	r24, 0x0168	; 0x800168 <display_updated>
     eac:	81 11       	cpse	r24, r1
     eae:	bb cf       	rjmp	.-138    	; 0xe26 <main+0xd4>
                {
                    seven_segment_clear_all();
     eb0:	0e 94 66 04 	call	0x8cc	; 0x8cc <seven_segment_clear_all>
                    display_updated = true;
     eb4:	c0 93 68 01 	sts	0x0168, r28	; 0x800168 <display_updated>
     eb8:	b6 cf       	rjmp	.-148    	; 0xe26 <main+0xd4>
            break;
        // 7 segment test on and off
        case MAIN_STATE_TESTING:
            if (state_start == false)
            {
                state_start = true;
     eba:	c0 93 69 01 	sts	0x0169, r28	; 0x800169 <state_start>
                // attach adjust button
                button_attach_single_click(&adjust_button, swap_testing_state);
     ebe:	6f e8       	ldi	r22, 0x8F	; 143
     ec0:	70 e0       	ldi	r23, 0x00	; 0
     ec2:	8a e6       	ldi	r24, 0x6A	; 106
     ec4:	91 e0       	ldi	r25, 0x01	; 1
     ec6:	0e 94 ae 02 	call	0x55c	; 0x55c <button_attach_single_click>
                testing_state = TESTING_STATE_ALL_ON;
     eca:	10 93 3b 01 	sts	0x013B, r17	; 0x80013b <testing_state+0x1>
     ece:	00 93 3a 01 	sts	0x013A, r16	; 0x80013a <testing_state>
     ed2:	ce cf       	rjmp	.-100    	; 0xe70 <main+0x11e>

00000ed4 <__divmodhi4>:
     ed4:	97 fb       	bst	r25, 7
     ed6:	07 2e       	mov	r0, r23
     ed8:	16 f4       	brtc	.+4      	; 0xede <__divmodhi4+0xa>
     eda:	00 94       	com	r0
     edc:	07 d0       	rcall	.+14     	; 0xeec <__divmodhi4_neg1>
     ede:	77 fd       	sbrc	r23, 7
     ee0:	09 d0       	rcall	.+18     	; 0xef4 <__divmodhi4_neg2>
     ee2:	0e 94 8f 07 	call	0xf1e	; 0xf1e <__udivmodhi4>
     ee6:	07 fc       	sbrc	r0, 7
     ee8:	05 d0       	rcall	.+10     	; 0xef4 <__divmodhi4_neg2>
     eea:	3e f4       	brtc	.+14     	; 0xefa <__divmodhi4_exit>

00000eec <__divmodhi4_neg1>:
     eec:	90 95       	com	r25
     eee:	81 95       	neg	r24
     ef0:	9f 4f       	sbci	r25, 0xFF	; 255
     ef2:	08 95       	ret

00000ef4 <__divmodhi4_neg2>:
     ef4:	70 95       	com	r23
     ef6:	61 95       	neg	r22
     ef8:	7f 4f       	sbci	r23, 0xFF	; 255

00000efa <__divmodhi4_exit>:
     efa:	08 95       	ret

00000efc <__tablejump2__>:
     efc:	ee 0f       	add	r30, r30
     efe:	ff 1f       	adc	r31, r31
     f00:	05 90       	lpm	r0, Z+
     f02:	f4 91       	lpm	r31, Z
     f04:	e0 2d       	mov	r30, r0
     f06:	09 94       	ijmp

00000f08 <__muluhisi3>:
     f08:	0e 94 a3 07 	call	0xf46	; 0xf46 <__umulhisi3>
     f0c:	a5 9f       	mul	r26, r21
     f0e:	90 0d       	add	r25, r0
     f10:	b4 9f       	mul	r27, r20
     f12:	90 0d       	add	r25, r0
     f14:	a4 9f       	mul	r26, r20
     f16:	80 0d       	add	r24, r0
     f18:	91 1d       	adc	r25, r1
     f1a:	11 24       	eor	r1, r1
     f1c:	08 95       	ret

00000f1e <__udivmodhi4>:
     f1e:	aa 1b       	sub	r26, r26
     f20:	bb 1b       	sub	r27, r27
     f22:	51 e1       	ldi	r21, 0x11	; 17
     f24:	07 c0       	rjmp	.+14     	; 0xf34 <__udivmodhi4_ep>

00000f26 <__udivmodhi4_loop>:
     f26:	aa 1f       	adc	r26, r26
     f28:	bb 1f       	adc	r27, r27
     f2a:	a6 17       	cp	r26, r22
     f2c:	b7 07       	cpc	r27, r23
     f2e:	10 f0       	brcs	.+4      	; 0xf34 <__udivmodhi4_ep>
     f30:	a6 1b       	sub	r26, r22
     f32:	b7 0b       	sbc	r27, r23

00000f34 <__udivmodhi4_ep>:
     f34:	88 1f       	adc	r24, r24
     f36:	99 1f       	adc	r25, r25
     f38:	5a 95       	dec	r21
     f3a:	a9 f7       	brne	.-22     	; 0xf26 <__udivmodhi4_loop>
     f3c:	80 95       	com	r24
     f3e:	90 95       	com	r25
     f40:	bc 01       	movw	r22, r24
     f42:	cd 01       	movw	r24, r26
     f44:	08 95       	ret

00000f46 <__umulhisi3>:
     f46:	a2 9f       	mul	r26, r18
     f48:	b0 01       	movw	r22, r0
     f4a:	b3 9f       	mul	r27, r19
     f4c:	c0 01       	movw	r24, r0
     f4e:	a3 9f       	mul	r26, r19
     f50:	70 0d       	add	r23, r0
     f52:	81 1d       	adc	r24, r1
     f54:	11 24       	eor	r1, r1
     f56:	91 1d       	adc	r25, r1
     f58:	b2 9f       	mul	r27, r18
     f5a:	70 0d       	add	r23, r0
     f5c:	81 1d       	adc	r24, r1
     f5e:	11 24       	eor	r1, r1
     f60:	91 1d       	adc	r25, r1
     f62:	08 95       	ret

00000f64 <__cmpsf2>:
     f64:	0e 94 ed 07 	call	0xfda	; 0xfda <__fp_cmp>
     f68:	08 f4       	brcc	.+2      	; 0xf6c <__cmpsf2+0x8>
     f6a:	81 e0       	ldi	r24, 0x01	; 1
     f6c:	08 95       	ret

00000f6e <__fixsfsi>:
     f6e:	0e 94 be 07 	call	0xf7c	; 0xf7c <__fixunssfsi>
     f72:	68 94       	set
     f74:	b1 11       	cpse	r27, r1
     f76:	0c 94 34 08 	jmp	0x1068	; 0x1068 <__fp_szero>
     f7a:	08 95       	ret

00000f7c <__fixunssfsi>:
     f7c:	0e 94 19 08 	call	0x1032	; 0x1032 <__fp_splitA>
     f80:	88 f0       	brcs	.+34     	; 0xfa4 <__fixunssfsi+0x28>
     f82:	9f 57       	subi	r25, 0x7F	; 127
     f84:	98 f0       	brcs	.+38     	; 0xfac <__fixunssfsi+0x30>
     f86:	b9 2f       	mov	r27, r25
     f88:	99 27       	eor	r25, r25
     f8a:	b7 51       	subi	r27, 0x17	; 23
     f8c:	b0 f0       	brcs	.+44     	; 0xfba <__fixunssfsi+0x3e>
     f8e:	e1 f0       	breq	.+56     	; 0xfc8 <__fixunssfsi+0x4c>
     f90:	66 0f       	add	r22, r22
     f92:	77 1f       	adc	r23, r23
     f94:	88 1f       	adc	r24, r24
     f96:	99 1f       	adc	r25, r25
     f98:	1a f0       	brmi	.+6      	; 0xfa0 <__fixunssfsi+0x24>
     f9a:	ba 95       	dec	r27
     f9c:	c9 f7       	brne	.-14     	; 0xf90 <__fixunssfsi+0x14>
     f9e:	14 c0       	rjmp	.+40     	; 0xfc8 <__fixunssfsi+0x4c>
     fa0:	b1 30       	cpi	r27, 0x01	; 1
     fa2:	91 f0       	breq	.+36     	; 0xfc8 <__fixunssfsi+0x4c>
     fa4:	0e 94 33 08 	call	0x1066	; 0x1066 <__fp_zero>
     fa8:	b1 e0       	ldi	r27, 0x01	; 1
     faa:	08 95       	ret
     fac:	0c 94 33 08 	jmp	0x1066	; 0x1066 <__fp_zero>
     fb0:	67 2f       	mov	r22, r23
     fb2:	78 2f       	mov	r23, r24
     fb4:	88 27       	eor	r24, r24
     fb6:	b8 5f       	subi	r27, 0xF8	; 248
     fb8:	39 f0       	breq	.+14     	; 0xfc8 <__fixunssfsi+0x4c>
     fba:	b9 3f       	cpi	r27, 0xF9	; 249
     fbc:	cc f3       	brlt	.-14     	; 0xfb0 <__fixunssfsi+0x34>
     fbe:	86 95       	lsr	r24
     fc0:	77 95       	ror	r23
     fc2:	67 95       	ror	r22
     fc4:	b3 95       	inc	r27
     fc6:	d9 f7       	brne	.-10     	; 0xfbe <__fixunssfsi+0x42>
     fc8:	3e f4       	brtc	.+14     	; 0xfd8 <__fixunssfsi+0x5c>
     fca:	90 95       	com	r25
     fcc:	80 95       	com	r24
     fce:	70 95       	com	r23
     fd0:	61 95       	neg	r22
     fd2:	7f 4f       	sbci	r23, 0xFF	; 255
     fd4:	8f 4f       	sbci	r24, 0xFF	; 255
     fd6:	9f 4f       	sbci	r25, 0xFF	; 255
     fd8:	08 95       	ret

00000fda <__fp_cmp>:
     fda:	99 0f       	add	r25, r25
     fdc:	00 08       	sbc	r0, r0
     fde:	55 0f       	add	r21, r21
     fe0:	aa 0b       	sbc	r26, r26
     fe2:	e0 e8       	ldi	r30, 0x80	; 128
     fe4:	fe ef       	ldi	r31, 0xFE	; 254
     fe6:	16 16       	cp	r1, r22
     fe8:	17 06       	cpc	r1, r23
     fea:	e8 07       	cpc	r30, r24
     fec:	f9 07       	cpc	r31, r25
     fee:	c0 f0       	brcs	.+48     	; 0x1020 <__fp_cmp+0x46>
     ff0:	12 16       	cp	r1, r18
     ff2:	13 06       	cpc	r1, r19
     ff4:	e4 07       	cpc	r30, r20
     ff6:	f5 07       	cpc	r31, r21
     ff8:	98 f0       	brcs	.+38     	; 0x1020 <__fp_cmp+0x46>
     ffa:	62 1b       	sub	r22, r18
     ffc:	73 0b       	sbc	r23, r19
     ffe:	84 0b       	sbc	r24, r20
    1000:	95 0b       	sbc	r25, r21
    1002:	39 f4       	brne	.+14     	; 0x1012 <__fp_cmp+0x38>
    1004:	0a 26       	eor	r0, r26
    1006:	61 f0       	breq	.+24     	; 0x1020 <__fp_cmp+0x46>
    1008:	23 2b       	or	r18, r19
    100a:	24 2b       	or	r18, r20
    100c:	25 2b       	or	r18, r21
    100e:	21 f4       	brne	.+8      	; 0x1018 <__fp_cmp+0x3e>
    1010:	08 95       	ret
    1012:	0a 26       	eor	r0, r26
    1014:	09 f4       	brne	.+2      	; 0x1018 <__fp_cmp+0x3e>
    1016:	a1 40       	sbci	r26, 0x01	; 1
    1018:	a6 95       	lsr	r26
    101a:	8f ef       	ldi	r24, 0xFF	; 255
    101c:	81 1d       	adc	r24, r1
    101e:	81 1d       	adc	r24, r1
    1020:	08 95       	ret

00001022 <__fp_split3>:
    1022:	57 fd       	sbrc	r21, 7
    1024:	90 58       	subi	r25, 0x80	; 128
    1026:	44 0f       	add	r20, r20
    1028:	55 1f       	adc	r21, r21
    102a:	59 f0       	breq	.+22     	; 0x1042 <__fp_splitA+0x10>
    102c:	5f 3f       	cpi	r21, 0xFF	; 255
    102e:	71 f0       	breq	.+28     	; 0x104c <__fp_splitA+0x1a>
    1030:	47 95       	ror	r20

00001032 <__fp_splitA>:
    1032:	88 0f       	add	r24, r24
    1034:	97 fb       	bst	r25, 7
    1036:	99 1f       	adc	r25, r25
    1038:	61 f0       	breq	.+24     	; 0x1052 <__fp_splitA+0x20>
    103a:	9f 3f       	cpi	r25, 0xFF	; 255
    103c:	79 f0       	breq	.+30     	; 0x105c <__fp_splitA+0x2a>
    103e:	87 95       	ror	r24
    1040:	08 95       	ret
    1042:	12 16       	cp	r1, r18
    1044:	13 06       	cpc	r1, r19
    1046:	14 06       	cpc	r1, r20
    1048:	55 1f       	adc	r21, r21
    104a:	f2 cf       	rjmp	.-28     	; 0x1030 <__fp_split3+0xe>
    104c:	46 95       	lsr	r20
    104e:	f1 df       	rcall	.-30     	; 0x1032 <__fp_splitA>
    1050:	08 c0       	rjmp	.+16     	; 0x1062 <__fp_splitA+0x30>
    1052:	16 16       	cp	r1, r22
    1054:	17 06       	cpc	r1, r23
    1056:	18 06       	cpc	r1, r24
    1058:	99 1f       	adc	r25, r25
    105a:	f1 cf       	rjmp	.-30     	; 0x103e <__fp_splitA+0xc>
    105c:	86 95       	lsr	r24
    105e:	71 05       	cpc	r23, r1
    1060:	61 05       	cpc	r22, r1
    1062:	08 94       	sec
    1064:	08 95       	ret

00001066 <__fp_zero>:
    1066:	e8 94       	clt

00001068 <__fp_szero>:
    1068:	bb 27       	eor	r27, r27
    106a:	66 27       	eor	r22, r22
    106c:	77 27       	eor	r23, r23
    106e:	cb 01       	movw	r24, r22
    1070:	97 f9       	bld	r25, 7
    1072:	08 95       	ret

00001074 <__gesf2>:
    1074:	0e 94 ed 07 	call	0xfda	; 0xfda <__fp_cmp>
    1078:	08 f4       	brcc	.+2      	; 0x107c <__gesf2+0x8>
    107a:	8f ef       	ldi	r24, 0xFF	; 255
    107c:	08 95       	ret

0000107e <__mulsf3>:
    107e:	0e 94 52 08 	call	0x10a4	; 0x10a4 <__mulsf3x>
    1082:	0c 94 c3 08 	jmp	0x1186	; 0x1186 <__fp_round>
    1086:	0e 94 b5 08 	call	0x116a	; 0x116a <__fp_pscA>
    108a:	38 f0       	brcs	.+14     	; 0x109a <__mulsf3+0x1c>
    108c:	0e 94 bc 08 	call	0x1178	; 0x1178 <__fp_pscB>
    1090:	20 f0       	brcs	.+8      	; 0x109a <__mulsf3+0x1c>
    1092:	95 23       	and	r25, r21
    1094:	11 f0       	breq	.+4      	; 0x109a <__mulsf3+0x1c>
    1096:	0c 94 ac 08 	jmp	0x1158	; 0x1158 <__fp_inf>
    109a:	0c 94 b2 08 	jmp	0x1164	; 0x1164 <__fp_nan>
    109e:	11 24       	eor	r1, r1
    10a0:	0c 94 34 08 	jmp	0x1068	; 0x1068 <__fp_szero>

000010a4 <__mulsf3x>:
    10a4:	0e 94 11 08 	call	0x1022	; 0x1022 <__fp_split3>
    10a8:	70 f3       	brcs	.-36     	; 0x1086 <__mulsf3+0x8>

000010aa <__mulsf3_pse>:
    10aa:	95 9f       	mul	r25, r21
    10ac:	c1 f3       	breq	.-16     	; 0x109e <__mulsf3+0x20>
    10ae:	95 0f       	add	r25, r21
    10b0:	50 e0       	ldi	r21, 0x00	; 0
    10b2:	55 1f       	adc	r21, r21
    10b4:	62 9f       	mul	r22, r18
    10b6:	f0 01       	movw	r30, r0
    10b8:	72 9f       	mul	r23, r18
    10ba:	bb 27       	eor	r27, r27
    10bc:	f0 0d       	add	r31, r0
    10be:	b1 1d       	adc	r27, r1
    10c0:	63 9f       	mul	r22, r19
    10c2:	aa 27       	eor	r26, r26
    10c4:	f0 0d       	add	r31, r0
    10c6:	b1 1d       	adc	r27, r1
    10c8:	aa 1f       	adc	r26, r26
    10ca:	64 9f       	mul	r22, r20
    10cc:	66 27       	eor	r22, r22
    10ce:	b0 0d       	add	r27, r0
    10d0:	a1 1d       	adc	r26, r1
    10d2:	66 1f       	adc	r22, r22
    10d4:	82 9f       	mul	r24, r18
    10d6:	22 27       	eor	r18, r18
    10d8:	b0 0d       	add	r27, r0
    10da:	a1 1d       	adc	r26, r1
    10dc:	62 1f       	adc	r22, r18
    10de:	73 9f       	mul	r23, r19
    10e0:	b0 0d       	add	r27, r0
    10e2:	a1 1d       	adc	r26, r1
    10e4:	62 1f       	adc	r22, r18
    10e6:	83 9f       	mul	r24, r19
    10e8:	a0 0d       	add	r26, r0
    10ea:	61 1d       	adc	r22, r1
    10ec:	22 1f       	adc	r18, r18
    10ee:	74 9f       	mul	r23, r20
    10f0:	33 27       	eor	r19, r19
    10f2:	a0 0d       	add	r26, r0
    10f4:	61 1d       	adc	r22, r1
    10f6:	23 1f       	adc	r18, r19
    10f8:	84 9f       	mul	r24, r20
    10fa:	60 0d       	add	r22, r0
    10fc:	21 1d       	adc	r18, r1
    10fe:	82 2f       	mov	r24, r18
    1100:	76 2f       	mov	r23, r22
    1102:	6a 2f       	mov	r22, r26
    1104:	11 24       	eor	r1, r1
    1106:	9f 57       	subi	r25, 0x7F	; 127
    1108:	50 40       	sbci	r21, 0x00	; 0
    110a:	9a f0       	brmi	.+38     	; 0x1132 <__mulsf3_pse+0x88>
    110c:	f1 f0       	breq	.+60     	; 0x114a <__mulsf3_pse+0xa0>
    110e:	88 23       	and	r24, r24
    1110:	4a f0       	brmi	.+18     	; 0x1124 <__mulsf3_pse+0x7a>
    1112:	ee 0f       	add	r30, r30
    1114:	ff 1f       	adc	r31, r31
    1116:	bb 1f       	adc	r27, r27
    1118:	66 1f       	adc	r22, r22
    111a:	77 1f       	adc	r23, r23
    111c:	88 1f       	adc	r24, r24
    111e:	91 50       	subi	r25, 0x01	; 1
    1120:	50 40       	sbci	r21, 0x00	; 0
    1122:	a9 f7       	brne	.-22     	; 0x110e <__mulsf3_pse+0x64>
    1124:	9e 3f       	cpi	r25, 0xFE	; 254
    1126:	51 05       	cpc	r21, r1
    1128:	80 f0       	brcs	.+32     	; 0x114a <__mulsf3_pse+0xa0>
    112a:	0c 94 ac 08 	jmp	0x1158	; 0x1158 <__fp_inf>
    112e:	0c 94 34 08 	jmp	0x1068	; 0x1068 <__fp_szero>
    1132:	5f 3f       	cpi	r21, 0xFF	; 255
    1134:	e4 f3       	brlt	.-8      	; 0x112e <__mulsf3_pse+0x84>
    1136:	98 3e       	cpi	r25, 0xE8	; 232
    1138:	d4 f3       	brlt	.-12     	; 0x112e <__mulsf3_pse+0x84>
    113a:	86 95       	lsr	r24
    113c:	77 95       	ror	r23
    113e:	67 95       	ror	r22
    1140:	b7 95       	ror	r27
    1142:	f7 95       	ror	r31
    1144:	e7 95       	ror	r30
    1146:	9f 5f       	subi	r25, 0xFF	; 255
    1148:	c1 f7       	brne	.-16     	; 0x113a <__mulsf3_pse+0x90>
    114a:	fe 2b       	or	r31, r30
    114c:	88 0f       	add	r24, r24
    114e:	91 1d       	adc	r25, r1
    1150:	96 95       	lsr	r25
    1152:	87 95       	ror	r24
    1154:	97 f9       	bld	r25, 7
    1156:	08 95       	ret

00001158 <__fp_inf>:
    1158:	97 f9       	bld	r25, 7
    115a:	9f 67       	ori	r25, 0x7F	; 127
    115c:	80 e8       	ldi	r24, 0x80	; 128
    115e:	70 e0       	ldi	r23, 0x00	; 0
    1160:	60 e0       	ldi	r22, 0x00	; 0
    1162:	08 95       	ret

00001164 <__fp_nan>:
    1164:	9f ef       	ldi	r25, 0xFF	; 255
    1166:	80 ec       	ldi	r24, 0xC0	; 192
    1168:	08 95       	ret

0000116a <__fp_pscA>:
    116a:	00 24       	eor	r0, r0
    116c:	0a 94       	dec	r0
    116e:	16 16       	cp	r1, r22
    1170:	17 06       	cpc	r1, r23
    1172:	18 06       	cpc	r1, r24
    1174:	09 06       	cpc	r0, r25
    1176:	08 95       	ret

00001178 <__fp_pscB>:
    1178:	00 24       	eor	r0, r0
    117a:	0a 94       	dec	r0
    117c:	12 16       	cp	r1, r18
    117e:	13 06       	cpc	r1, r19
    1180:	14 06       	cpc	r1, r20
    1182:	05 06       	cpc	r0, r21
    1184:	08 95       	ret

00001186 <__fp_round>:
    1186:	09 2e       	mov	r0, r25
    1188:	03 94       	inc	r0
    118a:	00 0c       	add	r0, r0
    118c:	11 f4       	brne	.+4      	; 0x1192 <__fp_round+0xc>
    118e:	88 23       	and	r24, r24
    1190:	52 f0       	brmi	.+20     	; 0x11a6 <__fp_round+0x20>
    1192:	bb 0f       	add	r27, r27
    1194:	40 f4       	brcc	.+16     	; 0x11a6 <__fp_round+0x20>
    1196:	bf 2b       	or	r27, r31
    1198:	11 f4       	brne	.+4      	; 0x119e <__fp_round+0x18>
    119a:	60 ff       	sbrs	r22, 0
    119c:	04 c0       	rjmp	.+8      	; 0x11a6 <__fp_round+0x20>
    119e:	6f 5f       	subi	r22, 0xFF	; 255
    11a0:	7f 4f       	sbci	r23, 0xFF	; 255
    11a2:	8f 4f       	sbci	r24, 0xFF	; 255
    11a4:	9f 4f       	sbci	r25, 0xFF	; 255
    11a6:	08 95       	ret

000011a8 <_exit>:
    11a8:	f8 94       	cli

000011aa <__stop_program>:
    11aa:	ff cf       	rjmp	.-2      	; 0x11aa <__stop_program>
