
demo.elf:     file format elf32-avr

Sections:
Idx Name          Size      VMA       LMA       File off  Algn
  0 .data         00000012  00800100  000016f0  00001784  2**0
                  CONTENTS, ALLOC, LOAD, DATA
  1 .text         000016f0  00000000  00000000  00000094  2**1
                  CONTENTS, ALLOC, LOAD, READONLY, CODE
  2 .bss          00000074  00800112  00800112  00001796  2**0
                  ALLOC
  3 .stab         00002c7c  00000000  00000000  00001798  2**2
                  CONTENTS, READONLY, DEBUGGING
  4 .stabstr      00001730  00000000  00000000  00004414  2**0
                  CONTENTS, READONLY, DEBUGGING
  5 .comment      00000011  00000000  00000000  00005b44  2**0
                  CONTENTS, READONLY
  6 .note.gnu.avr.deviceinfo 00000040  00000000  00000000  00005b58  2**2
                  CONTENTS, READONLY
  7 .debug_info   000005f4  00000000  00000000  00005b98  2**0
                  CONTENTS, READONLY, DEBUGGING
  8 .debug_abbrev 000005a2  00000000  00000000  0000618c  2**0
                  CONTENTS, READONLY, DEBUGGING
  9 .debug_line   0000001a  00000000  00000000  0000672e  2**0
                  CONTENTS, READONLY, DEBUGGING
 10 .debug_str    00000208  00000000  00000000  00006748  2**0
                  CONTENTS, READONLY, DEBUGGING

Disassembly of section .text:

00000000 <__vectors>:
       0:	0c 94 34 00 	jmp	0x68	; 0x68 <__ctors_end>
       4:	0c 94 51 00 	jmp	0xa2	; 0xa2 <__bad_interrupt>
       8:	0c 94 51 00 	jmp	0xa2	; 0xa2 <__bad_interrupt>
       c:	0c 94 51 00 	jmp	0xa2	; 0xa2 <__bad_interrupt>
      10:	0c 94 51 00 	jmp	0xa2	; 0xa2 <__bad_interrupt>
      14:	0c 94 51 00 	jmp	0xa2	; 0xa2 <__bad_interrupt>
      18:	0c 94 51 00 	jmp	0xa2	; 0xa2 <__bad_interrupt>
      1c:	0c 94 79 00 	jmp	0xf2	; 0xf2 <__vector_7>
      20:	0c 94 51 00 	jmp	0xa2	; 0xa2 <__bad_interrupt>
      24:	0c 94 51 00 	jmp	0xa2	; 0xa2 <__bad_interrupt>
      28:	0c 94 51 00 	jmp	0xa2	; 0xa2 <__bad_interrupt>
      2c:	0c 94 51 00 	jmp	0xa2	; 0xa2 <__bad_interrupt>
      30:	0c 94 51 00 	jmp	0xa2	; 0xa2 <__bad_interrupt>
      34:	0c 94 51 00 	jmp	0xa2	; 0xa2 <__bad_interrupt>
      38:	0c 94 53 00 	jmp	0xa6	; 0xa6 <__vector_14>
      3c:	0c 94 51 00 	jmp	0xa2	; 0xa2 <__bad_interrupt>
      40:	0c 94 51 00 	jmp	0xa2	; 0xa2 <__bad_interrupt>
      44:	0c 94 51 00 	jmp	0xa2	; 0xa2 <__bad_interrupt>
      48:	0c 94 51 00 	jmp	0xa2	; 0xa2 <__bad_interrupt>
      4c:	0c 94 51 00 	jmp	0xa2	; 0xa2 <__bad_interrupt>
      50:	0c 94 51 00 	jmp	0xa2	; 0xa2 <__bad_interrupt>
      54:	0c 94 51 00 	jmp	0xa2	; 0xa2 <__bad_interrupt>
      58:	0c 94 51 00 	jmp	0xa2	; 0xa2 <__bad_interrupt>
      5c:	0c 94 51 00 	jmp	0xa2	; 0xa2 <__bad_interrupt>
      60:	0c 94 51 00 	jmp	0xa2	; 0xa2 <__bad_interrupt>
      64:	0c 94 51 00 	jmp	0xa2	; 0xa2 <__bad_interrupt>

00000068 <__ctors_end>:
      68:	11 24       	eor	r1, r1
      6a:	1f be       	out	0x3f, r1	; 63
      6c:	cf ef       	ldi	r28, 0xFF	; 255
      6e:	d8 e0       	ldi	r29, 0x08	; 8
      70:	de bf       	out	0x3e, r29	; 62
      72:	cd bf       	out	0x3d, r28	; 61

00000074 <__do_copy_data>:
      74:	11 e0       	ldi	r17, 0x01	; 1
      76:	a0 e0       	ldi	r26, 0x00	; 0
      78:	b1 e0       	ldi	r27, 0x01	; 1
      7a:	e0 ef       	ldi	r30, 0xF0	; 240
      7c:	f6 e1       	ldi	r31, 0x16	; 22
      7e:	02 c0       	rjmp	.+4      	; 0x84 <__do_copy_data+0x10>
      80:	05 90       	lpm	r0, Z+
      82:	0d 92       	st	X+, r0
      84:	a2 31       	cpi	r26, 0x12	; 18
      86:	b1 07       	cpc	r27, r17
      88:	d9 f7       	brne	.-10     	; 0x80 <__do_copy_data+0xc>

0000008a <__do_clear_bss>:
      8a:	21 e0       	ldi	r18, 0x01	; 1
      8c:	a2 e1       	ldi	r26, 0x12	; 18
      8e:	b1 e0       	ldi	r27, 0x01	; 1
      90:	01 c0       	rjmp	.+2      	; 0x94 <.do_clear_bss_start>

00000092 <.do_clear_bss_loop>:
      92:	1d 92       	st	X+, r1

00000094 <.do_clear_bss_start>:
      94:	a6 38       	cpi	r26, 0x86	; 134
      96:	b2 07       	cpc	r27, r18
      98:	e1 f7       	brne	.-8      	; 0x92 <.do_clear_bss_loop>
      9a:	0e 94 f9 05 	call	0xbf2	; 0xbf2 <main>
      9e:	0c 94 76 0b 	jmp	0x16ec	; 0x16ec <_exit>

000000a2 <__bad_interrupt>:
      a2:	0c 94 00 00 	jmp	0	; 0x0 <__vectors>

000000a6 <__vector_14>:
int month, day;
int year;
float temperature_celsius, humidity;

ISR(TIMER0_COMPA_vect)
{
      a6:	1f 92       	push	r1
      a8:	0f 92       	push	r0
      aa:	0f b6       	in	r0, 0x3f	; 63
      ac:	0f 92       	push	r0
      ae:	11 24       	eor	r1, r1
      b0:	2f 93       	push	r18
      b2:	3f 93       	push	r19
      b4:	4f 93       	push	r20
      b6:	5f 93       	push	r21
      b8:	6f 93       	push	r22
      ba:	7f 93       	push	r23
      bc:	8f 93       	push	r24
      be:	9f 93       	push	r25
      c0:	af 93       	push	r26
      c2:	bf 93       	push	r27
      c4:	ef 93       	push	r30
      c6:	ff 93       	push	r31
    millis_timer_ISR_loop();
      c8:	0e 94 5c 01 	call	0x2b8	; 0x2b8 <millis_timer_ISR_loop>
    seven_segment_loop_isr();
      cc:	0e 94 40 02 	call	0x480	; 0x480 <seven_segment_loop_isr>
}
      d0:	ff 91       	pop	r31
      d2:	ef 91       	pop	r30
      d4:	bf 91       	pop	r27
      d6:	af 91       	pop	r26
      d8:	9f 91       	pop	r25
      da:	8f 91       	pop	r24
      dc:	7f 91       	pop	r23
      de:	6f 91       	pop	r22
      e0:	5f 91       	pop	r21
      e2:	4f 91       	pop	r20
      e4:	3f 91       	pop	r19
      e6:	2f 91       	pop	r18
      e8:	0f 90       	pop	r0
      ea:	0f be       	out	0x3f, r0	; 63
      ec:	0f 90       	pop	r0
      ee:	1f 90       	pop	r1
      f0:	18 95       	reti

000000f2 <__vector_7>:
// {
//     seven_segment_loop_isr();
// }

ISR(TIMER2_COMPA_vect)
{
      f2:	1f 92       	push	r1
      f4:	0f 92       	push	r0
      f6:	0f b6       	in	r0, 0x3f	; 63
      f8:	0f 92       	push	r0
      fa:	11 24       	eor	r1, r1
      fc:	2f 93       	push	r18
      fe:	3f 93       	push	r19
     100:	4f 93       	push	r20
     102:	5f 93       	push	r21
     104:	6f 93       	push	r22
     106:	7f 93       	push	r23
     108:	8f 93       	push	r24
     10a:	9f 93       	push	r25
     10c:	af 93       	push	r26
     10e:	bf 93       	push	r27
     110:	ef 93       	push	r30
     112:	ff 93       	push	r31
    seven_segment_loop_isr();
     114:	0e 94 40 02 	call	0x480	; 0x480 <seven_segment_loop_isr>
}
     118:	ff 91       	pop	r31
     11a:	ef 91       	pop	r30
     11c:	bf 91       	pop	r27
     11e:	af 91       	pop	r26
     120:	9f 91       	pop	r25
     122:	8f 91       	pop	r24
     124:	7f 91       	pop	r23
     126:	6f 91       	pop	r22
     128:	5f 91       	pop	r21
     12a:	4f 91       	pop	r20
     12c:	3f 91       	pop	r19
     12e:	2f 91       	pop	r18
     130:	0f 90       	pop	r0
     132:	0f be       	out	0x3f, r0	; 63
     134:	0f 90       	pop	r0
     136:	1f 90       	pop	r1
     138:	18 95       	reti

0000013a <timer2_init>:
    // WGM = 010, CTC mode
    // COM2A = 00, OC2A disconnected
    // CS2 = 100, prescaler 1/64, 4us per increment
    // OCR2A = 250 - 1 = 249, 250 * 4us = 1ms
    // enable OCIE2A, output compare match A interrupt handle
    TCCR2A |= _BV(WGM21);
     13a:	e0 eb       	ldi	r30, 0xB0	; 176
     13c:	f0 e0       	ldi	r31, 0x00	; 0
     13e:	80 81       	ld	r24, Z
     140:	82 60       	ori	r24, 0x02	; 2
     142:	80 83       	st	Z, r24
    TCCR2B |= _BV(CS22);
     144:	e1 eb       	ldi	r30, 0xB1	; 177
     146:	f0 e0       	ldi	r31, 0x00	; 0
     148:	80 81       	ld	r24, Z
     14a:	84 60       	ori	r24, 0x04	; 4
     14c:	80 83       	st	Z, r24
    // TCCR2B |= 0b011 << 0;
    TIMSK2 |= _BV(OCIE2A);
     14e:	e0 e7       	ldi	r30, 0x70	; 112
     150:	f0 e0       	ldi	r31, 0x00	; 0
     152:	80 81       	ld	r24, Z
     154:	82 60       	ori	r24, 0x02	; 2
     156:	80 83       	st	Z, r24
    OCR2A = 249;
     158:	89 ef       	ldi	r24, 0xF9	; 249
     15a:	80 93 b3 00 	sts	0x00B3, r24	; 0x8000b3 <__TEXT_REGION_LENGTH__+0x7f80b3>
}
     15e:	08 95       	ret

00000160 <gpio_set_pin_output>:
#include "gpio.h"

void gpio_set_pin_output(Pin *pin)
{
     160:	dc 01       	movw	r26, r24
    *pin->ddr |= _BV(pin->pin_num);
     162:	ed 91       	ld	r30, X+
     164:	fc 91       	ld	r31, X
     166:	11 97       	sbiw	r26, 0x01	; 1
     168:	90 81       	ld	r25, Z
     16a:	16 96       	adiw	r26, 0x06	; 6
     16c:	8c 91       	ld	r24, X
     16e:	21 e0       	ldi	r18, 0x01	; 1
     170:	30 e0       	ldi	r19, 0x00	; 0
     172:	01 c0       	rjmp	.+2      	; 0x176 <gpio_set_pin_output+0x16>
     174:	22 0f       	add	r18, r18
     176:	8a 95       	dec	r24
     178:	ea f7       	brpl	.-6      	; 0x174 <gpio_set_pin_output+0x14>
     17a:	89 2f       	mov	r24, r25
     17c:	82 2b       	or	r24, r18
     17e:	80 83       	st	Z, r24
}
     180:	08 95       	ret

00000182 <gpio_set_pin_input>:

void gpio_set_pin_input(Pin *pin)
{
     182:	dc 01       	movw	r26, r24
    *pin->ddr &= ~_BV(pin->pin_num);
     184:	ed 91       	ld	r30, X+
     186:	fc 91       	ld	r31, X
     188:	11 97       	sbiw	r26, 0x01	; 1
     18a:	20 81       	ld	r18, Z
     18c:	16 96       	adiw	r26, 0x06	; 6
     18e:	3c 91       	ld	r19, X
     190:	81 e0       	ldi	r24, 0x01	; 1
     192:	90 e0       	ldi	r25, 0x00	; 0
     194:	01 c0       	rjmp	.+2      	; 0x198 <gpio_set_pin_input+0x16>
     196:	88 0f       	add	r24, r24
     198:	3a 95       	dec	r19
     19a:	ea f7       	brpl	.-6      	; 0x196 <gpio_set_pin_input+0x14>
     19c:	80 95       	com	r24
     19e:	82 23       	and	r24, r18
     1a0:	80 83       	st	Z, r24
}
     1a2:	08 95       	ret

000001a4 <gpio_set_pin_input_pullup>:

void gpio_set_pin_input_pullup(Pin *pin)
{
     1a4:	fc 01       	movw	r30, r24
    *pin->ddr |= _BV(pin->pin_num);
}

void gpio_set_pin_input(Pin *pin)
{
    *pin->ddr &= ~_BV(pin->pin_num);
     1a6:	a0 81       	ld	r26, Z
     1a8:	b1 81       	ldd	r27, Z+1	; 0x01
     1aa:	8c 91       	ld	r24, X
     1ac:	96 81       	ldd	r25, Z+6	; 0x06
     1ae:	41 e0       	ldi	r20, 0x01	; 1
     1b0:	50 e0       	ldi	r21, 0x00	; 0
     1b2:	9a 01       	movw	r18, r20
     1b4:	01 c0       	rjmp	.+2      	; 0x1b8 <gpio_set_pin_input_pullup+0x14>
     1b6:	22 0f       	add	r18, r18
     1b8:	9a 95       	dec	r25
     1ba:	ea f7       	brpl	.-6      	; 0x1b6 <gpio_set_pin_input_pullup+0x12>
     1bc:	20 95       	com	r18
     1be:	28 23       	and	r18, r24
     1c0:	2c 93       	st	X, r18
    }
}

void gpio_set_pin_high(Pin *pin)
{
    *pin->port |= _BV(pin->pin_num);
     1c2:	a2 81       	ldd	r26, Z+2	; 0x02
     1c4:	b3 81       	ldd	r27, Z+3	; 0x03
     1c6:	8c 91       	ld	r24, X
     1c8:	96 81       	ldd	r25, Z+6	; 0x06
     1ca:	01 c0       	rjmp	.+2      	; 0x1ce <gpio_set_pin_input_pullup+0x2a>
     1cc:	44 0f       	add	r20, r20
     1ce:	9a 95       	dec	r25
     1d0:	ea f7       	brpl	.-6      	; 0x1cc <gpio_set_pin_input_pullup+0x28>
     1d2:	48 2b       	or	r20, r24
     1d4:	4c 93       	st	X, r20

void gpio_set_pin_input_pullup(Pin *pin)
{
    gpio_set_pin_input(pin);
    gpio_set_pin_high(pin);
}
     1d6:	08 95       	ret

000001d8 <gpio_toggle_pin_mode>:

void gpio_toggle_pin_mode(Pin *pin)
{
     1d8:	dc 01       	movw	r26, r24
    *pin->ddr ^= _BV(pin->pin_num);
     1da:	ed 91       	ld	r30, X+
     1dc:	fc 91       	ld	r31, X
     1de:	11 97       	sbiw	r26, 0x01	; 1
     1e0:	90 81       	ld	r25, Z
     1e2:	16 96       	adiw	r26, 0x06	; 6
     1e4:	8c 91       	ld	r24, X
     1e6:	21 e0       	ldi	r18, 0x01	; 1
     1e8:	30 e0       	ldi	r19, 0x00	; 0
     1ea:	01 c0       	rjmp	.+2      	; 0x1ee <gpio_toggle_pin_mode+0x16>
     1ec:	22 0f       	add	r18, r18
     1ee:	8a 95       	dec	r24
     1f0:	ea f7       	brpl	.-6      	; 0x1ec <gpio_toggle_pin_mode+0x14>
     1f2:	89 2f       	mov	r24, r25
     1f4:	82 27       	eor	r24, r18
     1f6:	80 83       	st	Z, r24
}
     1f8:	08 95       	ret

000001fa <gpio_read_pin>:

uint8_t gpio_read_pin(Pin *pin)
{
    if (*pin->pin & _BV(pin->pin_num))
     1fa:	dc 01       	movw	r26, r24
     1fc:	14 96       	adiw	r26, 0x04	; 4
     1fe:	ed 91       	ld	r30, X+
     200:	fc 91       	ld	r31, X
     202:	15 97       	sbiw	r26, 0x05	; 5
     204:	20 81       	ld	r18, Z
     206:	30 e0       	ldi	r19, 0x00	; 0
     208:	16 96       	adiw	r26, 0x06	; 6
     20a:	8c 91       	ld	r24, X
     20c:	f9 01       	movw	r30, r18
     20e:	02 c0       	rjmp	.+4      	; 0x214 <gpio_read_pin+0x1a>
     210:	f5 95       	asr	r31
     212:	e7 95       	ror	r30
     214:	8a 95       	dec	r24
     216:	e2 f7       	brpl	.-8      	; 0x210 <gpio_read_pin+0x16>
     218:	cf 01       	movw	r24, r30
    }
    else
    {
        return 0;
    }
}
     21a:	81 70       	andi	r24, 0x01	; 1
     21c:	08 95       	ret

0000021e <gpio_set_pin_val>:
void gpio_set_pin_val(Pin *pin, uint8_t value)
{
     21e:	dc 01       	movw	r26, r24
     220:	12 96       	adiw	r26, 0x02	; 2
     222:	ed 91       	ld	r30, X+
     224:	fc 91       	ld	r31, X
     226:	13 97       	sbiw	r26, 0x03	; 3
     228:	16 96       	adiw	r26, 0x06	; 6
     22a:	2c 91       	ld	r18, X
     22c:	81 e0       	ldi	r24, 0x01	; 1
     22e:	90 e0       	ldi	r25, 0x00	; 0
     230:	01 c0       	rjmp	.+2      	; 0x234 <gpio_set_pin_val+0x16>
     232:	88 0f       	add	r24, r24
     234:	2a 95       	dec	r18
     236:	ea f7       	brpl	.-6      	; 0x232 <gpio_set_pin_val+0x14>
    }
}

void gpio_set_pin_high(Pin *pin)
{
    *pin->port |= _BV(pin->pin_num);
     238:	90 81       	ld	r25, Z
        return 0;
    }
}
void gpio_set_pin_val(Pin *pin, uint8_t value)
{
    if (value)
     23a:	61 11       	cpse	r22, r1
     23c:	04 c0       	rjmp	.+8      	; 0x246 <gpio_set_pin_val+0x28>
    *pin->port |= _BV(pin->pin_num);
}

void gpio_set_pin_low(Pin *pin)
{
    *pin->port &= ~_BV(pin->pin_num);
     23e:	80 95       	com	r24
     240:	89 23       	and	r24, r25
     242:	80 83       	st	Z, r24
    }
    else
    {
        gpio_set_pin_low(pin);
    }
}
     244:	08 95       	ret

void gpio_set_pin_high(Pin *pin)
{
    *pin->port |= _BV(pin->pin_num);
     246:	89 2b       	or	r24, r25
     248:	80 83       	st	Z, r24
     24a:	08 95       	ret

0000024c <gpio_set_pin_high>:
        gpio_set_pin_low(pin);
    }
}

void gpio_set_pin_high(Pin *pin)
{
     24c:	dc 01       	movw	r26, r24
    *pin->port |= _BV(pin->pin_num);
     24e:	12 96       	adiw	r26, 0x02	; 2
     250:	ed 91       	ld	r30, X+
     252:	fc 91       	ld	r31, X
     254:	13 97       	sbiw	r26, 0x03	; 3
     256:	90 81       	ld	r25, Z
     258:	16 96       	adiw	r26, 0x06	; 6
     25a:	8c 91       	ld	r24, X
     25c:	21 e0       	ldi	r18, 0x01	; 1
     25e:	30 e0       	ldi	r19, 0x00	; 0
     260:	01 c0       	rjmp	.+2      	; 0x264 <gpio_set_pin_high+0x18>
     262:	22 0f       	add	r18, r18
     264:	8a 95       	dec	r24
     266:	ea f7       	brpl	.-6      	; 0x262 <gpio_set_pin_high+0x16>
     268:	89 2f       	mov	r24, r25
     26a:	82 2b       	or	r24, r18
     26c:	80 83       	st	Z, r24
}
     26e:	08 95       	ret

00000270 <gpio_set_pin_low>:

void gpio_set_pin_low(Pin *pin)
{
     270:	dc 01       	movw	r26, r24
    *pin->port &= ~_BV(pin->pin_num);
     272:	12 96       	adiw	r26, 0x02	; 2
     274:	ed 91       	ld	r30, X+
     276:	fc 91       	ld	r31, X
     278:	13 97       	sbiw	r26, 0x03	; 3
     27a:	20 81       	ld	r18, Z
     27c:	16 96       	adiw	r26, 0x06	; 6
     27e:	3c 91       	ld	r19, X
     280:	81 e0       	ldi	r24, 0x01	; 1
     282:	90 e0       	ldi	r25, 0x00	; 0
     284:	01 c0       	rjmp	.+2      	; 0x288 <gpio_set_pin_low+0x18>
     286:	88 0f       	add	r24, r24
     288:	3a 95       	dec	r19
     28a:	ea f7       	brpl	.-6      	; 0x286 <gpio_set_pin_low+0x16>
     28c:	80 95       	com	r24
     28e:	82 23       	and	r24, r18
     290:	80 83       	st	Z, r24
}
     292:	08 95       	ret

00000294 <gpio_toggle_pin_output>:

void gpio_toggle_pin_output(Pin *pin)
{
     294:	dc 01       	movw	r26, r24
    *pin->port ^= _BV(pin->pin_num);
     296:	12 96       	adiw	r26, 0x02	; 2
     298:	ed 91       	ld	r30, X+
     29a:	fc 91       	ld	r31, X
     29c:	13 97       	sbiw	r26, 0x03	; 3
     29e:	90 81       	ld	r25, Z
     2a0:	16 96       	adiw	r26, 0x06	; 6
     2a2:	8c 91       	ld	r24, X
     2a4:	21 e0       	ldi	r18, 0x01	; 1
     2a6:	30 e0       	ldi	r19, 0x00	; 0
     2a8:	01 c0       	rjmp	.+2      	; 0x2ac <gpio_toggle_pin_output+0x18>
     2aa:	22 0f       	add	r18, r18
     2ac:	8a 95       	dec	r24
     2ae:	ea f7       	brpl	.-6      	; 0x2aa <gpio_toggle_pin_output+0x16>
     2b0:	89 2f       	mov	r24, r25
     2b2:	82 27       	eor	r24, r18
     2b4:	80 83       	st	Z, r24
     2b6:	08 95       	ret

000002b8 <millis_timer_ISR_loop>:
/**
 * ISR TIMER0_COMPA_VECT runs every 1ms
 */
void millis_timer_ISR_loop(void)
{
    millis++;
     2b8:	80 91 34 01 	lds	r24, 0x0134	; 0x800134 <millis>
     2bc:	90 91 35 01 	lds	r25, 0x0135	; 0x800135 <millis+0x1>
     2c0:	a0 91 36 01 	lds	r26, 0x0136	; 0x800136 <millis+0x2>
     2c4:	b0 91 37 01 	lds	r27, 0x0137	; 0x800137 <millis+0x3>
     2c8:	01 96       	adiw	r24, 0x01	; 1
     2ca:	a1 1d       	adc	r26, r1
     2cc:	b1 1d       	adc	r27, r1
     2ce:	80 93 34 01 	sts	0x0134, r24	; 0x800134 <millis>
     2d2:	90 93 35 01 	sts	0x0135, r25	; 0x800135 <millis+0x1>
     2d6:	a0 93 36 01 	sts	0x0136, r26	; 0x800136 <millis+0x2>
     2da:	b0 93 37 01 	sts	0x0137, r27	; 0x800137 <millis+0x3>
}
     2de:	08 95       	ret

000002e0 <millis_timer_init>:
    // TCCR0A = 0x00;
    // TCCR0B = 0x00;
    // TCCR0B |= _BV(CS01) | _BV(CS00);
    // TIMSK0 |= _BV(TOIE0);
    // sei();
    millis = 0;
     2e0:	10 92 34 01 	sts	0x0134, r1	; 0x800134 <millis>
     2e4:	10 92 35 01 	sts	0x0135, r1	; 0x800135 <millis+0x1>
     2e8:	10 92 36 01 	sts	0x0136, r1	; 0x800136 <millis+0x2>
     2ec:	10 92 37 01 	sts	0x0137, r1	; 0x800137 <millis+0x3>

    TCCR0A = 0x00;
     2f0:	14 bc       	out	0x24, r1	; 36
    TCCR0B = 0x00;
     2f2:	15 bc       	out	0x25, r1	; 37
    // WGM0 = 0b010, CTC mode
    // COM0A = 0b00, COM0B = 0b00, normal port operation
    TCCR0A |= _BV(WGM01);
     2f4:	84 b5       	in	r24, 0x24	; 36
     2f6:	82 60       	ori	r24, 0x02	; 2
     2f8:	84 bd       	out	0x24, r24	; 36
    // CS0 = 0b011, prescaler 64
    // each tick is 4 us
    TCCR0B |= _BV(CS01) | _BV(CS00);
     2fa:	85 b5       	in	r24, 0x25	; 37
     2fc:	83 60       	ori	r24, 0x03	; 3
     2fe:	85 bd       	out	0x25, r24	; 37
    // TCNT0 counts from 0 to 249 (restart every 250 counts)
    OCR0A = 249;
     300:	89 ef       	ldi	r24, 0xF9	; 249
     302:	87 bd       	out	0x27, r24	; 39
    OCR0B = 0;
     304:	18 bc       	out	0x28, r1	; 40
    // OCIE0B = 0b1, OCIE0A = 0b1
    TIMSK0 |= _BV(OCIE0A);
     306:	ee e6       	ldi	r30, 0x6E	; 110
     308:	f0 e0       	ldi	r31, 0x00	; 0
     30a:	80 81       	ld	r24, Z
     30c:	82 60       	ori	r24, 0x02	; 2
     30e:	80 83       	st	Z, r24
    // TIMSK0 |= _BV(OCIE0B);
    // TIMSK0
    // TIFR0
    sei();
     310:	78 94       	sei
}
     312:	08 95       	ret

00000314 <get_millis>:
 * @brief get current milliseconds since boot
 */
uint32_t get_millis(void)
{
    uint32_t m;
    ATOMIC_BLOCK(ATOMIC_RESTORESTATE)
     314:	2f b7       	in	r18, 0x3f	; 63
    return 1;
}

static __inline__ uint8_t __iCliRetVal(void)
{
    cli();
     316:	f8 94       	cli
    {
        m = millis;
     318:	60 91 34 01 	lds	r22, 0x0134	; 0x800134 <millis>
     31c:	70 91 35 01 	lds	r23, 0x0135	; 0x800135 <millis+0x1>
     320:	80 91 36 01 	lds	r24, 0x0136	; 0x800136 <millis+0x2>
     324:	90 91 37 01 	lds	r25, 0x0137	; 0x800137 <millis+0x3>
    (void)__s;
}

static __inline__ void __iRestore(const  uint8_t *__s)
{
    SREG = *__s;
     328:	2f bf       	out	0x3f, r18	; 63
    }
    return m;
}
     32a:	08 95       	ret

0000032c <get_micros>:
/**
 * @brief get current microseconds since boot
 *  get_micros has a resolution of 4us.
 */
uint32_t get_micros(void)
{
     32c:	0f 93       	push	r16
     32e:	1f 93       	push	r17
    uint32_t m;
    uint8_t t;

    ATOMIC_BLOCK(ATOMIC_RESTORESTATE)
     330:	8f b7       	in	r24, 0x3f	; 63
    return 1;
}

static __inline__ uint8_t __iCliRetVal(void)
{
    cli();
     332:	f8 94       	cli
    {
        // m = micros;
        m = millis;
     334:	20 91 34 01 	lds	r18, 0x0134	; 0x800134 <millis>
     338:	30 91 35 01 	lds	r19, 0x0135	; 0x800135 <millis+0x1>
     33c:	40 91 36 01 	lds	r20, 0x0136	; 0x800136 <millis+0x2>
     340:	50 91 37 01 	lds	r21, 0x0137	; 0x800137 <millis+0x3>
        t = TCNT0;
     344:	e6 b5       	in	r30, 0x26	; 38
        // if timer has overflowed but ISR hasn't run yet
        if ((TIFR0 & (1 << OCF0A)) && (t < 249))
     346:	a9 9b       	sbis	0x15, 1	; 21
     348:	06 c0       	rjmp	.+12     	; 0x356 <get_micros+0x2a>
     34a:	e9 3f       	cpi	r30, 0xF9	; 249
     34c:	20 f4       	brcc	.+8      	; 0x356 <get_micros+0x2a>
        {
            m++;
     34e:	2f 5f       	subi	r18, 0xFF	; 255
     350:	3f 4f       	sbci	r19, 0xFF	; 255
     352:	4f 4f       	sbci	r20, 0xFF	; 255
     354:	5f 4f       	sbci	r21, 0xFF	; 255
        }
        sei();
     356:	78 94       	sei
    (void)__s;
}

static __inline__ void __iRestore(const  uint8_t *__s)
{
    SREG = *__s;
     358:	8f bf       	out	0x3f, r24	; 63
    }
    return m * 1000 + t * 4;
     35a:	a8 ee       	ldi	r26, 0xE8	; 232
     35c:	b3 e0       	ldi	r27, 0x03	; 3
     35e:	0e 94 26 0a 	call	0x144c	; 0x144c <__muluhisi3>
     362:	2e 2f       	mov	r18, r30
     364:	30 e0       	ldi	r19, 0x00	; 0
     366:	22 0f       	add	r18, r18
     368:	33 1f       	adc	r19, r19
     36a:	22 0f       	add	r18, r18
     36c:	33 1f       	adc	r19, r19
     36e:	89 01       	movw	r16, r18
     370:	33 0f       	add	r19, r19
     372:	22 0b       	sbc	r18, r18
     374:	33 0b       	sbc	r19, r19
     376:	60 0f       	add	r22, r16
     378:	71 1f       	adc	r23, r17
     37a:	82 1f       	adc	r24, r18
     37c:	93 1f       	adc	r25, r19
     37e:	1f 91       	pop	r17
     380:	0f 91       	pop	r16
     382:	08 95       	ret

00000384 <seven_segment_init>:
    0b01110001, // F
    0b01110110, // H (for humidity)
};

void seven_segment_init()
{
     384:	cf 92       	push	r12
     386:	df 92       	push	r13
     388:	ef 92       	push	r14
     38a:	ff 92       	push	r15
     38c:	0f 93       	push	r16
     38e:	1f 93       	push	r17
     390:	cf 93       	push	r28
     392:	df 93       	push	r29
    //     segment_pins[i].ddr = &SEGMENTS_DDR;
    //     segment_pins[i].port = &SEGMENTS_PORT;
    //     segment_pins[i].pin_num = i;
    //     gpio_set_pin_output(&segment_pins[i]);
    // }
    srclk_pin.ddr = &SR_DDR;
     394:	0a e2       	ldi	r16, 0x2A	; 42
     396:	10 e0       	ldi	r17, 0x00	; 0
     398:	10 93 76 01 	sts	0x0176, r17	; 0x800176 <srclk_pin+0x1>
     39c:	00 93 75 01 	sts	0x0175, r16	; 0x800175 <srclk_pin>
    srclk_pin.port = &SR_PORT;
     3a0:	cb e2       	ldi	r28, 0x2B	; 43
     3a2:	d0 e0       	ldi	r29, 0x00	; 0
     3a4:	d0 93 78 01 	sts	0x0178, r29	; 0x800178 <srclk_pin+0x3>
     3a8:	c0 93 77 01 	sts	0x0177, r28	; 0x800177 <srclk_pin+0x2>
    srclk_pin.pin_num = SRCLK_PIN;
     3ac:	83 e0       	ldi	r24, 0x03	; 3
     3ae:	80 93 7b 01 	sts	0x017B, r24	; 0x80017b <srclk_pin+0x6>
    gpio_set_pin_output(&srclk_pin);
     3b2:	85 e7       	ldi	r24, 0x75	; 117
     3b4:	91 e0       	ldi	r25, 0x01	; 1
     3b6:	0e 94 b0 00 	call	0x160	; 0x160 <gpio_set_pin_output>

    lclk_pin.ddr = &SR_DDR;
     3ba:	10 93 6f 01 	sts	0x016F, r17	; 0x80016f <lclk_pin+0x1>
     3be:	00 93 6e 01 	sts	0x016E, r16	; 0x80016e <lclk_pin>
    lclk_pin.port = &SR_PORT;
     3c2:	d0 93 71 01 	sts	0x0171, r29	; 0x800171 <lclk_pin+0x3>
     3c6:	c0 93 70 01 	sts	0x0170, r28	; 0x800170 <lclk_pin+0x2>
    lclk_pin.pin_num = LCLK_PIN;
     3ca:	84 e0       	ldi	r24, 0x04	; 4
     3cc:	80 93 74 01 	sts	0x0174, r24	; 0x800174 <lclk_pin+0x6>
    gpio_set_pin_output(&lclk_pin);
     3d0:	8e e6       	ldi	r24, 0x6E	; 110
     3d2:	91 e0       	ldi	r25, 0x01	; 1
     3d4:	0e 94 b0 00 	call	0x160	; 0x160 <gpio_set_pin_output>

    ser_pin.ddr = &SR_DDR;
     3d8:	10 93 7f 01 	sts	0x017F, r17	; 0x80017f <ser_pin+0x1>
     3dc:	00 93 7e 01 	sts	0x017E, r16	; 0x80017e <ser_pin>
    ser_pin.port = &SR_PORT;
     3e0:	d0 93 81 01 	sts	0x0181, r29	; 0x800181 <ser_pin+0x3>
     3e4:	c0 93 80 01 	sts	0x0180, r28	; 0x800180 <ser_pin+0x2>
    ser_pin.pin_num = SER_PIN;
     3e8:	82 e0       	ldi	r24, 0x02	; 2
     3ea:	80 93 84 01 	sts	0x0184, r24	; 0x800184 <ser_pin+0x6>
    gpio_set_pin_output(&ser_pin);
     3ee:	8e e7       	ldi	r24, 0x7E	; 126
     3f0:	91 e0       	ldi	r25, 0x01	; 1
     3f2:	0e 94 b0 00 	call	0x160	; 0x160 <gpio_set_pin_output>
     3f6:	f1 2c       	mov	r15, r1
     3f8:	e1 2c       	mov	r14, r1

    int i1 = 0;
     3fa:	90 e0       	ldi	r25, 0x00	; 0
     3fc:	80 e0       	ldi	r24, 0x00	; 0
        // gpio_set_pin_output(&digit_pins[i]);

        // skip PB1
        if (i != 1)
        {
            digit_pins[i1].ddr = &DIGITS_DDR;
     3fe:	04 e2       	ldi	r16, 0x24	; 36
     400:	10 e0       	ldi	r17, 0x00	; 0
            digit_pins[i1].port = &DIGITS_PORT;
     402:	c5 e2       	ldi	r28, 0x25	; 37
     404:	d0 e0       	ldi	r29, 0x00	; 0
     406:	fc 01       	movw	r30, r24
     408:	ee 0f       	add	r30, r30
     40a:	ff 1f       	adc	r31, r31
     40c:	ee 0f       	add	r30, r30
     40e:	ff 1f       	adc	r31, r31
     410:	ee 0f       	add	r30, r30
     412:	ff 1f       	adc	r31, r31
     414:	e8 1b       	sub	r30, r24
     416:	f9 0b       	sbc	r31, r25
     418:	e1 5c       	subi	r30, 0xC1	; 193
     41a:	fe 4f       	sbci	r31, 0xFE	; 254
     41c:	6c 01       	movw	r12, r24
     41e:	2f ef       	ldi	r18, 0xFF	; 255
     420:	c2 1a       	sub	r12, r18
     422:	d2 0a       	sbc	r13, r18
        // // digit_pins[i].pin = &PINB;
        // digit_pins[i].pin_num = i;
        // gpio_set_pin_output(&digit_pins[i]);

        // skip PB1
        if (i != 1)
     424:	21 e0       	ldi	r18, 0x01	; 1
     426:	e2 16       	cp	r14, r18
     428:	f1 04       	cpc	r15, r1
     42a:	41 f1       	breq	.+80     	; 0x47c <__EEPROM_REGION_LENGTH__+0x7c>
        {
            digit_pins[i1].ddr = &DIGITS_DDR;
     42c:	11 83       	std	Z+1, r17	; 0x01
     42e:	00 83       	st	Z, r16
            digit_pins[i1].port = &DIGITS_PORT;
     430:	d3 83       	std	Z+3, r29	; 0x03
     432:	c2 83       	std	Z+2, r28	; 0x02
            // digit_pins[i].pin = &PINB;
            digit_pins[i1].pin_num = i;
     434:	e6 82       	std	Z+6, r14	; 0x06
            gpio_set_pin_output(&digit_pins[i1]);
     436:	cf 01       	movw	r24, r30
     438:	0e 94 b0 00 	call	0x160	; 0x160 <gpio_set_pin_output>
    ser_pin.port = &SR_PORT;
    ser_pin.pin_num = SER_PIN;
    gpio_set_pin_output(&ser_pin);

    int i1 = 0;
    for (int i = 0; i < 5; i++)
     43c:	84 e0       	ldi	r24, 0x04	; 4
     43e:	e8 16       	cp	r14, r24
     440:	f1 04       	cpc	r15, r1
     442:	29 f0       	breq	.+10     	; 0x44e <__EEPROM_REGION_LENGTH__+0x4e>
     444:	2f ef       	ldi	r18, 0xFF	; 255
     446:	e2 1a       	sub	r14, r18
     448:	f2 0a       	sbc	r15, r18
     44a:	c6 01       	movw	r24, r12
     44c:	dc cf       	rjmp	.-72     	; 0x406 <__EEPROM_REGION_LENGTH__+0x6>
            gpio_set_pin_output(&digit_pins[i1]);
            i1++;
        }
    }

    colon_pin.ddr = &COLON_DDR;
     44e:	10 93 39 01 	sts	0x0139, r17	; 0x800139 <colon_pin+0x1>
     452:	00 93 38 01 	sts	0x0138, r16	; 0x800138 <colon_pin>
    colon_pin.port = &COLON_PORT;
     456:	d0 93 3b 01 	sts	0x013B, r29	; 0x80013b <colon_pin+0x3>
     45a:	c0 93 3a 01 	sts	0x013A, r28	; 0x80013a <colon_pin+0x2>
    colon_pin.pin_num = COLON_PIN_NUM;
     45e:	85 e0       	ldi	r24, 0x05	; 5
     460:	80 93 3e 01 	sts	0x013E, r24	; 0x80013e <colon_pin+0x6>
    gpio_set_pin_output(&colon_pin);
     464:	88 e3       	ldi	r24, 0x38	; 56
     466:	91 e0       	ldi	r25, 0x01	; 1
}
     468:	df 91       	pop	r29
     46a:	cf 91       	pop	r28
     46c:	1f 91       	pop	r17
     46e:	0f 91       	pop	r16
     470:	ff 90       	pop	r15
     472:	ef 90       	pop	r14
     474:	df 90       	pop	r13
     476:	cf 90       	pop	r12
    }

    colon_pin.ddr = &COLON_DDR;
    colon_pin.port = &COLON_PORT;
    colon_pin.pin_num = COLON_PIN_NUM;
    gpio_set_pin_output(&colon_pin);
     478:	0c 94 b0 00 	jmp	0x160	; 0x160 <gpio_set_pin_output>
     47c:	6c 01       	movw	r12, r24
     47e:	e2 cf       	rjmp	.-60     	; 0x444 <__EEPROM_REGION_LENGTH__+0x44>

00000480 <seven_segment_loop_isr>:
}

void seven_segment_loop_isr(void)
{
     480:	0f 93       	push	r16
     482:	1f 93       	push	r17
     484:	cf 93       	push	r28
     486:	df 93       	push	r29

    gpio_set_pin_val(&colon_pin, display_data.colon);
     488:	60 91 63 01 	lds	r22, 0x0163	; 0x800163 <display_data+0x8>
     48c:	88 e3       	ldi	r24, 0x38	; 56
     48e:	91 e0       	ldi	r25, 0x01	; 1
     490:	0e 94 0f 01 	call	0x21e	; 0x21e <gpio_set_pin_val>
    // DIGITS_PORT |= 0x0F;
    DIGITS_PORT |= 0x1D; // skip PB1
     494:	85 b1       	in	r24, 0x05	; 5
     496:	8d 61       	ori	r24, 0x1D	; 29
     498:	85 b9       	out	0x05, r24	; 5
    // DIGITS_PORT &= ~(_BV(3 - display_data.cur_digit_index));
    // if current digit index is enabled, display the digit.
    if (display_data.enable_digits[display_data.cur_digit_index])
     49a:	80 91 64 01 	lds	r24, 0x0164	; 0x800164 <display_data+0x9>
     49e:	e8 2f       	mov	r30, r24
     4a0:	f0 e0       	ldi	r31, 0x00	; 0
     4a2:	e5 5a       	subi	r30, 0xA5	; 165
     4a4:	fe 4f       	sbci	r31, 0xFE	; 254
     4a6:	94 81       	ldd	r25, Z+4	; 0x04
     4a8:	99 23       	and	r25, r25
     4aa:	09 f4       	brne	.+2      	; 0x4ae <seven_segment_loop_isr+0x2e>
     4ac:	50 c0       	rjmp	.+160    	; 0x54e <seven_segment_loop_isr+0xce>
        // SEGMENTS_PORT = ~(display_data.display_digits[display_data.cur_digit_index] |
        //                   display_data.enable_decimal_points[display_data.cur_digit_index] << 7);

        // set latch pin low
        display_data.display_digits[display_data.cur_digit_index] = display_data.display_digits[display_data.cur_digit_index] |
                                                                    display_data.enable_decimal_points[display_data.cur_digit_index] << 7;
     4ae:	62 85       	ldd	r22, Z+10	; 0x0a
     4b0:	20 e8       	ldi	r18, 0x80	; 128
     4b2:	62 9f       	mul	r22, r18
     4b4:	c0 01       	movw	r24, r0
     4b6:	11 24       	eor	r1, r1

        // SEGMENTS_PORT = ~(display_data.display_digits[display_data.cur_digit_index] |
        //                   display_data.enable_decimal_points[display_data.cur_digit_index] << 7);

        // set latch pin low
        display_data.display_digits[display_data.cur_digit_index] = display_data.display_digits[display_data.cur_digit_index] |
     4b8:	60 81       	ld	r22, Z
     4ba:	68 2b       	or	r22, r24
     4bc:	60 83       	st	Z, r22
     4be:	07 e0       	ldi	r16, 0x07	; 7
     4c0:	10 e0       	ldi	r17, 0x00	; 0
                                                                    display_data.enable_decimal_points[display_data.cur_digit_index] << 7;
        for (int i = 0; i < 8; i++)
        {
            gpio_set_pin_val(&ser_pin, ~display_data.display_digits[display_data.cur_digit_index] & _BV(7 - i));
     4c2:	c1 e0       	ldi	r28, 0x01	; 1
     4c4:	d0 e0       	ldi	r29, 0x00	; 0
     4c6:	06 c0       	rjmp	.+12     	; 0x4d4 <seven_segment_loop_isr+0x54>
     4c8:	e0 91 64 01 	lds	r30, 0x0164	; 0x800164 <display_data+0x9>
     4cc:	f0 e0       	ldi	r31, 0x00	; 0
     4ce:	e5 5a       	subi	r30, 0xA5	; 165
     4d0:	fe 4f       	sbci	r31, 0xFE	; 254
     4d2:	60 81       	ld	r22, Z
     4d4:	60 95       	com	r22
     4d6:	ce 01       	movw	r24, r28
     4d8:	00 2e       	mov	r0, r16
     4da:	01 c0       	rjmp	.+2      	; 0x4de <seven_segment_loop_isr+0x5e>
     4dc:	88 0f       	add	r24, r24
     4de:	0a 94       	dec	r0
     4e0:	ea f7       	brpl	.-6      	; 0x4dc <seven_segment_loop_isr+0x5c>
     4e2:	68 23       	and	r22, r24
     4e4:	8e e7       	ldi	r24, 0x7E	; 126
     4e6:	91 e0       	ldi	r25, 0x01	; 1
     4e8:	0e 94 0f 01 	call	0x21e	; 0x21e <gpio_set_pin_val>
            gpio_set_pin_val(&srclk_pin, 1);
     4ec:	61 e0       	ldi	r22, 0x01	; 1
     4ee:	85 e7       	ldi	r24, 0x75	; 117
     4f0:	91 e0       	ldi	r25, 0x01	; 1
     4f2:	0e 94 0f 01 	call	0x21e	; 0x21e <gpio_set_pin_val>
            gpio_set_pin_val(&srclk_pin, 0);
     4f6:	60 e0       	ldi	r22, 0x00	; 0
     4f8:	85 e7       	ldi	r24, 0x75	; 117
     4fa:	91 e0       	ldi	r25, 0x01	; 1
     4fc:	0e 94 0f 01 	call	0x21e	; 0x21e <gpio_set_pin_val>
     500:	01 50       	subi	r16, 0x01	; 1
     502:	11 09       	sbc	r17, r1
     504:	08 f7       	brcc	.-62     	; 0x4c8 <seven_segment_loop_isr+0x48>
        }
        gpio_set_pin_val(&lclk_pin, 1);
     506:	61 e0       	ldi	r22, 0x01	; 1
     508:	8e e6       	ldi	r24, 0x6E	; 110
     50a:	91 e0       	ldi	r25, 0x01	; 1
     50c:	0e 94 0f 01 	call	0x21e	; 0x21e <gpio_set_pin_val>
        gpio_set_pin_val(&lclk_pin, 0);
     510:	60 e0       	ldi	r22, 0x00	; 0
     512:	8e e6       	ldi	r24, 0x6E	; 110
     514:	91 e0       	ldi	r25, 0x01	; 1
     516:	0e 94 0f 01 	call	0x21e	; 0x21e <gpio_set_pin_val>
        DIGITS_PORT &= ~(_BV(digit_pins[3 - display_data.cur_digit_index].pin_num));
     51a:	95 b1       	in	r25, 0x05	; 5
     51c:	80 91 64 01 	lds	r24, 0x0164	; 0x800164 <display_data+0x9>
     520:	23 e0       	ldi	r18, 0x03	; 3
     522:	30 e0       	ldi	r19, 0x00	; 0
     524:	28 1b       	sub	r18, r24
     526:	31 09       	sbc	r19, r1
     528:	f9 01       	movw	r30, r18
     52a:	ee 0f       	add	r30, r30
     52c:	ff 1f       	adc	r31, r31
     52e:	ee 0f       	add	r30, r30
     530:	ff 1f       	adc	r31, r31
     532:	ee 0f       	add	r30, r30
     534:	ff 1f       	adc	r31, r31
     536:	e2 1b       	sub	r30, r18
     538:	f3 0b       	sbc	r31, r19
     53a:	e1 5c       	subi	r30, 0xC1	; 193
     53c:	fe 4f       	sbci	r31, 0xFE	; 254
     53e:	26 81       	ldd	r18, Z+6	; 0x06
     540:	01 c0       	rjmp	.+2      	; 0x544 <seven_segment_loop_isr+0xc4>
     542:	cc 0f       	add	r28, r28
     544:	2a 95       	dec	r18
     546:	ea f7       	brpl	.-6      	; 0x542 <seven_segment_loop_isr+0xc2>
     548:	c0 95       	com	r28
     54a:	c9 23       	and	r28, r25
     54c:	c5 b9       	out	0x05, r28	; 5
    }
    display_data.cur_digit_index++;
     54e:	8f 5f       	subi	r24, 0xFF	; 255
    if (display_data.cur_digit_index > 3)
     550:	84 30       	cpi	r24, 0x04	; 4
     552:	38 f0       	brcs	.+14     	; 0x562 <seven_segment_loop_isr+0xe2>
    {
        display_data.cur_digit_index = 0;
     554:	10 92 64 01 	sts	0x0164, r1	; 0x800164 <display_data+0x9>
    }
}
     558:	df 91       	pop	r29
     55a:	cf 91       	pop	r28
     55c:	1f 91       	pop	r17
     55e:	0f 91       	pop	r16
     560:	08 95       	ret
        }
        gpio_set_pin_val(&lclk_pin, 1);
        gpio_set_pin_val(&lclk_pin, 0);
        DIGITS_PORT &= ~(_BV(digit_pins[3 - display_data.cur_digit_index].pin_num));
    }
    display_data.cur_digit_index++;
     562:	80 93 64 01 	sts	0x0164, r24	; 0x800164 <display_data+0x9>
    if (display_data.cur_digit_index > 3)
    {
        display_data.cur_digit_index = 0;
    }
}
     566:	df 91       	pop	r29
     568:	cf 91       	pop	r28
     56a:	1f 91       	pop	r17
     56c:	0f 91       	pop	r16
     56e:	08 95       	ret

00000570 <seven_segment_clear_all>:
 */
void seven_segment_clear_all(void)
{
    for (int i = 0; i < 4; i++)
    {
        display_data.display_digits[i] = 0;
     570:	eb e5       	ldi	r30, 0x5B	; 91
     572:	f1 e0       	ldi	r31, 0x01	; 1
     574:	10 82       	st	Z, r1
        display_data.enable_digits[i] = 0;
     576:	14 82       	std	Z+4, r1	; 0x04
 */
void seven_segment_clear_all(void)
{
    for (int i = 0; i < 4; i++)
    {
        display_data.display_digits[i] = 0;
     578:	11 82       	std	Z+1, r1	; 0x01
        display_data.enable_digits[i] = 0;
     57a:	15 82       	std	Z+5, r1	; 0x05
 */
void seven_segment_clear_all(void)
{
    for (int i = 0; i < 4; i++)
    {
        display_data.display_digits[i] = 0;
     57c:	12 82       	std	Z+2, r1	; 0x02
        display_data.enable_digits[i] = 0;
     57e:	16 82       	std	Z+6, r1	; 0x06
 */
void seven_segment_clear_all(void)
{
    for (int i = 0; i < 4; i++)
    {
        display_data.display_digits[i] = 0;
     580:	13 82       	std	Z+3, r1	; 0x03
        display_data.enable_digits[i] = 0;
     582:	17 82       	std	Z+7, r1	; 0x07
    }
    display_data.colon = 0;
     584:	10 86       	std	Z+8, r1	; 0x08
}
     586:	08 95       	ret

00000588 <seven_segment_set_all>:

void seven_segment_set_all(void)
{
     588:	eb e5       	ldi	r30, 0x5B	; 91
     58a:	f1 e0       	ldi	r31, 0x01	; 1
    for (int i = 0; i < 4; i++)
    {
        display_data.display_digits[i] = 255;
     58c:	9f ef       	ldi	r25, 0xFF	; 255
        display_data.enable_digits[i] = 1;
     58e:	81 e0       	ldi	r24, 0x01	; 1

void seven_segment_set_all(void)
{
    for (int i = 0; i < 4; i++)
    {
        display_data.display_digits[i] = 255;
     590:	91 93       	st	Z+, r25
        display_data.enable_digits[i] = 1;
     592:	83 83       	std	Z+3, r24	; 0x03
        display_data.enable_decimal_points[i] = 1;
     594:	81 87       	std	Z+9, r24	; 0x09
    display_data.colon = 0;
}

void seven_segment_set_all(void)
{
    for (int i = 0; i < 4; i++)
     596:	21 e0       	ldi	r18, 0x01	; 1
     598:	ef 35       	cpi	r30, 0x5F	; 95
     59a:	f2 07       	cpc	r31, r18
     59c:	c9 f7       	brne	.-14     	; 0x590 <seven_segment_set_all+0x8>
    {
        display_data.display_digits[i] = 255;
        display_data.enable_digits[i] = 1;
        display_data.enable_decimal_points[i] = 1;
    }
    display_data.colon = 1;
     59e:	80 93 63 01 	sts	0x0163, r24	; 0x800163 <display_data+0x8>
}
     5a2:	08 95       	ret

000005a4 <seven_segment_write_byte_to_digit>:

void seven_segment_write_byte_to_digit(uint8_t byte, uint8_t digit)
{
    display_data.display_digits[digit] = byte;
     5a4:	e6 2f       	mov	r30, r22
     5a6:	f0 e0       	ldi	r31, 0x00	; 0
     5a8:	e5 5a       	subi	r30, 0xA5	; 165
     5aa:	fe 4f       	sbci	r31, 0xFE	; 254
     5ac:	80 83       	st	Z, r24
    uint8_t is_flashing;
    switch (digit)
     5ae:	62 30       	cpi	r22, 0x02	; 2
     5b0:	60 f0       	brcs	.+24     	; 0x5ca <seven_segment_write_byte_to_digit+0x26>
     5b2:	64 30       	cpi	r22, 0x04	; 4
     5b4:	08 f0       	brcs	.+2      	; 0x5b8 <seven_segment_write_byte_to_digit+0x14>
        {
            display_data.enable_digits[digit] = 1;
        }
        break;
    }
}
     5b6:	08 95       	ret
    uint8_t is_flashing;
    switch (digit)
    {
    case 3:
    case 2:
        is_flashing = flash_all_digits | flash_digits_minutes;
     5b8:	80 91 7d 01 	lds	r24, 0x017D	; 0x80017d <flash_all_digits>
     5bc:	90 91 7c 01 	lds	r25, 0x017C	; 0x80017c <flash_digits_minutes>
     5c0:	89 2b       	or	r24, r25
        if (!is_flashing)
     5c2:	c9 f7       	brne	.-14     	; 0x5b6 <seven_segment_write_byte_to_digit+0x12>
    case 1:
    case 0:
        is_flashing = flash_all_digits | flash_digits_hours;
        if (!is_flashing)
        {
            display_data.enable_digits[digit] = 1;
     5c4:	81 e0       	ldi	r24, 0x01	; 1
     5c6:	84 83       	std	Z+4, r24	; 0x04
        }
        break;
    }
}
     5c8:	08 95       	ret
            display_data.enable_digits[digit] = 1;
        }
        break;
    case 1:
    case 0:
        is_flashing = flash_all_digits | flash_digits_hours;
     5ca:	80 91 7d 01 	lds	r24, 0x017D	; 0x80017d <flash_all_digits>
     5ce:	90 91 85 01 	lds	r25, 0x0185	; 0x800185 <flash_digits_hours>
     5d2:	89 2b       	or	r24, r25
        if (!is_flashing)
     5d4:	81 f7       	brne	.-32     	; 0x5b6 <seven_segment_write_byte_to_digit+0x12>
        {
            display_data.enable_digits[digit] = 1;
     5d6:	81 e0       	ldi	r24, 0x01	; 1
     5d8:	84 83       	std	Z+4, r24	; 0x04
     5da:	f6 cf       	rjmp	.-20     	; 0x5c8 <seven_segment_write_byte_to_digit+0x24>

000005dc <seven_segment_write_bytes>:
        break;
    }
}

void seven_segment_write_bytes(uint8_t bytes[4])
{
     5dc:	0f 93       	push	r16
     5de:	1f 93       	push	r17
     5e0:	cf 93       	push	r28
     5e2:	8c 01       	movw	r16, r24
     5e4:	c0 e0       	ldi	r28, 0x00	; 0
    for (int i = 0; i < 4; i++)
    {
        seven_segment_write_byte_to_digit(bytes[i], i);
     5e6:	6c 2f       	mov	r22, r28
     5e8:	f8 01       	movw	r30, r16
     5ea:	81 91       	ld	r24, Z+
     5ec:	8f 01       	movw	r16, r30
     5ee:	0e 94 d2 02 	call	0x5a4	; 0x5a4 <seven_segment_write_byte_to_digit>
     5f2:	cf 5f       	subi	r28, 0xFF	; 255
    }
}

void seven_segment_write_bytes(uint8_t bytes[4])
{
    for (int i = 0; i < 4; i++)
     5f4:	c4 30       	cpi	r28, 0x04	; 4
     5f6:	b9 f7       	brne	.-18     	; 0x5e6 <seven_segment_write_bytes+0xa>
    {
        seven_segment_write_byte_to_digit(bytes[i], i);
    }
}
     5f8:	cf 91       	pop	r28
     5fa:	1f 91       	pop	r17
     5fc:	0f 91       	pop	r16
     5fe:	08 95       	ret

00000600 <seven_segment_write_digit_val_to_digit>:

void seven_segment_write_digit_val_to_digit(uint8_t digit_index, uint8_t digit)
{
    seven_segment_write_byte_to_digit(digit_values[digit_index], digit);
     600:	e8 2f       	mov	r30, r24
     602:	f0 e0       	ldi	r31, 0x00	; 0
     604:	e0 50       	subi	r30, 0x00	; 0
     606:	ff 4f       	sbci	r31, 0xFF	; 255
     608:	80 81       	ld	r24, Z
     60a:	0c 94 d2 02 	jmp	0x5a4	; 0x5a4 <seven_segment_write_byte_to_digit>

0000060e <seven_segment_write_digit_vals>:
}

void seven_segment_write_digit_vals(uint8_t digit_indices[4])
{
     60e:	0f 93       	push	r16
     610:	1f 93       	push	r17
     612:	cf 93       	push	r28
     614:	8c 01       	movw	r16, r24
     616:	c0 e0       	ldi	r28, 0x00	; 0
    for (int i = 0; i < 4; i++)
    {
        seven_segment_write_digit_val_to_digit(digit_indices[i], i);
     618:	d8 01       	movw	r26, r16
     61a:	ed 91       	ld	r30, X+
     61c:	8d 01       	movw	r16, r26
    }
}

void seven_segment_write_digit_val_to_digit(uint8_t digit_index, uint8_t digit)
{
    seven_segment_write_byte_to_digit(digit_values[digit_index], digit);
     61e:	f0 e0       	ldi	r31, 0x00	; 0
     620:	e0 50       	subi	r30, 0x00	; 0
     622:	ff 4f       	sbci	r31, 0xFF	; 255
     624:	6c 2f       	mov	r22, r28
     626:	80 81       	ld	r24, Z
     628:	0e 94 d2 02 	call	0x5a4	; 0x5a4 <seven_segment_write_byte_to_digit>
     62c:	cf 5f       	subi	r28, 0xFF	; 255
}

void seven_segment_write_digit_vals(uint8_t digit_indices[4])
{
    for (int i = 0; i < 4; i++)
     62e:	c4 30       	cpi	r28, 0x04	; 4
     630:	99 f7       	brne	.-26     	; 0x618 <seven_segment_write_digit_vals+0xa>
    {
        seven_segment_write_digit_val_to_digit(digit_indices[i], i);
    }
}
     632:	cf 91       	pop	r28
     634:	1f 91       	pop	r17
     636:	0f 91       	pop	r16
     638:	08 95       	ret

0000063a <seven_segment_set_colon>:

void seven_segment_set_colon(uint8_t state)
{
    display_data.colon = state;
     63a:	80 93 63 01 	sts	0x0163, r24	; 0x800163 <display_data+0x8>
}
     63e:	08 95       	ret

00000640 <seven_segment_set_decimal_point>:

void seven_segment_set_decimal_point(uint8_t digit, uint8_t state)
{
     640:	90 e0       	ldi	r25, 0x00	; 0
    if (state)
    {
        display_data.enable_decimal_points[digit] = 1;
     642:	85 5a       	subi	r24, 0xA5	; 165
     644:	9e 4f       	sbci	r25, 0xFE	; 254
    display_data.colon = state;
}

void seven_segment_set_decimal_point(uint8_t digit, uint8_t state)
{
    if (state)
     646:	61 11       	cpse	r22, r1
     648:	03 c0       	rjmp	.+6      	; 0x650 <seven_segment_set_decimal_point+0x10>
    {
        display_data.enable_decimal_points[digit] = 1;
    }
    else
    {
        display_data.enable_decimal_points[digit] = 0;
     64a:	fc 01       	movw	r30, r24
     64c:	12 86       	std	Z+10, r1	; 0x0a
    }
}
     64e:	08 95       	ret

void seven_segment_set_decimal_point(uint8_t digit, uint8_t state)
{
    if (state)
    {
        display_data.enable_decimal_points[digit] = 1;
     650:	21 e0       	ldi	r18, 0x01	; 1
     652:	fc 01       	movw	r30, r24
     654:	22 87       	std	Z+10, r18	; 0x0a
     656:	08 95       	ret

00000658 <seven_segment_flashing_loop>:
    }
}

/* flashing loop */
void seven_segment_flashing_loop(uint32_t t_millis)
{
     658:	cf 92       	push	r12
     65a:	df 92       	push	r13
     65c:	ef 92       	push	r14
     65e:	ff 92       	push	r15
     660:	0f 93       	push	r16
     662:	1f 93       	push	r17
    if (t_millis - prev_millis_flash > 500)
     664:	00 91 6a 01 	lds	r16, 0x016A	; 0x80016a <prev_millis_flash>
     668:	10 91 6b 01 	lds	r17, 0x016B	; 0x80016b <prev_millis_flash+0x1>
     66c:	20 91 6c 01 	lds	r18, 0x016C	; 0x80016c <prev_millis_flash+0x2>
     670:	30 91 6d 01 	lds	r19, 0x016D	; 0x80016d <prev_millis_flash+0x3>
     674:	6b 01       	movw	r12, r22
     676:	7c 01       	movw	r14, r24
     678:	c0 1a       	sub	r12, r16
     67a:	d1 0a       	sbc	r13, r17
     67c:	e2 0a       	sbc	r14, r18
     67e:	f3 0a       	sbc	r15, r19
     680:	97 01       	movw	r18, r14
     682:	86 01       	movw	r16, r12
     684:	05 3f       	cpi	r16, 0xF5	; 245
     686:	11 40       	sbci	r17, 0x01	; 1
     688:	21 05       	cpc	r18, r1
     68a:	31 05       	cpc	r19, r1
     68c:	c0 f1       	brcs	.+112    	; 0x6fe <seven_segment_flashing_loop+0xa6>
    {
        prev_millis_flash = t_millis;
     68e:	60 93 6a 01 	sts	0x016A, r22	; 0x80016a <prev_millis_flash>
     692:	70 93 6b 01 	sts	0x016B, r23	; 0x80016b <prev_millis_flash+0x1>
     696:	80 93 6c 01 	sts	0x016C, r24	; 0x80016c <prev_millis_flash+0x2>
     69a:	90 93 6d 01 	sts	0x016D, r25	; 0x80016d <prev_millis_flash+0x3>

        // flash colon
        if (flash_colon)
     69e:	80 91 69 01 	lds	r24, 0x0169	; 0x800169 <flash_colon>
     6a2:	88 23       	and	r24, r24
     6a4:	39 f0       	breq	.+14     	; 0x6b4 <seven_segment_flashing_loop+0x5c>
        {
            if (display_data.colon)
     6a6:	81 e0       	ldi	r24, 0x01	; 1
     6a8:	90 91 63 01 	lds	r25, 0x0163	; 0x800163 <display_data+0x8>
     6ac:	91 11       	cpse	r25, r1
     6ae:	44 c0       	rjmp	.+136    	; 0x738 <seven_segment_flashing_loop+0xe0>
            }
            else
            {
                seven_segment_set_colon(0);
            }
            display_data.colon = !display_data.colon;
     6b0:	80 93 63 01 	sts	0x0163, r24	; 0x800163 <display_data+0x8>
        }
        // flash digits 32
        if (flash_digits_minutes)
     6b4:	80 91 7c 01 	lds	r24, 0x017C	; 0x80017c <flash_digits_minutes>
     6b8:	88 23       	and	r24, r24
     6ba:	41 f0       	breq	.+16     	; 0x6cc <seven_segment_flashing_loop+0x74>
        {
            if (display_data.enable_digits[3])
     6bc:	80 91 62 01 	lds	r24, 0x0162	; 0x800162 <display_data+0x7>
     6c0:	88 23       	and	r24, r24
     6c2:	f1 f1       	breq	.+124    	; 0x740 <seven_segment_flashing_loop+0xe8>
            {
                display_data.enable_digits[3] = 0;
     6c4:	10 92 62 01 	sts	0x0162, r1	; 0x800162 <display_data+0x7>
                display_data.enable_digits[2] = 0;
     6c8:	10 92 61 01 	sts	0x0161, r1	; 0x800161 <display_data+0x6>
     6cc:	80 91 7d 01 	lds	r24, 0x017D	; 0x80017d <flash_all_digits>
                display_data.enable_digits[3] = 1;
                display_data.enable_digits[2] = 1;
            }
        }
        // flash digits 10
        if (flash_digits_hours)
     6d0:	90 91 85 01 	lds	r25, 0x0185	; 0x800185 <flash_digits_hours>
     6d4:	99 23       	and	r25, r25
     6d6:	d1 f0       	breq	.+52     	; 0x70c <seven_segment_flashing_loop+0xb4>
        {
            if (display_data.enable_digits[1])
     6d8:	90 91 60 01 	lds	r25, 0x0160	; 0x800160 <display_data+0x5>
     6dc:	91 11       	cpse	r25, r1
     6de:	3c c0       	rjmp	.+120    	; 0x758 <seven_segment_flashing_loop+0x100>
                display_data.enable_digits[1] = 0;
                display_data.enable_digits[0] = 0;
            }
            else
            {
                display_data.enable_digits[1] = 1;
     6e0:	91 e0       	ldi	r25, 0x01	; 1
     6e2:	90 93 60 01 	sts	0x0160, r25	; 0x800160 <display_data+0x5>
                display_data.enable_digits[0] = 1;
     6e6:	90 93 5f 01 	sts	0x015F, r25	; 0x80015f <display_data+0x4>
            }
        }
        // flash all digits
        if (flash_all_digits)
     6ea:	88 23       	and	r24, r24
     6ec:	41 f0       	breq	.+16     	; 0x6fe <seven_segment_flashing_loop+0xa6>
        {
            if (display_data.enable_digits[1])
            {
                display_data.enable_digits[3] = 0;
     6ee:	10 92 62 01 	sts	0x0162, r1	; 0x800162 <display_data+0x7>
                display_data.enable_digits[2] = 0;
     6f2:	10 92 61 01 	sts	0x0161, r1	; 0x800161 <display_data+0x6>
                display_data.enable_digits[1] = 0;
     6f6:	10 92 60 01 	sts	0x0160, r1	; 0x800160 <display_data+0x5>
                display_data.enable_digits[0] = 0;
     6fa:	10 92 5f 01 	sts	0x015F, r1	; 0x80015f <display_data+0x4>
                display_data.enable_digits[1] = 1;
                display_data.enable_digits[0] = 1;
            }
        }
    }
}
     6fe:	1f 91       	pop	r17
     700:	0f 91       	pop	r16
     702:	ff 90       	pop	r15
     704:	ef 90       	pop	r14
     706:	df 90       	pop	r13
     708:	cf 90       	pop	r12
     70a:	08 95       	ret
                display_data.enable_digits[1] = 1;
                display_data.enable_digits[0] = 1;
            }
        }
        // flash all digits
        if (flash_all_digits)
     70c:	88 23       	and	r24, r24
     70e:	b9 f3       	breq	.-18     	; 0x6fe <seven_segment_flashing_loop+0xa6>
        {
            if (display_data.enable_digits[1])
     710:	80 91 60 01 	lds	r24, 0x0160	; 0x800160 <display_data+0x5>
     714:	81 11       	cpse	r24, r1
     716:	eb cf       	rjmp	.-42     	; 0x6ee <seven_segment_flashing_loop+0x96>
                display_data.enable_digits[1] = 0;
                display_data.enable_digits[0] = 0;
            }
            else
            {
                display_data.enable_digits[3] = 1;
     718:	81 e0       	ldi	r24, 0x01	; 1
     71a:	80 93 62 01 	sts	0x0162, r24	; 0x800162 <display_data+0x7>
                display_data.enable_digits[2] = 1;
     71e:	80 93 61 01 	sts	0x0161, r24	; 0x800161 <display_data+0x6>
                display_data.enable_digits[1] = 1;
     722:	80 93 60 01 	sts	0x0160, r24	; 0x800160 <display_data+0x5>
                display_data.enable_digits[0] = 1;
     726:	80 93 5f 01 	sts	0x015F, r24	; 0x80015f <display_data+0x4>
            }
        }
    }
}
     72a:	1f 91       	pop	r17
     72c:	0f 91       	pop	r16
     72e:	ff 90       	pop	r15
     730:	ef 90       	pop	r14
     732:	df 90       	pop	r13
     734:	cf 90       	pop	r12
     736:	08 95       	ret
        prev_millis_flash = t_millis;

        // flash colon
        if (flash_colon)
        {
            if (display_data.colon)
     738:	80 e0       	ldi	r24, 0x00	; 0
            }
            else
            {
                seven_segment_set_colon(0);
            }
            display_data.colon = !display_data.colon;
     73a:	80 93 63 01 	sts	0x0163, r24	; 0x800163 <display_data+0x8>
     73e:	ba cf       	rjmp	.-140    	; 0x6b4 <seven_segment_flashing_loop+0x5c>
                display_data.enable_digits[3] = 0;
                display_data.enable_digits[2] = 0;
            }
            else
            {
                display_data.enable_digits[3] = 1;
     740:	81 e0       	ldi	r24, 0x01	; 1
     742:	80 93 62 01 	sts	0x0162, r24	; 0x800162 <display_data+0x7>
                display_data.enable_digits[2] = 1;
     746:	80 93 61 01 	sts	0x0161, r24	; 0x800161 <display_data+0x6>
     74a:	80 91 7d 01 	lds	r24, 0x017D	; 0x80017d <flash_all_digits>
            }
        }
        // flash digits 10
        if (flash_digits_hours)
     74e:	90 91 85 01 	lds	r25, 0x0185	; 0x800185 <flash_digits_hours>
     752:	99 23       	and	r25, r25
     754:	d9 f2       	breq	.-74     	; 0x70c <seven_segment_flashing_loop+0xb4>
     756:	c0 cf       	rjmp	.-128    	; 0x6d8 <seven_segment_flashing_loop+0x80>
        {
            if (display_data.enable_digits[1])
            {
                display_data.enable_digits[1] = 0;
     758:	10 92 60 01 	sts	0x0160, r1	; 0x800160 <display_data+0x5>
                display_data.enable_digits[0] = 0;
     75c:	10 92 5f 01 	sts	0x015F, r1	; 0x80015f <display_data+0x4>
                display_data.enable_digits[1] = 1;
                display_data.enable_digits[0] = 1;
            }
        }
        // flash all digits
        if (flash_all_digits)
     760:	81 11       	cpse	r24, r1
     762:	da cf       	rjmp	.-76     	; 0x718 <seven_segment_flashing_loop+0xc0>
     764:	cc cf       	rjmp	.-104    	; 0x6fe <seven_segment_flashing_loop+0xa6>

00000766 <seven_segment_flash_colon>:
    }
}
/* flash the colon */
void seven_segment_flash_colon(uint8_t bool_flash)
{
    flash_colon = bool_flash;
     766:	80 93 69 01 	sts	0x0169, r24	; 0x800169 <flash_colon>
}
     76a:	08 95       	ret

0000076c <seven_segment_flash_digits_minutes>:

/* flash digits 3 and 2 */
void seven_segment_flash_digits_minutes(uint8_t bool_flash)
{
    flash_digits_minutes = bool_flash;
     76c:	80 93 7c 01 	sts	0x017C, r24	; 0x80017c <flash_digits_minutes>
}
     770:	08 95       	ret

00000772 <seven_segment_flash_digits_hours>:
/* flash digits 1 and 0 */
void seven_segment_flash_digits_hours(uint8_t bool_flash)
{
    flash_digits_hours = bool_flash;
     772:	80 93 85 01 	sts	0x0185, r24	; 0x800185 <flash_digits_hours>
}
     776:	08 95       	ret

00000778 <seven_segment_flash_all_digits>:
/* flash all digits */
void seven_segment_flash_all_digits(uint8_t bool_flash)
{
    flash_all_digits = bool_flash;
     778:	80 93 7d 01 	sts	0x017D, r24	; 0x80017d <flash_all_digits>
}
     77c:	08 95       	ret

0000077e <seven_segment_show_hour_minute>:

void seven_segment_show_hour_minute(uint8_t hour, uint8_t minute)
{
     77e:	ef 92       	push	r14
     780:	ff 92       	push	r15
     782:	1f 93       	push	r17
     784:	cf 93       	push	r28
     786:	df 93       	push	r29
     788:	00 d0       	rcall	.+0      	; 0x78a <seven_segment_show_hour_minute+0xc>
     78a:	00 d0       	rcall	.+0      	; 0x78c <seven_segment_show_hour_minute+0xe>
     78c:	cd b7       	in	r28, 0x3d	; 61
     78e:	de b7       	in	r29, 0x3e	; 62
     790:	88 31       	cpi	r24, 0x18	; 24
     792:	08 f0       	brcs	.+2      	; 0x796 <seven_segment_show_hour_minute+0x18>
     794:	87 e1       	ldi	r24, 0x17	; 23
     796:	6c 33       	cpi	r22, 0x3C	; 60
     798:	08 f0       	brcs	.+2      	; 0x79c <seven_segment_show_hour_minute+0x1e>
     79a:	6b e3       	ldi	r22, 0x3B	; 59
    }

    uint8_t digit_indices[4];

    // get hour tens digit
    digit_indices[0] = hour / 10;
     79c:	9d ec       	ldi	r25, 0xCD	; 205
     79e:	89 9f       	mul	r24, r25
     7a0:	e1 2d       	mov	r30, r1
     7a2:	11 24       	eor	r1, r1
     7a4:	e6 95       	lsr	r30
     7a6:	e6 95       	lsr	r30
     7a8:	e6 95       	lsr	r30
     7aa:	e9 83       	std	Y+1, r30	; 0x01
    // get hour ones digit
    digit_indices[1] = hour % 10;
     7ac:	2e 2f       	mov	r18, r30
     7ae:	22 0f       	add	r18, r18
     7b0:	22 0f       	add	r18, r18
     7b2:	2e 0f       	add	r18, r30
     7b4:	22 0f       	add	r18, r18
     7b6:	82 1b       	sub	r24, r18
     7b8:	8a 83       	std	Y+2, r24	; 0x02

    // get minute tens digit
    digit_indices[2] = minute / 10;
     7ba:	69 9f       	mul	r22, r25
     7bc:	81 2d       	mov	r24, r1
     7be:	11 24       	eor	r1, r1
     7c0:	86 95       	lsr	r24
     7c2:	86 95       	lsr	r24
     7c4:	86 95       	lsr	r24
     7c6:	8b 83       	std	Y+3, r24	; 0x03
    // get minute ones digit
    digit_indices[3] = minute % 10;
     7c8:	98 2f       	mov	r25, r24
     7ca:	99 0f       	add	r25, r25
     7cc:	99 0f       	add	r25, r25
     7ce:	89 0f       	add	r24, r25
     7d0:	88 0f       	add	r24, r24
     7d2:	68 1b       	sub	r22, r24
     7d4:	6c 83       	std	Y+4, r22	; 0x04
    {
        display_data.enable_decimal_points[digit] = 1;
    }
    else
    {
        display_data.enable_decimal_points[digit] = 0;
     7d6:	10 92 68 01 	sts	0x0168, r1	; 0x800168 <display_data+0xd>
     7da:	10 92 67 01 	sts	0x0167, r1	; 0x800167 <display_data+0xc>
     7de:	10 92 66 01 	sts	0x0166, r1	; 0x800166 <display_data+0xb>
     7e2:	10 92 65 01 	sts	0x0165, r1	; 0x800165 <display_data+0xa>
     7e6:	7e 01       	movw	r14, r28
     7e8:	82 e0       	ldi	r24, 0x02	; 2
     7ea:	e8 0e       	add	r14, r24
     7ec:	f1 1c       	adc	r15, r1
     7ee:	10 e0       	ldi	r17, 0x00	; 0
    }
}

void seven_segment_write_digit_val_to_digit(uint8_t digit_index, uint8_t digit)
{
    seven_segment_write_byte_to_digit(digit_values[digit_index], digit);
     7f0:	f0 e0       	ldi	r31, 0x00	; 0
     7f2:	e0 50       	subi	r30, 0x00	; 0
     7f4:	ff 4f       	sbci	r31, 0xFF	; 255
     7f6:	61 2f       	mov	r22, r17
     7f8:	80 81       	ld	r24, Z
     7fa:	0e 94 d2 02 	call	0x5a4	; 0x5a4 <seven_segment_write_byte_to_digit>
     7fe:	1f 5f       	subi	r17, 0xFF	; 255
}

void seven_segment_write_digit_vals(uint8_t digit_indices[4])
{
    for (int i = 0; i < 4; i++)
     800:	14 30       	cpi	r17, 0x04	; 4
     802:	21 f0       	breq	.+8      	; 0x80c <__DATA_REGION_LENGTH__+0xc>
     804:	d7 01       	movw	r26, r14
     806:	ed 91       	ld	r30, X+
     808:	7d 01       	movw	r14, r26
     80a:	f2 cf       	rjmp	.-28     	; 0x7f0 <seven_segment_show_hour_minute+0x72>
    seven_segment_set_decimal_point(1, 0);
    seven_segment_set_decimal_point(0, 0);

    // write to display
    seven_segment_write_digit_vals(digit_indices);
}
     80c:	0f 90       	pop	r0
     80e:	0f 90       	pop	r0
     810:	0f 90       	pop	r0
     812:	0f 90       	pop	r0
     814:	df 91       	pop	r29
     816:	cf 91       	pop	r28
     818:	1f 91       	pop	r17
     81a:	ff 90       	pop	r15
     81c:	ef 90       	pop	r14
     81e:	08 95       	ret

00000820 <seven_segment_show_month_day>:

void seven_segment_show_month_day(uint8_t month, uint8_t day)
{
     820:	ef 92       	push	r14
     822:	ff 92       	push	r15
     824:	1f 93       	push	r17
     826:	cf 93       	push	r28
     828:	df 93       	push	r29
     82a:	00 d0       	rcall	.+0      	; 0x82c <seven_segment_show_month_day+0xc>
     82c:	00 d0       	rcall	.+0      	; 0x82e <seven_segment_show_month_day+0xe>
     82e:	cd b7       	in	r28, 0x3d	; 61
     830:	de b7       	in	r29, 0x3e	; 62
    // error checking
    if (month < 1)
     832:	88 23       	and	r24, r24
     834:	09 f4       	brne	.+2      	; 0x838 <seven_segment_show_month_day+0x18>
     836:	5b c0       	rjmp	.+182    	; 0x8ee <seven_segment_show_month_day+0xce>
     838:	8d 30       	cpi	r24, 0x0D	; 13
     83a:	08 f0       	brcs	.+2      	; 0x83e <seven_segment_show_month_day+0x1e>
     83c:	5e c0       	rjmp	.+188    	; 0x8fa <seven_segment_show_month_day+0xda>
     83e:	2d ec       	ldi	r18, 0xCD	; 205
     840:	82 9f       	mul	r24, r18
     842:	21 2d       	mov	r18, r1
     844:	11 24       	eor	r1, r1
     846:	26 95       	lsr	r18
     848:	26 95       	lsr	r18
     84a:	26 95       	lsr	r18
     84c:	92 2f       	mov	r25, r18
     84e:	99 0f       	add	r25, r25
     850:	99 0f       	add	r25, r25
     852:	92 0f       	add	r25, r18
     854:	99 0f       	add	r25, r25
     856:	89 1b       	sub	r24, r25
     858:	98 2f       	mov	r25, r24
     85a:	e2 2f       	mov	r30, r18
     85c:	f0 e0       	ldi	r31, 0x00	; 0
     85e:	e0 50       	subi	r30, 0x00	; 0
     860:	ff 4f       	sbci	r31, 0xFF	; 255
     862:	80 81       	ld	r24, Z
    }
    else if (month > 12)
    {
        month = 12;
    }
    if (day < 1)
     864:	66 23       	and	r22, r22
     866:	09 f4       	brne	.+2      	; 0x86a <seven_segment_show_month_day+0x4a>
     868:	3f c0       	rjmp	.+126    	; 0x8e8 <seven_segment_show_month_day+0xc8>
     86a:	60 32       	cpi	r22, 0x20	; 32
     86c:	08 f0       	brcs	.+2      	; 0x870 <seven_segment_show_month_day+0x50>
     86e:	43 c0       	rjmp	.+134    	; 0x8f6 <seven_segment_show_month_day+0xd6>
     870:	3d ec       	ldi	r19, 0xCD	; 205
     872:	63 9f       	mul	r22, r19
     874:	31 2d       	mov	r19, r1
     876:	11 24       	eor	r1, r1
     878:	36 95       	lsr	r19
     87a:	36 95       	lsr	r19
     87c:	36 95       	lsr	r19
     87e:	43 2f       	mov	r20, r19
     880:	44 0f       	add	r20, r20
     882:	44 0f       	add	r20, r20
     884:	43 0f       	add	r20, r19
     886:	44 0f       	add	r20, r20
     888:	64 1b       	sub	r22, r20
    }

    uint8_t digit_indices[4];

    // get hour tens digit
    digit_indices[0] = month / 10;
     88a:	29 83       	std	Y+1, r18	; 0x01
    // get hour ones digit
    digit_indices[1] = month % 10;
     88c:	9a 83       	std	Y+2, r25	; 0x02

    // get minute tens digit
    digit_indices[2] = day / 10;
     88e:	3b 83       	std	Y+3, r19	; 0x03
    // get minute ones digit
    digit_indices[3] = day % 10;
     890:	6c 83       	std	Y+4, r22	; 0x04

void seven_segment_set_decimal_point(uint8_t digit, uint8_t state)
{
    if (state)
    {
        display_data.enable_decimal_points[digit] = 1;
     892:	91 e0       	ldi	r25, 0x01	; 1
     894:	90 93 68 01 	sts	0x0168, r25	; 0x800168 <display_data+0xd>
    }
    else
    {
        display_data.enable_decimal_points[digit] = 0;
     898:	10 92 67 01 	sts	0x0167, r1	; 0x800167 <display_data+0xc>

void seven_segment_set_decimal_point(uint8_t digit, uint8_t state)
{
    if (state)
    {
        display_data.enable_decimal_points[digit] = 1;
     89c:	90 93 66 01 	sts	0x0166, r25	; 0x800166 <display_data+0xb>
    }
    else
    {
        display_data.enable_decimal_points[digit] = 0;
     8a0:	10 92 65 01 	sts	0x0165, r1	; 0x800165 <display_data+0xa>
     8a4:	7e 01       	movw	r14, r28
     8a6:	92 e0       	ldi	r25, 0x02	; 2
     8a8:	e9 0e       	add	r14, r25
     8aa:	f1 1c       	adc	r15, r1
     8ac:	10 e0       	ldi	r17, 0x00	; 0
    }
}

void seven_segment_write_digit_val_to_digit(uint8_t digit_index, uint8_t digit)
{
    seven_segment_write_byte_to_digit(digit_values[digit_index], digit);
     8ae:	61 2f       	mov	r22, r17
     8b0:	0e 94 d2 02 	call	0x5a4	; 0x5a4 <seven_segment_write_byte_to_digit>
     8b4:	1f 5f       	subi	r17, 0xFF	; 255
}

void seven_segment_write_digit_vals(uint8_t digit_indices[4])
{
    for (int i = 0; i < 4; i++)
     8b6:	14 30       	cpi	r17, 0x04	; 4
     8b8:	69 f0       	breq	.+26     	; 0x8d4 <seven_segment_show_month_day+0xb4>
     8ba:	d7 01       	movw	r26, r14
     8bc:	ed 91       	ld	r30, X+
     8be:	7d 01       	movw	r14, r26
     8c0:	f0 e0       	ldi	r31, 0x00	; 0
     8c2:	e0 50       	subi	r30, 0x00	; 0
     8c4:	ff 4f       	sbci	r31, 0xFF	; 255
     8c6:	80 81       	ld	r24, Z
    }
}

void seven_segment_write_digit_val_to_digit(uint8_t digit_index, uint8_t digit)
{
    seven_segment_write_byte_to_digit(digit_values[digit_index], digit);
     8c8:	61 2f       	mov	r22, r17
     8ca:	0e 94 d2 02 	call	0x5a4	; 0x5a4 <seven_segment_write_byte_to_digit>
     8ce:	1f 5f       	subi	r17, 0xFF	; 255
}

void seven_segment_write_digit_vals(uint8_t digit_indices[4])
{
    for (int i = 0; i < 4; i++)
     8d0:	14 30       	cpi	r17, 0x04	; 4
     8d2:	99 f7       	brne	.-26     	; 0x8ba <seven_segment_show_month_day+0x9a>
    seven_segment_set_decimal_point(1, 1);
    seven_segment_set_decimal_point(0, 0);

    // write to display
    seven_segment_write_digit_vals(digit_indices);
}
     8d4:	0f 90       	pop	r0
     8d6:	0f 90       	pop	r0
     8d8:	0f 90       	pop	r0
     8da:	0f 90       	pop	r0
     8dc:	df 91       	pop	r29
     8de:	cf 91       	pop	r28
     8e0:	1f 91       	pop	r17
     8e2:	ff 90       	pop	r15
     8e4:	ef 90       	pop	r14
     8e6:	08 95       	ret
     8e8:	61 e0       	ldi	r22, 0x01	; 1
     8ea:	30 e0       	ldi	r19, 0x00	; 0
     8ec:	ce cf       	rjmp	.-100    	; 0x88a <seven_segment_show_month_day+0x6a>
     8ee:	8f e3       	ldi	r24, 0x3F	; 63
     8f0:	91 e0       	ldi	r25, 0x01	; 1
     8f2:	20 e0       	ldi	r18, 0x00	; 0
     8f4:	b7 cf       	rjmp	.-146    	; 0x864 <seven_segment_show_month_day+0x44>
     8f6:	6f e1       	ldi	r22, 0x1F	; 31
     8f8:	bb cf       	rjmp	.-138    	; 0x870 <seven_segment_show_month_day+0x50>
     8fa:	8c e0       	ldi	r24, 0x0C	; 12
     8fc:	a0 cf       	rjmp	.-192    	; 0x83e <seven_segment_show_month_day+0x1e>

000008fe <seven_segment_show_year>:

void seven_segment_show_year(uint16_t year)
{
     8fe:	ef 92       	push	r14
     900:	ff 92       	push	r15
     902:	0f 93       	push	r16
     904:	1f 93       	push	r17
     906:	cf 93       	push	r28
     908:	df 93       	push	r29
     90a:	00 d0       	rcall	.+0      	; 0x90c <__stack+0xd>
     90c:	00 d0       	rcall	.+0      	; 0x90e <__stack+0xf>
     90e:	cd b7       	in	r28, 0x3d	; 61
     910:	de b7       	in	r29, 0x3e	; 62
     912:	9c 01       	movw	r18, r24
     914:	20 31       	cpi	r18, 0x10	; 16
     916:	87 e2       	ldi	r24, 0x27	; 39
     918:	38 07       	cpc	r19, r24
     91a:	10 f0       	brcs	.+4      	; 0x920 <__stack+0x21>
     91c:	2f e0       	ldi	r18, 0x0F	; 15
     91e:	37 e2       	ldi	r19, 0x27	; 39
    else if (year > 9999)
    {
        year = 9999;
    }
    uint8_t digit_indices[4];
    digit_indices[0] = year / 1000;
     920:	c9 01       	movw	r24, r18
     922:	68 ee       	ldi	r22, 0xE8	; 232
     924:	73 e0       	ldi	r23, 0x03	; 3
     926:	0e 94 12 0a 	call	0x1424	; 0x1424 <__divmodhi4>
     92a:	e6 2f       	mov	r30, r22
     92c:	69 83       	std	Y+1, r22	; 0x01
    digit_indices[1] = (year % 1000) / 100;
     92e:	04 e6       	ldi	r16, 0x64	; 100
     930:	10 e0       	ldi	r17, 0x00	; 0
     932:	b8 01       	movw	r22, r16
     934:	0e 94 12 0a 	call	0x1424	; 0x1424 <__divmodhi4>
     938:	6a 83       	std	Y+2, r22	; 0x02
    digit_indices[2] = (year % 100) / 10;
     93a:	c9 01       	movw	r24, r18
     93c:	b8 01       	movw	r22, r16
     93e:	0e 94 12 0a 	call	0x1424	; 0x1424 <__divmodhi4>
     942:	0a e0       	ldi	r16, 0x0A	; 10
     944:	10 e0       	ldi	r17, 0x00	; 0
     946:	b8 01       	movw	r22, r16
     948:	0e 94 12 0a 	call	0x1424	; 0x1424 <__divmodhi4>
     94c:	6b 83       	std	Y+3, r22	; 0x03
    digit_indices[3] = year % 10;
     94e:	c9 01       	movw	r24, r18
     950:	b8 01       	movw	r22, r16
     952:	0e 94 12 0a 	call	0x1424	; 0x1424 <__divmodhi4>
     956:	8c 83       	std	Y+4, r24	; 0x04

void seven_segment_set_decimal_point(uint8_t digit, uint8_t state)
{
    if (state)
    {
        display_data.enable_decimal_points[digit] = 1;
     958:	81 e0       	ldi	r24, 0x01	; 1
     95a:	80 93 68 01 	sts	0x0168, r24	; 0x800168 <display_data+0xd>
    }
    else
    {
        display_data.enable_decimal_points[digit] = 0;
     95e:	10 92 67 01 	sts	0x0167, r1	; 0x800167 <display_data+0xc>
     962:	10 92 66 01 	sts	0x0166, r1	; 0x800166 <display_data+0xb>
     966:	10 92 65 01 	sts	0x0165, r1	; 0x800165 <display_data+0xa>
     96a:	7e 01       	movw	r14, r28
     96c:	a2 e0       	ldi	r26, 0x02	; 2
     96e:	ea 0e       	add	r14, r26
     970:	f1 1c       	adc	r15, r1
     972:	10 e0       	ldi	r17, 0x00	; 0
    }
}

void seven_segment_write_digit_val_to_digit(uint8_t digit_index, uint8_t digit)
{
    seven_segment_write_byte_to_digit(digit_values[digit_index], digit);
     974:	f0 e0       	ldi	r31, 0x00	; 0
     976:	e0 50       	subi	r30, 0x00	; 0
     978:	ff 4f       	sbci	r31, 0xFF	; 255
     97a:	61 2f       	mov	r22, r17
     97c:	80 81       	ld	r24, Z
     97e:	0e 94 d2 02 	call	0x5a4	; 0x5a4 <seven_segment_write_byte_to_digit>
     982:	1f 5f       	subi	r17, 0xFF	; 255
}

void seven_segment_write_digit_vals(uint8_t digit_indices[4])
{
    for (int i = 0; i < 4; i++)
     984:	14 30       	cpi	r17, 0x04	; 4
     986:	21 f0       	breq	.+8      	; 0x990 <__stack+0x91>
     988:	d7 01       	movw	r26, r14
     98a:	ed 91       	ld	r30, X+
     98c:	7d 01       	movw	r14, r26
     98e:	f2 cf       	rjmp	.-28     	; 0x974 <__stack+0x75>
    seven_segment_set_decimal_point(3, 1);
    seven_segment_set_decimal_point(2, 0);
    seven_segment_set_decimal_point(1, 0);
    seven_segment_set_decimal_point(0, 0);
    seven_segment_write_digit_vals(digit_indices);
}
     990:	0f 90       	pop	r0
     992:	0f 90       	pop	r0
     994:	0f 90       	pop	r0
     996:	0f 90       	pop	r0
     998:	df 91       	pop	r29
     99a:	cf 91       	pop	r28
     99c:	1f 91       	pop	r17
     99e:	0f 91       	pop	r16
     9a0:	ff 90       	pop	r15
     9a2:	ef 90       	pop	r14
     9a4:	08 95       	ret

000009a6 <seven_segment_show_temperature>:

void seven_segment_show_temperature(float temperature_celsius)
{
     9a6:	af 92       	push	r10
     9a8:	bf 92       	push	r11
     9aa:	cf 92       	push	r12
     9ac:	df 92       	push	r13
     9ae:	ef 92       	push	r14
     9b0:	ff 92       	push	r15
     9b2:	0f 93       	push	r16
     9b4:	1f 93       	push	r17
     9b6:	cf 93       	push	r28
     9b8:	df 93       	push	r29
     9ba:	00 d0       	rcall	.+0      	; 0x9bc <seven_segment_show_temperature+0x16>
     9bc:	00 d0       	rcall	.+0      	; 0x9be <seven_segment_show_temperature+0x18>
     9be:	cd b7       	in	r28, 0x3d	; 61
     9c0:	de b7       	in	r29, 0x3e	; 62
     9c2:	6b 01       	movw	r12, r22
     9c4:	7c 01       	movw	r14, r24
    int16_t temperature_int;
    // 27.0C
    if (temperature_celsius < -40.)
     9c6:	20 e0       	ldi	r18, 0x00	; 0
     9c8:	30 e0       	ldi	r19, 0x00	; 0
     9ca:	40 e2       	ldi	r20, 0x20	; 32
     9cc:	52 ec       	ldi	r21, 0xC2	; 194
     9ce:	0e 94 54 0a 	call	0x14a8	; 0x14a8 <__cmpsf2>
     9d2:	87 fd       	sbrc	r24, 7
     9d4:	3a c0       	rjmp	.+116    	; 0xa4a <seven_segment_show_temperature+0xa4>
    {
        temperature_celsius = -40.;
    }
    else if (temperature_celsius > 125.)
     9d6:	20 e0       	ldi	r18, 0x00	; 0
     9d8:	30 e0       	ldi	r19, 0x00	; 0
     9da:	4a ef       	ldi	r20, 0xFA	; 250
     9dc:	52 e4       	ldi	r21, 0x42	; 66
     9de:	c7 01       	movw	r24, r14
     9e0:	b6 01       	movw	r22, r12
     9e2:	0e 94 dc 0a 	call	0x15b8	; 0x15b8 <__gesf2>
     9e6:	18 16       	cp	r1, r24
     9e8:	0c f4       	brge	.+2      	; 0x9ec <seven_segment_show_temperature+0x46>
     9ea:	7a c0       	rjmp	.+244    	; 0xae0 <seven_segment_show_temperature+0x13a>
    {
        temperature_celsius = 125.;
    }
    uint8_t digit_indices[4];
    // get tens digit
    if (temperature_celsius < 0.)
     9ec:	20 e0       	ldi	r18, 0x00	; 0
     9ee:	30 e0       	ldi	r19, 0x00	; 0
     9f0:	a9 01       	movw	r20, r18
     9f2:	c7 01       	movw	r24, r14
     9f4:	b6 01       	movw	r22, r12
     9f6:	0e 94 54 0a 	call	0x14a8	; 0x14a8 <__cmpsf2>
     9fa:	20 e0       	ldi	r18, 0x00	; 0
     9fc:	30 e0       	ldi	r19, 0x00	; 0
     9fe:	40 e2       	ldi	r20, 0x20	; 32
     a00:	51 ec       	ldi	r21, 0xC1	; 193
     a02:	87 fd       	sbrc	r24, 7
     a04:	04 c0       	rjmp	.+8      	; 0xa0e <seven_segment_show_temperature+0x68>
     a06:	20 e0       	ldi	r18, 0x00	; 0
     a08:	30 e0       	ldi	r19, 0x00	; 0
     a0a:	40 e2       	ldi	r20, 0x20	; 32
     a0c:	51 e4       	ldi	r21, 0x41	; 65
     a0e:	c7 01       	movw	r24, r14
     a10:	b6 01       	movw	r22, r12
     a12:	0e 94 e1 0a 	call	0x15c2	; 0x15c2 <__mulsf3>
     a16:	0e 94 59 0a 	call	0x14b2	; 0x14b2 <__fixsfsi>
     a1a:	8b 01       	movw	r16, r22
     a1c:	cb 01       	movw	r24, r22
     a1e:	64 e6       	ldi	r22, 0x64	; 100
     a20:	70 e0       	ldi	r23, 0x00	; 0
     a22:	0e 94 12 0a 	call	0x1424	; 0x1424 <__divmodhi4>
     a26:	fb 01       	movw	r30, r22
     a28:	36 2f       	mov	r19, r22
     a2a:	5a e0       	ldi	r21, 0x0A	; 10
     a2c:	a5 2e       	mov	r10, r21
     a2e:	b1 2c       	mov	r11, r1
     a30:	b5 01       	movw	r22, r10
     a32:	0e 94 12 0a 	call	0x1424	; 0x1424 <__divmodhi4>
     a36:	26 2f       	mov	r18, r22
     a38:	c8 01       	movw	r24, r16
     a3a:	b5 01       	movw	r22, r10
     a3c:	0e 94 12 0a 	call	0x1424	; 0x1424 <__divmodhi4>
     a40:	ff 27       	eor	r31, r31
     a42:	e0 50       	subi	r30, 0x00	; 0
     a44:	ff 4f       	sbci	r31, 0xFF	; 255
     a46:	00 81       	ld	r16, Z
     a48:	0a c0       	rjmp	.+20     	; 0xa5e <seven_segment_show_temperature+0xb8>
     a4a:	06 e6       	ldi	r16, 0x66	; 102
     a4c:	80 e0       	ldi	r24, 0x00	; 0
     a4e:	20 e0       	ldi	r18, 0x00	; 0
     a50:	34 e0       	ldi	r19, 0x04	; 4
{
    int16_t temperature_int;
    // 27.0C
    if (temperature_celsius < -40.)
    {
        temperature_celsius = -40.;
     a52:	c1 2c       	mov	r12, r1
     a54:	d1 2c       	mov	r13, r1
     a56:	40 e2       	ldi	r20, 0x20	; 32
     a58:	e4 2e       	mov	r14, r20
     a5a:	42 ec       	ldi	r20, 0xC2	; 194
     a5c:	f4 2e       	mov	r15, r20
    else
    {
        temperature_int = temperature_celsius * 10;
    }

    digit_indices[0] = temperature_int / 100;
     a5e:	39 83       	std	Y+1, r19	; 0x01
    // get ones digit
    digit_indices[1] = (temperature_int % 100) / 10;
     a60:	2a 83       	std	Y+2, r18	; 0x02

    // get tenths digit
    digit_indices[2] = (temperature_int % 10);
     a62:	8b 83       	std	Y+3, r24	; 0x03
    // ones digit gets decimal point
    // last digit get C for celsius
    digit_indices[3] = 0xc;
     a64:	8c e0       	ldi	r24, 0x0C	; 12
     a66:	8c 83       	std	Y+4, r24	; 0x04

void seven_segment_set_decimal_point(uint8_t digit, uint8_t state)
{
    if (state)
    {
        display_data.enable_decimal_points[digit] = 1;
     a68:	81 e0       	ldi	r24, 0x01	; 1
     a6a:	80 93 68 01 	sts	0x0168, r24	; 0x800168 <display_data+0xd>
    }
    else
    {
        display_data.enable_decimal_points[digit] = 0;
     a6e:	10 92 67 01 	sts	0x0167, r1	; 0x800167 <display_data+0xc>

void seven_segment_set_decimal_point(uint8_t digit, uint8_t state)
{
    if (state)
    {
        display_data.enable_decimal_points[digit] = 1;
     a72:	80 93 66 01 	sts	0x0166, r24	; 0x800166 <display_data+0xb>
    // decimal points
    seven_segment_set_decimal_point(3, 1);
    seven_segment_set_decimal_point(2, 0);
    seven_segment_set_decimal_point(1, 1);
    // if temperature sub zero, light up the 0th decimal point
    if (temperature_celsius < 0.)
     a76:	20 e0       	ldi	r18, 0x00	; 0
     a78:	30 e0       	ldi	r19, 0x00	; 0
     a7a:	a9 01       	movw	r20, r18
     a7c:	c7 01       	movw	r24, r14
     a7e:	b6 01       	movw	r22, r12
     a80:	0e 94 54 0a 	call	0x14a8	; 0x14a8 <__cmpsf2>
    {
        display_data.enable_decimal_points[digit] = 1;
    }
    else
    {
        display_data.enable_decimal_points[digit] = 0;
     a84:	88 1f       	adc	r24, r24
     a86:	88 27       	eor	r24, r24
     a88:	88 1f       	adc	r24, r24
     a8a:	80 93 65 01 	sts	0x0165, r24	; 0x800165 <display_data+0xa>
     a8e:	7e 01       	movw	r14, r28
     a90:	82 e0       	ldi	r24, 0x02	; 2
     a92:	e8 0e       	add	r14, r24
     a94:	f1 1c       	adc	r15, r1
    {
        temperature_celsius = -40.;
    }
    else if (temperature_celsius > 125.)
    {
        temperature_celsius = 125.;
     a96:	10 e0       	ldi	r17, 0x00	; 0
    }
}

void seven_segment_write_digit_val_to_digit(uint8_t digit_index, uint8_t digit)
{
    seven_segment_write_byte_to_digit(digit_values[digit_index], digit);
     a98:	61 2f       	mov	r22, r17
     a9a:	80 2f       	mov	r24, r16
     a9c:	0e 94 d2 02 	call	0x5a4	; 0x5a4 <seven_segment_write_byte_to_digit>
     aa0:	1f 5f       	subi	r17, 0xFF	; 255
}

void seven_segment_write_digit_vals(uint8_t digit_indices[4])
{
    for (int i = 0; i < 4; i++)
     aa2:	14 30       	cpi	r17, 0x04	; 4
     aa4:	71 f0       	breq	.+28     	; 0xac2 <seven_segment_show_temperature+0x11c>
     aa6:	d7 01       	movw	r26, r14
     aa8:	ed 91       	ld	r30, X+
     aaa:	7d 01       	movw	r14, r26
     aac:	f0 e0       	ldi	r31, 0x00	; 0
     aae:	e0 50       	subi	r30, 0x00	; 0
     ab0:	ff 4f       	sbci	r31, 0xFF	; 255
     ab2:	00 81       	ld	r16, Z
    }
}

void seven_segment_write_digit_val_to_digit(uint8_t digit_index, uint8_t digit)
{
    seven_segment_write_byte_to_digit(digit_values[digit_index], digit);
     ab4:	61 2f       	mov	r22, r17
     ab6:	80 2f       	mov	r24, r16
     ab8:	0e 94 d2 02 	call	0x5a4	; 0x5a4 <seven_segment_write_byte_to_digit>
     abc:	1f 5f       	subi	r17, 0xFF	; 255
}

void seven_segment_write_digit_vals(uint8_t digit_indices[4])
{
    for (int i = 0; i < 4; i++)
     abe:	14 30       	cpi	r17, 0x04	; 4
     ac0:	91 f7       	brne	.-28     	; 0xaa6 <seven_segment_show_temperature+0x100>
    {
        seven_segment_set_decimal_point(0, 0);
    }

    seven_segment_write_digit_vals(digit_indices);
}
     ac2:	0f 90       	pop	r0
     ac4:	0f 90       	pop	r0
     ac6:	0f 90       	pop	r0
     ac8:	0f 90       	pop	r0
     aca:	df 91       	pop	r29
     acc:	cf 91       	pop	r28
     ace:	1f 91       	pop	r17
     ad0:	0f 91       	pop	r16
     ad2:	ff 90       	pop	r15
     ad4:	ef 90       	pop	r14
     ad6:	df 90       	pop	r13
     ad8:	cf 90       	pop	r12
     ada:	bf 90       	pop	r11
     adc:	af 90       	pop	r10
     ade:	08 95       	ret
     ae0:	09 e3       	ldi	r16, 0x39	; 57
     ae2:	80 e0       	ldi	r24, 0x00	; 0
     ae4:	25 e0       	ldi	r18, 0x05	; 5
     ae6:	3c e0       	ldi	r19, 0x0C	; 12
    {
        temperature_celsius = -40.;
    }
    else if (temperature_celsius > 125.)
    {
        temperature_celsius = 125.;
     ae8:	c1 2c       	mov	r12, r1
     aea:	d1 2c       	mov	r13, r1
     aec:	9a ef       	ldi	r25, 0xFA	; 250
     aee:	e9 2e       	mov	r14, r25
     af0:	92 e4       	ldi	r25, 0x42	; 66
     af2:	f9 2e       	mov	r15, r25
     af4:	b4 cf       	rjmp	.-152    	; 0xa5e <seven_segment_show_temperature+0xb8>

00000af6 <seven_segment_show_humidity>:
     af6:	cf 92       	push	r12
     af8:	df 92       	push	r13
     afa:	ef 92       	push	r14
     afc:	ff 92       	push	r15
     afe:	0f 93       	push	r16
     b00:	1f 93       	push	r17
     b02:	cf 93       	push	r28
     b04:	df 93       	push	r29
     b06:	00 d0       	rcall	.+0      	; 0xb08 <seven_segment_show_humidity+0x12>
     b08:	00 d0       	rcall	.+0      	; 0xb0a <seven_segment_show_humidity+0x14>
     b0a:	cd b7       	in	r28, 0x3d	; 61
     b0c:	de b7       	in	r29, 0x3e	; 62
     b0e:	6b 01       	movw	r12, r22
     b10:	7c 01       	movw	r14, r24
     b12:	20 e0       	ldi	r18, 0x00	; 0
     b14:	30 e0       	ldi	r19, 0x00	; 0
     b16:	a9 01       	movw	r20, r18
     b18:	0e 94 54 0a 	call	0x14a8	; 0x14a8 <__cmpsf2>
     b1c:	87 fd       	sbrc	r24, 7
     b1e:	64 c0       	rjmp	.+200    	; 0xbe8 <seven_segment_show_humidity+0xf2>
     b20:	20 e0       	ldi	r18, 0x00	; 0
     b22:	30 e0       	ldi	r19, 0x00	; 0
     b24:	48 ec       	ldi	r20, 0xC8	; 200
     b26:	52 e4       	ldi	r21, 0x42	; 66
     b28:	c7 01       	movw	r24, r14
     b2a:	b6 01       	movw	r22, r12
     b2c:	0e 94 dc 0a 	call	0x15b8	; 0x15b8 <__gesf2>
     b30:	18 16       	cp	r1, r24
     b32:	0c f4       	brge	.+2      	; 0xb36 <seven_segment_show_humidity+0x40>
     b34:	54 c0       	rjmp	.+168    	; 0xbde <seven_segment_show_humidity+0xe8>
     b36:	20 e0       	ldi	r18, 0x00	; 0
     b38:	30 e0       	ldi	r19, 0x00	; 0
     b3a:	40 e2       	ldi	r20, 0x20	; 32
     b3c:	51 e4       	ldi	r21, 0x41	; 65
     b3e:	c7 01       	movw	r24, r14
     b40:	b6 01       	movw	r22, r12
     b42:	0e 94 e1 0a 	call	0x15c2	; 0x15c2 <__mulsf3>
     b46:	0e 94 59 0a 	call	0x14b2	; 0x14b2 <__fixsfsi>
     b4a:	7b 01       	movw	r14, r22
     b4c:	cb 01       	movw	r24, r22
     b4e:	64 e6       	ldi	r22, 0x64	; 100
     b50:	70 e0       	ldi	r23, 0x00	; 0
     b52:	0e 94 12 0a 	call	0x1424	; 0x1424 <__divmodhi4>
     b56:	fb 01       	movw	r30, r22
     b58:	36 2f       	mov	r19, r22
     b5a:	0a e0       	ldi	r16, 0x0A	; 10
     b5c:	10 e0       	ldi	r17, 0x00	; 0
     b5e:	b8 01       	movw	r22, r16
     b60:	0e 94 12 0a 	call	0x1424	; 0x1424 <__divmodhi4>
     b64:	26 2f       	mov	r18, r22
     b66:	c7 01       	movw	r24, r14
     b68:	b8 01       	movw	r22, r16
     b6a:	0e 94 12 0a 	call	0x1424	; 0x1424 <__divmodhi4>
     b6e:	98 2f       	mov	r25, r24
     b70:	ff 27       	eor	r31, r31
     b72:	e0 50       	subi	r30, 0x00	; 0
     b74:	ff 4f       	sbci	r31, 0xFF	; 255
     b76:	80 81       	ld	r24, Z
     b78:	39 83       	std	Y+1, r19	; 0x01
     b7a:	2a 83       	std	Y+2, r18	; 0x02
     b7c:	9b 83       	std	Y+3, r25	; 0x03
     b7e:	90 e1       	ldi	r25, 0x10	; 16
     b80:	9c 83       	std	Y+4, r25	; 0x04
     b82:	91 e0       	ldi	r25, 0x01	; 1
     b84:	90 93 68 01 	sts	0x0168, r25	; 0x800168 <display_data+0xd>
     b88:	10 92 67 01 	sts	0x0167, r1	; 0x800167 <display_data+0xc>
     b8c:	90 93 66 01 	sts	0x0166, r25	; 0x800166 <display_data+0xb>
     b90:	10 92 65 01 	sts	0x0165, r1	; 0x800165 <display_data+0xa>
     b94:	7e 01       	movw	r14, r28
     b96:	92 e0       	ldi	r25, 0x02	; 2
     b98:	e9 0e       	add	r14, r25
     b9a:	f1 1c       	adc	r15, r1
     b9c:	10 e0       	ldi	r17, 0x00	; 0
     b9e:	61 2f       	mov	r22, r17
     ba0:	0e 94 d2 02 	call	0x5a4	; 0x5a4 <seven_segment_write_byte_to_digit>
     ba4:	1f 5f       	subi	r17, 0xFF	; 255
     ba6:	14 30       	cpi	r17, 0x04	; 4
     ba8:	69 f0       	breq	.+26     	; 0xbc4 <seven_segment_show_humidity+0xce>
     baa:	d7 01       	movw	r26, r14
     bac:	ed 91       	ld	r30, X+
     bae:	7d 01       	movw	r14, r26
     bb0:	f0 e0       	ldi	r31, 0x00	; 0
     bb2:	e0 50       	subi	r30, 0x00	; 0
     bb4:	ff 4f       	sbci	r31, 0xFF	; 255
     bb6:	80 81       	ld	r24, Z
     bb8:	61 2f       	mov	r22, r17
     bba:	0e 94 d2 02 	call	0x5a4	; 0x5a4 <seven_segment_write_byte_to_digit>
     bbe:	1f 5f       	subi	r17, 0xFF	; 255
     bc0:	14 30       	cpi	r17, 0x04	; 4
     bc2:	99 f7       	brne	.-26     	; 0xbaa <seven_segment_show_humidity+0xb4>
     bc4:	0f 90       	pop	r0
     bc6:	0f 90       	pop	r0
     bc8:	0f 90       	pop	r0
     bca:	0f 90       	pop	r0
     bcc:	df 91       	pop	r29
     bce:	cf 91       	pop	r28
     bd0:	1f 91       	pop	r17
     bd2:	0f 91       	pop	r16
     bd4:	ff 90       	pop	r15
     bd6:	ef 90       	pop	r14
     bd8:	df 90       	pop	r13
     bda:	cf 90       	pop	r12
     bdc:	08 95       	ret
     bde:	87 e7       	ldi	r24, 0x77	; 119
     be0:	90 e0       	ldi	r25, 0x00	; 0
     be2:	20 e0       	ldi	r18, 0x00	; 0
     be4:	3a e0       	ldi	r19, 0x0A	; 10
     be6:	c8 cf       	rjmp	.-112    	; 0xb78 <seven_segment_show_humidity+0x82>
     be8:	8f e3       	ldi	r24, 0x3F	; 63
     bea:	90 e0       	ldi	r25, 0x00	; 0
     bec:	20 e0       	ldi	r18, 0x00	; 0
     bee:	30 e0       	ldi	r19, 0x00	; 0
     bf0:	c3 cf       	rjmp	.-122    	; 0xb78 <seven_segment_show_humidity+0x82>

00000bf2 <main>:

int main()
{
    millis_timer_init();
     bf2:	0e 94 70 01 	call	0x2e0	; 0x2e0 <millis_timer_init>
    seven_segment_init();
     bf6:	0e 94 c2 01 	call	0x384	; 0x384 <seven_segment_init>
    seven_segment_clear_all();
     bfa:	0e 94 b8 02 	call	0x570	; 0x570 <seven_segment_clear_all>
        /*
        display time with flashing colon for 10 seconds, changing
        the time at 5 seconds.
        */
        prev_millis1 = t_millis;
        hour = 19;
     bfe:	83 e1       	ldi	r24, 0x13	; 19
     c00:	28 2e       	mov	r2, r24
     c02:	31 2c       	mov	r3, r1
        {
            t_millis = get_millis();
            seven_segment_flashing_loop(t_millis);
            if (t_millis - prev_millis1 > 5000 && t_millis - prev_millis1 < 10000)
            {
                hour = 20;
     c04:	c4 e1       	ldi	r28, 0x14	; 20
     c06:	d0 e0       	ldi	r29, 0x00	; 0
        }
        seven_segment_flash_digits_minutes(0);
        seven_segment_set_colon(0);

        // display month and day for 5 seconds
        month = 7;
     c08:	07 e0       	ldi	r16, 0x07	; 7
     c0a:	10 e0       	ldi	r17, 0x00	; 0
            t_millis = get_millis();
        }
        seven_segment_flash_all_digits(0);

        // display temperature for 5 seconds
        temperature_celsius = 26.7;
     c0c:	9a e9       	ldi	r25, 0x9A	; 154
     c0e:	89 2e       	mov	r8, r25
     c10:	99 e9       	ldi	r25, 0x99	; 153
     c12:	99 2e       	mov	r9, r25
     c14:	95 ed       	ldi	r25, 0xD5	; 213
     c16:	a9 2e       	mov	r10, r25
     c18:	91 e4       	ldi	r25, 0x41	; 65
     c1a:	b9 2e       	mov	r11, r25
        prev_millis1 = t_millis;
        while (t_millis - prev_millis1 < 5000)
        {
            t_millis = get_millis();
        }
        temperature_celsius = -32.1;
     c1c:	26 e6       	ldi	r18, 0x66	; 102
     c1e:	c2 2e       	mov	r12, r18
     c20:	dc 2c       	mov	r13, r12
     c22:	e1 2c       	mov	r14, r1
     c24:	22 ec       	ldi	r18, 0xC2	; 194
     c26:	f2 2e       	mov	r15, r18

    // _delay_ms(2000);

    while (1)
    {
        t_millis = get_millis();
     c28:	0e 94 8a 01 	call	0x314	; 0x314 <get_millis>
     c2c:	60 93 30 01 	sts	0x0130, r22	; 0x800130 <t_millis>
     c30:	70 93 31 01 	sts	0x0131, r23	; 0x800131 <t_millis+0x1>
     c34:	80 93 32 01 	sts	0x0132, r24	; 0x800132 <t_millis+0x2>
     c38:	90 93 33 01 	sts	0x0133, r25	; 0x800133 <t_millis+0x3>
        /*
        display time with flashing colon for 10 seconds, changing
        the time at 5 seconds.
        */
        prev_millis1 = t_millis;
     c3c:	60 93 22 01 	sts	0x0122, r22	; 0x800122 <prev_millis1>
     c40:	70 93 23 01 	sts	0x0123, r23	; 0x800123 <prev_millis1+0x1>
     c44:	80 93 24 01 	sts	0x0124, r24	; 0x800124 <prev_millis1+0x2>
     c48:	90 93 25 01 	sts	0x0125, r25	; 0x800125 <prev_millis1+0x3>
        hour = 19;
     c4c:	30 92 27 01 	sts	0x0127, r3	; 0x800127 <hour+0x1>
     c50:	20 92 26 01 	sts	0x0126, r2	; 0x800126 <hour>
        minute = 59;
     c54:	2b e3       	ldi	r18, 0x3B	; 59
     c56:	30 e0       	ldi	r19, 0x00	; 0
     c58:	30 93 1d 01 	sts	0x011D, r19	; 0x80011d <minute+0x1>
     c5c:	20 93 1c 01 	sts	0x011C, r18	; 0x80011c <minute>
        seven_segment_show_hour_minute(hour, minute);
     c60:	6b e3       	ldi	r22, 0x3B	; 59
     c62:	83 e1       	ldi	r24, 0x13	; 19
     c64:	0e 94 bf 03 	call	0x77e	; 0x77e <seven_segment_show_hour_minute>
        seven_segment_flash_colon(1);
     c68:	81 e0       	ldi	r24, 0x01	; 1
     c6a:	0e 94 b3 03 	call	0x766	; 0x766 <seven_segment_flash_colon>
     c6e:	80 91 30 01 	lds	r24, 0x0130	; 0x800130 <t_millis>
     c72:	90 91 31 01 	lds	r25, 0x0131	; 0x800131 <t_millis+0x1>
     c76:	a0 91 32 01 	lds	r26, 0x0132	; 0x800132 <t_millis+0x2>
     c7a:	b0 91 33 01 	lds	r27, 0x0133	; 0x800133 <t_millis+0x3>
     c7e:	40 91 22 01 	lds	r20, 0x0122	; 0x800122 <prev_millis1>
     c82:	50 91 23 01 	lds	r21, 0x0123	; 0x800123 <prev_millis1+0x1>
     c86:	60 91 24 01 	lds	r22, 0x0124	; 0x800124 <prev_millis1+0x2>
     c8a:	70 91 25 01 	lds	r23, 0x0125	; 0x800125 <prev_millis1+0x3>
     c8e:	14 c0       	rjmp	.+40     	; 0xcb8 <main+0xc6>
            {
                hour = 20;
                minute = 00;
                seven_segment_show_hour_minute(hour, minute);
            }
            if (t_millis - prev_millis1 > 10000 && t_millis - prev_millis1 < 15000)
     c90:	2c 01       	movw	r4, r24
     c92:	3d 01       	movw	r6, r26
     c94:	31 e1       	ldi	r19, 0x11	; 17
     c96:	43 1a       	sub	r4, r19
     c98:	37 e2       	ldi	r19, 0x27	; 39
     c9a:	53 0a       	sbc	r5, r19
     c9c:	61 08       	sbc	r6, r1
     c9e:	71 08       	sbc	r7, r1
     ca0:	44 1a       	sub	r4, r20
     ca2:	55 0a       	sbc	r5, r21
     ca4:	66 0a       	sbc	r6, r22
     ca6:	77 0a       	sbc	r7, r23
     ca8:	27 e8       	ldi	r18, 0x87	; 135
     caa:	42 16       	cp	r4, r18
     cac:	23 e1       	ldi	r18, 0x13	; 19
     cae:	52 06       	cpc	r5, r18
     cb0:	61 04       	cpc	r6, r1
     cb2:	71 04       	cpc	r7, r1
     cb4:	08 f4       	brcc	.+2      	; 0xcb8 <main+0xc6>
     cb6:	93 c3       	rjmp	.+1830   	; 0x13de <main+0x7ec>
        prev_millis1 = t_millis;
        hour = 19;
        minute = 59;
        seven_segment_show_hour_minute(hour, minute);
        seven_segment_flash_colon(1);
        while (t_millis - prev_millis1 < 15000)
     cb8:	84 1b       	sub	r24, r20
     cba:	95 0b       	sbc	r25, r21
     cbc:	a6 0b       	sbc	r26, r22
     cbe:	b7 0b       	sbc	r27, r23
     cc0:	88 39       	cpi	r24, 0x98	; 152
     cc2:	9a 43       	sbci	r25, 0x3A	; 58
     cc4:	a1 05       	cpc	r26, r1
     cc6:	b1 05       	cpc	r27, r1
     cc8:	08 f0       	brcs	.+2      	; 0xccc <main+0xda>
     cca:	4d c0       	rjmp	.+154    	; 0xd66 <main+0x174>
        {
            t_millis = get_millis();
     ccc:	0e 94 8a 01 	call	0x314	; 0x314 <get_millis>
     cd0:	60 93 30 01 	sts	0x0130, r22	; 0x800130 <t_millis>
     cd4:	70 93 31 01 	sts	0x0131, r23	; 0x800131 <t_millis+0x1>
     cd8:	80 93 32 01 	sts	0x0132, r24	; 0x800132 <t_millis+0x2>
     cdc:	90 93 33 01 	sts	0x0133, r25	; 0x800133 <t_millis+0x3>
            seven_segment_flashing_loop(t_millis);
     ce0:	0e 94 2c 03 	call	0x658	; 0x658 <seven_segment_flashing_loop>
            if (t_millis - prev_millis1 > 5000 && t_millis - prev_millis1 < 10000)
     ce4:	80 91 30 01 	lds	r24, 0x0130	; 0x800130 <t_millis>
     ce8:	90 91 31 01 	lds	r25, 0x0131	; 0x800131 <t_millis+0x1>
     cec:	a0 91 32 01 	lds	r26, 0x0132	; 0x800132 <t_millis+0x2>
     cf0:	b0 91 33 01 	lds	r27, 0x0133	; 0x800133 <t_millis+0x3>
     cf4:	40 91 22 01 	lds	r20, 0x0122	; 0x800122 <prev_millis1>
     cf8:	50 91 23 01 	lds	r21, 0x0123	; 0x800123 <prev_millis1+0x1>
     cfc:	60 91 24 01 	lds	r22, 0x0124	; 0x800124 <prev_millis1+0x2>
     d00:	70 91 25 01 	lds	r23, 0x0125	; 0x800125 <prev_millis1+0x3>
     d04:	2c 01       	movw	r4, r24
     d06:	3d 01       	movw	r6, r26
     d08:	39 e8       	ldi	r19, 0x89	; 137
     d0a:	43 1a       	sub	r4, r19
     d0c:	33 e1       	ldi	r19, 0x13	; 19
     d0e:	53 0a       	sbc	r5, r19
     d10:	61 08       	sbc	r6, r1
     d12:	71 08       	sbc	r7, r1
     d14:	44 1a       	sub	r4, r20
     d16:	55 0a       	sbc	r5, r21
     d18:	66 0a       	sbc	r6, r22
     d1a:	77 0a       	sbc	r7, r23
     d1c:	27 e8       	ldi	r18, 0x87	; 135
     d1e:	42 16       	cp	r4, r18
     d20:	23 e1       	ldi	r18, 0x13	; 19
     d22:	52 06       	cpc	r5, r18
     d24:	61 04       	cpc	r6, r1
     d26:	71 04       	cpc	r7, r1
     d28:	08 f0       	brcs	.+2      	; 0xd2c <main+0x13a>
     d2a:	b2 cf       	rjmp	.-156    	; 0xc90 <main+0x9e>
            {
                hour = 20;
     d2c:	d0 93 27 01 	sts	0x0127, r29	; 0x800127 <hour+0x1>
     d30:	c0 93 26 01 	sts	0x0126, r28	; 0x800126 <hour>
                minute = 00;
     d34:	10 92 1d 01 	sts	0x011D, r1	; 0x80011d <minute+0x1>
     d38:	10 92 1c 01 	sts	0x011C, r1	; 0x80011c <minute>
                seven_segment_show_hour_minute(hour, minute);
     d3c:	60 e0       	ldi	r22, 0x00	; 0
     d3e:	84 e1       	ldi	r24, 0x14	; 20
     d40:	0e 94 bf 03 	call	0x77e	; 0x77e <seven_segment_show_hour_minute>
     d44:	80 91 30 01 	lds	r24, 0x0130	; 0x800130 <t_millis>
     d48:	90 91 31 01 	lds	r25, 0x0131	; 0x800131 <t_millis+0x1>
     d4c:	a0 91 32 01 	lds	r26, 0x0132	; 0x800132 <t_millis+0x2>
     d50:	b0 91 33 01 	lds	r27, 0x0133	; 0x800133 <t_millis+0x3>
     d54:	40 91 22 01 	lds	r20, 0x0122	; 0x800122 <prev_millis1>
     d58:	50 91 23 01 	lds	r21, 0x0123	; 0x800123 <prev_millis1+0x1>
     d5c:	60 91 24 01 	lds	r22, 0x0124	; 0x800124 <prev_millis1+0x2>
     d60:	70 91 25 01 	lds	r23, 0x0125	; 0x800125 <prev_millis1+0x3>
     d64:	95 cf       	rjmp	.-214    	; 0xc90 <main+0x9e>
                hour = 23;
                minute = 30;
                seven_segment_show_hour_minute(hour, minute);
            }
        }
        seven_segment_flash_colon(0);
     d66:	80 e0       	ldi	r24, 0x00	; 0
     d68:	0e 94 b3 03 	call	0x766	; 0x766 <seven_segment_flash_colon>
        seven_segment_set_colon(0);
     d6c:	80 e0       	ldi	r24, 0x00	; 0
     d6e:	0e 94 1d 03 	call	0x63a	; 0x63a <seven_segment_set_colon>

        /*
        flash hour digits
        */
        prev_millis1 = t_millis;
     d72:	80 91 30 01 	lds	r24, 0x0130	; 0x800130 <t_millis>
     d76:	90 91 31 01 	lds	r25, 0x0131	; 0x800131 <t_millis+0x1>
     d7a:	a0 91 32 01 	lds	r26, 0x0132	; 0x800132 <t_millis+0x2>
     d7e:	b0 91 33 01 	lds	r27, 0x0133	; 0x800133 <t_millis+0x3>
     d82:	80 93 22 01 	sts	0x0122, r24	; 0x800122 <prev_millis1>
     d86:	90 93 23 01 	sts	0x0123, r25	; 0x800123 <prev_millis1+0x1>
     d8a:	a0 93 24 01 	sts	0x0124, r26	; 0x800124 <prev_millis1+0x2>
     d8e:	b0 93 25 01 	sts	0x0125, r27	; 0x800125 <prev_millis1+0x3>
        hour = 19;
     d92:	30 92 27 01 	sts	0x0127, r3	; 0x800127 <hour+0x1>
     d96:	20 92 26 01 	sts	0x0126, r2	; 0x800126 <hour>
        minute = 59;
     d9a:	4b e3       	ldi	r20, 0x3B	; 59
     d9c:	50 e0       	ldi	r21, 0x00	; 0
     d9e:	50 93 1d 01 	sts	0x011D, r21	; 0x80011d <minute+0x1>
     da2:	40 93 1c 01 	sts	0x011C, r20	; 0x80011c <minute>
        seven_segment_show_hour_minute(hour, minute);
     da6:	6b e3       	ldi	r22, 0x3B	; 59
     da8:	83 e1       	ldi	r24, 0x13	; 19
     daa:	0e 94 bf 03 	call	0x77e	; 0x77e <seven_segment_show_hour_minute>
        seven_segment_flash_digits_hours(1);
     dae:	81 e0       	ldi	r24, 0x01	; 1
     db0:	0e 94 b9 03 	call	0x772	; 0x772 <seven_segment_flash_digits_hours>
        seven_segment_set_colon(1);
     db4:	81 e0       	ldi	r24, 0x01	; 1
     db6:	0e 94 1d 03 	call	0x63a	; 0x63a <seven_segment_set_colon>
     dba:	80 91 30 01 	lds	r24, 0x0130	; 0x800130 <t_millis>
     dbe:	90 91 31 01 	lds	r25, 0x0131	; 0x800131 <t_millis+0x1>
     dc2:	a0 91 32 01 	lds	r26, 0x0132	; 0x800132 <t_millis+0x2>
     dc6:	b0 91 33 01 	lds	r27, 0x0133	; 0x800133 <t_millis+0x3>
     dca:	40 90 22 01 	lds	r4, 0x0122	; 0x800122 <prev_millis1>
     dce:	50 90 23 01 	lds	r5, 0x0123	; 0x800123 <prev_millis1+0x1>
     dd2:	60 90 24 01 	lds	r6, 0x0124	; 0x800124 <prev_millis1+0x2>
     dd6:	70 90 25 01 	lds	r7, 0x0125	; 0x800125 <prev_millis1+0x3>
     dda:	2c c0       	rjmp	.+88     	; 0xe34 <main+0x242>
        while (t_millis - prev_millis1 < 10000)
        {
            t_millis = get_millis();
     ddc:	0e 94 8a 01 	call	0x314	; 0x314 <get_millis>
     de0:	60 93 30 01 	sts	0x0130, r22	; 0x800130 <t_millis>
     de4:	70 93 31 01 	sts	0x0131, r23	; 0x800131 <t_millis+0x1>
     de8:	80 93 32 01 	sts	0x0132, r24	; 0x800132 <t_millis+0x2>
     dec:	90 93 33 01 	sts	0x0133, r25	; 0x800133 <t_millis+0x3>
            seven_segment_flashing_loop(t_millis);
     df0:	0e 94 2c 03 	call	0x658	; 0x658 <seven_segment_flashing_loop>
            if (t_millis - prev_millis1 > 5000 && t_millis - prev_millis1 < 10000)
     df4:	80 91 30 01 	lds	r24, 0x0130	; 0x800130 <t_millis>
     df8:	90 91 31 01 	lds	r25, 0x0131	; 0x800131 <t_millis+0x1>
     dfc:	a0 91 32 01 	lds	r26, 0x0132	; 0x800132 <t_millis+0x2>
     e00:	b0 91 33 01 	lds	r27, 0x0133	; 0x800133 <t_millis+0x3>
     e04:	40 90 22 01 	lds	r4, 0x0122	; 0x800122 <prev_millis1>
     e08:	50 90 23 01 	lds	r5, 0x0123	; 0x800123 <prev_millis1+0x1>
     e0c:	60 90 24 01 	lds	r6, 0x0124	; 0x800124 <prev_millis1+0x2>
     e10:	70 90 25 01 	lds	r7, 0x0125	; 0x800125 <prev_millis1+0x3>
     e14:	ac 01       	movw	r20, r24
     e16:	bd 01       	movw	r22, r26
     e18:	49 58       	subi	r20, 0x89	; 137
     e1a:	53 41       	sbci	r21, 0x13	; 19
     e1c:	61 09       	sbc	r22, r1
     e1e:	71 09       	sbc	r23, r1
     e20:	44 19       	sub	r20, r4
     e22:	55 09       	sbc	r21, r5
     e24:	66 09       	sbc	r22, r6
     e26:	77 09       	sbc	r23, r7
     e28:	47 38       	cpi	r20, 0x87	; 135
     e2a:	53 41       	sbci	r21, 0x13	; 19
     e2c:	61 05       	cpc	r22, r1
     e2e:	71 05       	cpc	r23, r1
     e30:	08 f4       	brcc	.+2      	; 0xe34 <main+0x242>
     e32:	e6 c2       	rjmp	.+1484   	; 0x1400 <main+0x80e>
        hour = 19;
        minute = 59;
        seven_segment_show_hour_minute(hour, minute);
        seven_segment_flash_digits_hours(1);
        seven_segment_set_colon(1);
        while (t_millis - prev_millis1 < 10000)
     e34:	84 19       	sub	r24, r4
     e36:	95 09       	sbc	r25, r5
     e38:	a6 09       	sbc	r26, r6
     e3a:	b7 09       	sbc	r27, r7
     e3c:	80 31       	cpi	r24, 0x10	; 16
     e3e:	97 42       	sbci	r25, 0x27	; 39
     e40:	a1 05       	cpc	r26, r1
     e42:	b1 05       	cpc	r27, r1
     e44:	58 f2       	brcs	.-106    	; 0xddc <main+0x1ea>
                minute = 00;
                seven_segment_show_hour_minute(hour, minute);
                seven_segment_flash_digits_hours(1);
            }
        }
        seven_segment_flash_digits_hours(0);
     e46:	80 e0       	ldi	r24, 0x00	; 0
     e48:	0e 94 b9 03 	call	0x772	; 0x772 <seven_segment_flash_digits_hours>

        /*
        flash minute digits
        */
        prev_millis1 = t_millis;
     e4c:	80 91 30 01 	lds	r24, 0x0130	; 0x800130 <t_millis>
     e50:	90 91 31 01 	lds	r25, 0x0131	; 0x800131 <t_millis+0x1>
     e54:	a0 91 32 01 	lds	r26, 0x0132	; 0x800132 <t_millis+0x2>
     e58:	b0 91 33 01 	lds	r27, 0x0133	; 0x800133 <t_millis+0x3>
     e5c:	80 93 22 01 	sts	0x0122, r24	; 0x800122 <prev_millis1>
     e60:	90 93 23 01 	sts	0x0123, r25	; 0x800123 <prev_millis1+0x1>
     e64:	a0 93 24 01 	sts	0x0124, r26	; 0x800124 <prev_millis1+0x2>
     e68:	b0 93 25 01 	sts	0x0125, r27	; 0x800125 <prev_millis1+0x3>
        hour = 20;
     e6c:	84 e1       	ldi	r24, 0x14	; 20
     e6e:	90 e0       	ldi	r25, 0x00	; 0
     e70:	90 93 27 01 	sts	0x0127, r25	; 0x800127 <hour+0x1>
     e74:	80 93 26 01 	sts	0x0126, r24	; 0x800126 <hour>
        minute = 00;
     e78:	10 92 1d 01 	sts	0x011D, r1	; 0x80011d <minute+0x1>
     e7c:	10 92 1c 01 	sts	0x011C, r1	; 0x80011c <minute>
        seven_segment_show_hour_minute(hour, minute);
     e80:	60 e0       	ldi	r22, 0x00	; 0
     e82:	0e 94 bf 03 	call	0x77e	; 0x77e <seven_segment_show_hour_minute>
        seven_segment_flash_digits_minutes(1);
     e86:	81 e0       	ldi	r24, 0x01	; 1
     e88:	0e 94 b6 03 	call	0x76c	; 0x76c <seven_segment_flash_digits_minutes>
     e8c:	80 91 30 01 	lds	r24, 0x0130	; 0x800130 <t_millis>
     e90:	90 91 31 01 	lds	r25, 0x0131	; 0x800131 <t_millis+0x1>
     e94:	a0 91 32 01 	lds	r26, 0x0132	; 0x800132 <t_millis+0x2>
     e98:	b0 91 33 01 	lds	r27, 0x0133	; 0x800133 <t_millis+0x3>
     e9c:	40 90 22 01 	lds	r4, 0x0122	; 0x800122 <prev_millis1>
     ea0:	50 90 23 01 	lds	r5, 0x0123	; 0x800123 <prev_millis1+0x1>
     ea4:	60 90 24 01 	lds	r6, 0x0124	; 0x800124 <prev_millis1+0x2>
     ea8:	70 90 25 01 	lds	r7, 0x0125	; 0x800125 <prev_millis1+0x3>
     eac:	2c c0       	rjmp	.+88     	; 0xf06 <main+0x314>
        while (t_millis - prev_millis1 < 10000)
        {
            t_millis = get_millis();
     eae:	0e 94 8a 01 	call	0x314	; 0x314 <get_millis>
     eb2:	60 93 30 01 	sts	0x0130, r22	; 0x800130 <t_millis>
     eb6:	70 93 31 01 	sts	0x0131, r23	; 0x800131 <t_millis+0x1>
     eba:	80 93 32 01 	sts	0x0132, r24	; 0x800132 <t_millis+0x2>
     ebe:	90 93 33 01 	sts	0x0133, r25	; 0x800133 <t_millis+0x3>
            seven_segment_flashing_loop(t_millis);
     ec2:	0e 94 2c 03 	call	0x658	; 0x658 <seven_segment_flashing_loop>
            if (t_millis - prev_millis1 > 5000 && t_millis - prev_millis1 < 10000)
     ec6:	80 91 30 01 	lds	r24, 0x0130	; 0x800130 <t_millis>
     eca:	90 91 31 01 	lds	r25, 0x0131	; 0x800131 <t_millis+0x1>
     ece:	a0 91 32 01 	lds	r26, 0x0132	; 0x800132 <t_millis+0x2>
     ed2:	b0 91 33 01 	lds	r27, 0x0133	; 0x800133 <t_millis+0x3>
     ed6:	40 90 22 01 	lds	r4, 0x0122	; 0x800122 <prev_millis1>
     eda:	50 90 23 01 	lds	r5, 0x0123	; 0x800123 <prev_millis1+0x1>
     ede:	60 90 24 01 	lds	r6, 0x0124	; 0x800124 <prev_millis1+0x2>
     ee2:	70 90 25 01 	lds	r7, 0x0125	; 0x800125 <prev_millis1+0x3>
     ee6:	ac 01       	movw	r20, r24
     ee8:	bd 01       	movw	r22, r26
     eea:	49 58       	subi	r20, 0x89	; 137
     eec:	53 41       	sbci	r21, 0x13	; 19
     eee:	61 09       	sbc	r22, r1
     ef0:	71 09       	sbc	r23, r1
     ef2:	44 19       	sub	r20, r4
     ef4:	55 09       	sbc	r21, r5
     ef6:	66 09       	sbc	r22, r6
     ef8:	77 09       	sbc	r23, r7
     efa:	47 38       	cpi	r20, 0x87	; 135
     efc:	53 41       	sbci	r21, 0x13	; 19
     efe:	61 05       	cpc	r22, r1
     f00:	71 05       	cpc	r23, r1
     f02:	08 f4       	brcc	.+2      	; 0xf06 <main+0x314>
     f04:	58 c2       	rjmp	.+1200   	; 0x13b6 <main+0x7c4>
        prev_millis1 = t_millis;
        hour = 20;
        minute = 00;
        seven_segment_show_hour_minute(hour, minute);
        seven_segment_flash_digits_minutes(1);
        while (t_millis - prev_millis1 < 10000)
     f06:	84 19       	sub	r24, r4
     f08:	95 09       	sbc	r25, r5
     f0a:	a6 09       	sbc	r26, r6
     f0c:	b7 09       	sbc	r27, r7
     f0e:	80 31       	cpi	r24, 0x10	; 16
     f10:	97 42       	sbci	r25, 0x27	; 39
     f12:	a1 05       	cpc	r26, r1
     f14:	b1 05       	cpc	r27, r1
     f16:	58 f2       	brcs	.-106    	; 0xeae <main+0x2bc>
                minute = 30;
                seven_segment_show_hour_minute(hour, minute);
                seven_segment_flash_digits_minutes(1);
            }
        }
        seven_segment_flash_digits_minutes(0);
     f18:	80 e0       	ldi	r24, 0x00	; 0
     f1a:	0e 94 b6 03 	call	0x76c	; 0x76c <seven_segment_flash_digits_minutes>
        seven_segment_set_colon(0);
     f1e:	80 e0       	ldi	r24, 0x00	; 0
     f20:	0e 94 1d 03 	call	0x63a	; 0x63a <seven_segment_set_colon>

        // display month and day for 5 seconds
        month = 7;
     f24:	10 93 17 01 	sts	0x0117, r17	; 0x800117 <month+0x1>
     f28:	00 93 16 01 	sts	0x0116, r16	; 0x800116 <month>
        day = 2;
     f2c:	82 e0       	ldi	r24, 0x02	; 2
     f2e:	90 e0       	ldi	r25, 0x00	; 0
     f30:	90 93 2f 01 	sts	0x012F, r25	; 0x80012f <day+0x1>
     f34:	80 93 2e 01 	sts	0x012E, r24	; 0x80012e <day>
        seven_segment_show_month_day(month, day);
     f38:	62 e0       	ldi	r22, 0x02	; 2
     f3a:	87 e0       	ldi	r24, 0x07	; 7
     f3c:	0e 94 10 04 	call	0x820	; 0x820 <seven_segment_show_month_day>
        prev_millis1 = t_millis;
     f40:	80 91 30 01 	lds	r24, 0x0130	; 0x800130 <t_millis>
     f44:	90 91 31 01 	lds	r25, 0x0131	; 0x800131 <t_millis+0x1>
     f48:	a0 91 32 01 	lds	r26, 0x0132	; 0x800132 <t_millis+0x2>
     f4c:	b0 91 33 01 	lds	r27, 0x0133	; 0x800133 <t_millis+0x3>
     f50:	80 93 22 01 	sts	0x0122, r24	; 0x800122 <prev_millis1>
     f54:	90 93 23 01 	sts	0x0123, r25	; 0x800123 <prev_millis1+0x1>
     f58:	a0 93 24 01 	sts	0x0124, r26	; 0x800124 <prev_millis1+0x2>
     f5c:	b0 93 25 01 	sts	0x0125, r27	; 0x800125 <prev_millis1+0x3>
        while (t_millis - prev_millis1 < 5000)
        {
            t_millis = get_millis();
     f60:	0e 94 8a 01 	call	0x314	; 0x314 <get_millis>
     f64:	60 93 30 01 	sts	0x0130, r22	; 0x800130 <t_millis>
     f68:	70 93 31 01 	sts	0x0131, r23	; 0x800131 <t_millis+0x1>
     f6c:	80 93 32 01 	sts	0x0132, r24	; 0x800132 <t_millis+0x2>
     f70:	90 93 33 01 	sts	0x0133, r25	; 0x800133 <t_millis+0x3>
        // display month and day for 5 seconds
        month = 7;
        day = 2;
        seven_segment_show_month_day(month, day);
        prev_millis1 = t_millis;
        while (t_millis - prev_millis1 < 5000)
     f74:	40 90 22 01 	lds	r4, 0x0122	; 0x800122 <prev_millis1>
     f78:	50 90 23 01 	lds	r5, 0x0123	; 0x800123 <prev_millis1+0x1>
     f7c:	60 90 24 01 	lds	r6, 0x0124	; 0x800124 <prev_millis1+0x2>
     f80:	70 90 25 01 	lds	r7, 0x0125	; 0x800125 <prev_millis1+0x3>
     f84:	64 19       	sub	r22, r4
     f86:	75 09       	sbc	r23, r5
     f88:	86 09       	sbc	r24, r6
     f8a:	97 09       	sbc	r25, r7
     f8c:	68 38       	cpi	r22, 0x88	; 136
     f8e:	73 41       	sbci	r23, 0x13	; 19
     f90:	81 05       	cpc	r24, r1
     f92:	91 05       	cpc	r25, r1
     f94:	28 f3       	brcs	.-54     	; 0xf60 <main+0x36e>
        }

        /*
        flash month digits
        */
        month = 7;
     f96:	10 93 17 01 	sts	0x0117, r17	; 0x800117 <month+0x1>
     f9a:	00 93 16 01 	sts	0x0116, r16	; 0x800116 <month>
        day = 3;
     f9e:	83 e0       	ldi	r24, 0x03	; 3
     fa0:	90 e0       	ldi	r25, 0x00	; 0
     fa2:	90 93 2f 01 	sts	0x012F, r25	; 0x80012f <day+0x1>
     fa6:	80 93 2e 01 	sts	0x012E, r24	; 0x80012e <day>
        seven_segment_show_month_day(month, day);
     faa:	63 e0       	ldi	r22, 0x03	; 3
     fac:	87 e0       	ldi	r24, 0x07	; 7
     fae:	0e 94 10 04 	call	0x820	; 0x820 <seven_segment_show_month_day>
        seven_segment_flash_digits_hours(1);
     fb2:	81 e0       	ldi	r24, 0x01	; 1
     fb4:	0e 94 b9 03 	call	0x772	; 0x772 <seven_segment_flash_digits_hours>
        prev_millis1 = t_millis;
     fb8:	80 91 30 01 	lds	r24, 0x0130	; 0x800130 <t_millis>
     fbc:	90 91 31 01 	lds	r25, 0x0131	; 0x800131 <t_millis+0x1>
     fc0:	a0 91 32 01 	lds	r26, 0x0132	; 0x800132 <t_millis+0x2>
     fc4:	b0 91 33 01 	lds	r27, 0x0133	; 0x800133 <t_millis+0x3>
     fc8:	80 93 22 01 	sts	0x0122, r24	; 0x800122 <prev_millis1>
     fcc:	90 93 23 01 	sts	0x0123, r25	; 0x800123 <prev_millis1+0x1>
     fd0:	a0 93 24 01 	sts	0x0124, r26	; 0x800124 <prev_millis1+0x2>
     fd4:	b0 93 25 01 	sts	0x0125, r27	; 0x800125 <prev_millis1+0x3>
        while (t_millis - prev_millis1 < 5000)
        {
            t_millis = get_millis();
     fd8:	0e 94 8a 01 	call	0x314	; 0x314 <get_millis>
     fdc:	60 93 30 01 	sts	0x0130, r22	; 0x800130 <t_millis>
     fe0:	70 93 31 01 	sts	0x0131, r23	; 0x800131 <t_millis+0x1>
     fe4:	80 93 32 01 	sts	0x0132, r24	; 0x800132 <t_millis+0x2>
     fe8:	90 93 33 01 	sts	0x0133, r25	; 0x800133 <t_millis+0x3>
            seven_segment_flashing_loop(t_millis);
     fec:	0e 94 2c 03 	call	0x658	; 0x658 <seven_segment_flashing_loop>
        month = 7;
        day = 3;
        seven_segment_show_month_day(month, day);
        seven_segment_flash_digits_hours(1);
        prev_millis1 = t_millis;
        while (t_millis - prev_millis1 < 5000)
     ff0:	80 91 30 01 	lds	r24, 0x0130	; 0x800130 <t_millis>
     ff4:	90 91 31 01 	lds	r25, 0x0131	; 0x800131 <t_millis+0x1>
     ff8:	a0 91 32 01 	lds	r26, 0x0132	; 0x800132 <t_millis+0x2>
     ffc:	b0 91 33 01 	lds	r27, 0x0133	; 0x800133 <t_millis+0x3>
    1000:	40 91 22 01 	lds	r20, 0x0122	; 0x800122 <prev_millis1>
    1004:	50 91 23 01 	lds	r21, 0x0123	; 0x800123 <prev_millis1+0x1>
    1008:	60 91 24 01 	lds	r22, 0x0124	; 0x800124 <prev_millis1+0x2>
    100c:	70 91 25 01 	lds	r23, 0x0125	; 0x800125 <prev_millis1+0x3>
    1010:	84 1b       	sub	r24, r20
    1012:	95 0b       	sbc	r25, r21
    1014:	a6 0b       	sbc	r26, r22
    1016:	b7 0b       	sbc	r27, r23
    1018:	88 38       	cpi	r24, 0x88	; 136
    101a:	93 41       	sbci	r25, 0x13	; 19
    101c:	a1 05       	cpc	r26, r1
    101e:	b1 05       	cpc	r27, r1
    1020:	d8 f2       	brcs	.-74     	; 0xfd8 <main+0x3e6>
        {
            t_millis = get_millis();
            seven_segment_flashing_loop(t_millis);
        }
        seven_segment_flash_digits_hours(0);
    1022:	80 e0       	ldi	r24, 0x00	; 0
    1024:	0e 94 b9 03 	call	0x772	; 0x772 <seven_segment_flash_digits_hours>

        /*
        flash day digits
        */
        month = 7;
    1028:	10 93 17 01 	sts	0x0117, r17	; 0x800117 <month+0x1>
    102c:	00 93 16 01 	sts	0x0116, r16	; 0x800116 <month>
        day = 4;
    1030:	84 e0       	ldi	r24, 0x04	; 4
    1032:	90 e0       	ldi	r25, 0x00	; 0
    1034:	90 93 2f 01 	sts	0x012F, r25	; 0x80012f <day+0x1>
    1038:	80 93 2e 01 	sts	0x012E, r24	; 0x80012e <day>
        seven_segment_show_month_day(month, day);
    103c:	64 e0       	ldi	r22, 0x04	; 4
    103e:	87 e0       	ldi	r24, 0x07	; 7
    1040:	0e 94 10 04 	call	0x820	; 0x820 <seven_segment_show_month_day>
        seven_segment_flash_digits_minutes(1);
    1044:	81 e0       	ldi	r24, 0x01	; 1
    1046:	0e 94 b6 03 	call	0x76c	; 0x76c <seven_segment_flash_digits_minutes>
        prev_millis1 = t_millis;
    104a:	80 91 30 01 	lds	r24, 0x0130	; 0x800130 <t_millis>
    104e:	90 91 31 01 	lds	r25, 0x0131	; 0x800131 <t_millis+0x1>
    1052:	a0 91 32 01 	lds	r26, 0x0132	; 0x800132 <t_millis+0x2>
    1056:	b0 91 33 01 	lds	r27, 0x0133	; 0x800133 <t_millis+0x3>
    105a:	80 93 22 01 	sts	0x0122, r24	; 0x800122 <prev_millis1>
    105e:	90 93 23 01 	sts	0x0123, r25	; 0x800123 <prev_millis1+0x1>
    1062:	a0 93 24 01 	sts	0x0124, r26	; 0x800124 <prev_millis1+0x2>
    1066:	b0 93 25 01 	sts	0x0125, r27	; 0x800125 <prev_millis1+0x3>
        while (t_millis - prev_millis1 < 5000)
        {
            t_millis = get_millis();
    106a:	0e 94 8a 01 	call	0x314	; 0x314 <get_millis>
    106e:	60 93 30 01 	sts	0x0130, r22	; 0x800130 <t_millis>
    1072:	70 93 31 01 	sts	0x0131, r23	; 0x800131 <t_millis+0x1>
    1076:	80 93 32 01 	sts	0x0132, r24	; 0x800132 <t_millis+0x2>
    107a:	90 93 33 01 	sts	0x0133, r25	; 0x800133 <t_millis+0x3>
            seven_segment_flashing_loop(t_millis);
    107e:	0e 94 2c 03 	call	0x658	; 0x658 <seven_segment_flashing_loop>
        month = 7;
        day = 4;
        seven_segment_show_month_day(month, day);
        seven_segment_flash_digits_minutes(1);
        prev_millis1 = t_millis;
        while (t_millis - prev_millis1 < 5000)
    1082:	80 91 30 01 	lds	r24, 0x0130	; 0x800130 <t_millis>
    1086:	90 91 31 01 	lds	r25, 0x0131	; 0x800131 <t_millis+0x1>
    108a:	a0 91 32 01 	lds	r26, 0x0132	; 0x800132 <t_millis+0x2>
    108e:	b0 91 33 01 	lds	r27, 0x0133	; 0x800133 <t_millis+0x3>
    1092:	40 91 22 01 	lds	r20, 0x0122	; 0x800122 <prev_millis1>
    1096:	50 91 23 01 	lds	r21, 0x0123	; 0x800123 <prev_millis1+0x1>
    109a:	60 91 24 01 	lds	r22, 0x0124	; 0x800124 <prev_millis1+0x2>
    109e:	70 91 25 01 	lds	r23, 0x0125	; 0x800125 <prev_millis1+0x3>
    10a2:	84 1b       	sub	r24, r20
    10a4:	95 0b       	sbc	r25, r21
    10a6:	a6 0b       	sbc	r26, r22
    10a8:	b7 0b       	sbc	r27, r23
    10aa:	88 38       	cpi	r24, 0x88	; 136
    10ac:	93 41       	sbci	r25, 0x13	; 19
    10ae:	a1 05       	cpc	r26, r1
    10b0:	b1 05       	cpc	r27, r1
    10b2:	d8 f2       	brcs	.-74     	; 0x106a <main+0x478>
        {
            t_millis = get_millis();
            seven_segment_flashing_loop(t_millis);
        }
        seven_segment_flash_digits_minutes(0);
    10b4:	80 e0       	ldi	r24, 0x00	; 0
    10b6:	0e 94 b6 03 	call	0x76c	; 0x76c <seven_segment_flash_digits_minutes>

        // display year for 5 seconds
        year = 2026;
    10ba:	8a ee       	ldi	r24, 0xEA	; 234
    10bc:	97 e0       	ldi	r25, 0x07	; 7
    10be:	90 93 2d 01 	sts	0x012D, r25	; 0x80012d <year+0x1>
    10c2:	80 93 2c 01 	sts	0x012C, r24	; 0x80012c <year>
        seven_segment_show_year(year);
    10c6:	0e 94 7f 04 	call	0x8fe	; 0x8fe <seven_segment_show_year>
        prev_millis1 = t_millis;
    10ca:	80 91 30 01 	lds	r24, 0x0130	; 0x800130 <t_millis>
    10ce:	90 91 31 01 	lds	r25, 0x0131	; 0x800131 <t_millis+0x1>
    10d2:	a0 91 32 01 	lds	r26, 0x0132	; 0x800132 <t_millis+0x2>
    10d6:	b0 91 33 01 	lds	r27, 0x0133	; 0x800133 <t_millis+0x3>
    10da:	80 93 22 01 	sts	0x0122, r24	; 0x800122 <prev_millis1>
    10de:	90 93 23 01 	sts	0x0123, r25	; 0x800123 <prev_millis1+0x1>
    10e2:	a0 93 24 01 	sts	0x0124, r26	; 0x800124 <prev_millis1+0x2>
    10e6:	b0 93 25 01 	sts	0x0125, r27	; 0x800125 <prev_millis1+0x3>
        while (t_millis - prev_millis1 < 5000)
        {
            t_millis = get_millis();
    10ea:	0e 94 8a 01 	call	0x314	; 0x314 <get_millis>
    10ee:	60 93 30 01 	sts	0x0130, r22	; 0x800130 <t_millis>
    10f2:	70 93 31 01 	sts	0x0131, r23	; 0x800131 <t_millis+0x1>
    10f6:	80 93 32 01 	sts	0x0132, r24	; 0x800132 <t_millis+0x2>
    10fa:	90 93 33 01 	sts	0x0133, r25	; 0x800133 <t_millis+0x3>

        // display year for 5 seconds
        year = 2026;
        seven_segment_show_year(year);
        prev_millis1 = t_millis;
        while (t_millis - prev_millis1 < 5000)
    10fe:	40 90 22 01 	lds	r4, 0x0122	; 0x800122 <prev_millis1>
    1102:	50 90 23 01 	lds	r5, 0x0123	; 0x800123 <prev_millis1+0x1>
    1106:	60 90 24 01 	lds	r6, 0x0124	; 0x800124 <prev_millis1+0x2>
    110a:	70 90 25 01 	lds	r7, 0x0125	; 0x800125 <prev_millis1+0x3>
    110e:	64 19       	sub	r22, r4
    1110:	75 09       	sbc	r23, r5
    1112:	86 09       	sbc	r24, r6
    1114:	97 09       	sbc	r25, r7
    1116:	68 38       	cpi	r22, 0x88	; 136
    1118:	73 41       	sbci	r23, 0x13	; 19
    111a:	81 05       	cpc	r24, r1
    111c:	91 05       	cpc	r25, r1
    111e:	28 f3       	brcs	.-54     	; 0x10ea <main+0x4f8>
        }

        /*
        flash year digits
        */
        year = 2026;
    1120:	2a ee       	ldi	r18, 0xEA	; 234
    1122:	37 e0       	ldi	r19, 0x07	; 7
    1124:	30 93 2d 01 	sts	0x012D, r19	; 0x80012d <year+0x1>
    1128:	20 93 2c 01 	sts	0x012C, r18	; 0x80012c <year>
        seven_segment_show_year(year);
    112c:	8a ee       	ldi	r24, 0xEA	; 234
    112e:	97 e0       	ldi	r25, 0x07	; 7
    1130:	0e 94 7f 04 	call	0x8fe	; 0x8fe <seven_segment_show_year>
        seven_segment_flash_all_digits(1);
    1134:	81 e0       	ldi	r24, 0x01	; 1
    1136:	0e 94 bc 03 	call	0x778	; 0x778 <seven_segment_flash_all_digits>
        prev_millis1 = t_millis;
    113a:	60 91 30 01 	lds	r22, 0x0130	; 0x800130 <t_millis>
    113e:	70 91 31 01 	lds	r23, 0x0131	; 0x800131 <t_millis+0x1>
    1142:	80 91 32 01 	lds	r24, 0x0132	; 0x800132 <t_millis+0x2>
    1146:	90 91 33 01 	lds	r25, 0x0133	; 0x800133 <t_millis+0x3>
    114a:	60 93 22 01 	sts	0x0122, r22	; 0x800122 <prev_millis1>
    114e:	70 93 23 01 	sts	0x0123, r23	; 0x800123 <prev_millis1+0x1>
    1152:	80 93 24 01 	sts	0x0124, r24	; 0x800124 <prev_millis1+0x2>
    1156:	90 93 25 01 	sts	0x0125, r25	; 0x800125 <prev_millis1+0x3>
        while (t_millis - prev_millis1 < 5000)
        {
            seven_segment_flashing_loop(t_millis);
    115a:	0e 94 2c 03 	call	0x658	; 0x658 <seven_segment_flashing_loop>
            t_millis = get_millis();
    115e:	0e 94 8a 01 	call	0x314	; 0x314 <get_millis>
    1162:	60 93 30 01 	sts	0x0130, r22	; 0x800130 <t_millis>
    1166:	70 93 31 01 	sts	0x0131, r23	; 0x800131 <t_millis+0x1>
    116a:	80 93 32 01 	sts	0x0132, r24	; 0x800132 <t_millis+0x2>
    116e:	90 93 33 01 	sts	0x0133, r25	; 0x800133 <t_millis+0x3>
        */
        year = 2026;
        seven_segment_show_year(year);
        seven_segment_flash_all_digits(1);
        prev_millis1 = t_millis;
        while (t_millis - prev_millis1 < 5000)
    1172:	40 90 22 01 	lds	r4, 0x0122	; 0x800122 <prev_millis1>
    1176:	50 90 23 01 	lds	r5, 0x0123	; 0x800123 <prev_millis1+0x1>
    117a:	60 90 24 01 	lds	r6, 0x0124	; 0x800124 <prev_millis1+0x2>
    117e:	70 90 25 01 	lds	r7, 0x0125	; 0x800125 <prev_millis1+0x3>
    1182:	9b 01       	movw	r18, r22
    1184:	ac 01       	movw	r20, r24
    1186:	24 19       	sub	r18, r4
    1188:	35 09       	sbc	r19, r5
    118a:	46 09       	sbc	r20, r6
    118c:	57 09       	sbc	r21, r7
    118e:	29 01       	movw	r4, r18
    1190:	3a 01       	movw	r6, r20
    1192:	38 e8       	ldi	r19, 0x88	; 136
    1194:	43 16       	cp	r4, r19
    1196:	33 e1       	ldi	r19, 0x13	; 19
    1198:	53 06       	cpc	r5, r19
    119a:	61 04       	cpc	r6, r1
    119c:	71 04       	cpc	r7, r1
    119e:	e8 f2       	brcs	.-70     	; 0x115a <main+0x568>
        {
            seven_segment_flashing_loop(t_millis);
            t_millis = get_millis();
        }
        seven_segment_flash_all_digits(0);
    11a0:	80 e0       	ldi	r24, 0x00	; 0
    11a2:	0e 94 bc 03 	call	0x778	; 0x778 <seven_segment_flash_all_digits>

        // display temperature for 5 seconds
        temperature_celsius = 26.7;
    11a6:	80 92 18 01 	sts	0x0118, r8	; 0x800118 <temperature_celsius>
    11aa:	90 92 19 01 	sts	0x0119, r9	; 0x800119 <temperature_celsius+0x1>
    11ae:	a0 92 1a 01 	sts	0x011A, r10	; 0x80011a <temperature_celsius+0x2>
    11b2:	b0 92 1b 01 	sts	0x011B, r11	; 0x80011b <temperature_celsius+0x3>
        seven_segment_show_temperature(temperature_celsius);
    11b6:	6a e9       	ldi	r22, 0x9A	; 154
    11b8:	79 e9       	ldi	r23, 0x99	; 153
    11ba:	85 ed       	ldi	r24, 0xD5	; 213
    11bc:	91 e4       	ldi	r25, 0x41	; 65
    11be:	0e 94 d3 04 	call	0x9a6	; 0x9a6 <seven_segment_show_temperature>
        prev_millis1 = t_millis;
    11c2:	80 91 30 01 	lds	r24, 0x0130	; 0x800130 <t_millis>
    11c6:	90 91 31 01 	lds	r25, 0x0131	; 0x800131 <t_millis+0x1>
    11ca:	a0 91 32 01 	lds	r26, 0x0132	; 0x800132 <t_millis+0x2>
    11ce:	b0 91 33 01 	lds	r27, 0x0133	; 0x800133 <t_millis+0x3>
    11d2:	80 93 22 01 	sts	0x0122, r24	; 0x800122 <prev_millis1>
    11d6:	90 93 23 01 	sts	0x0123, r25	; 0x800123 <prev_millis1+0x1>
    11da:	a0 93 24 01 	sts	0x0124, r26	; 0x800124 <prev_millis1+0x2>
    11de:	b0 93 25 01 	sts	0x0125, r27	; 0x800125 <prev_millis1+0x3>
        while (t_millis - prev_millis1 < 5000)
        {
            t_millis = get_millis();
    11e2:	0e 94 8a 01 	call	0x314	; 0x314 <get_millis>
    11e6:	60 93 30 01 	sts	0x0130, r22	; 0x800130 <t_millis>
    11ea:	70 93 31 01 	sts	0x0131, r23	; 0x800131 <t_millis+0x1>
    11ee:	80 93 32 01 	sts	0x0132, r24	; 0x800132 <t_millis+0x2>
    11f2:	90 93 33 01 	sts	0x0133, r25	; 0x800133 <t_millis+0x3>

        // display temperature for 5 seconds
        temperature_celsius = 26.7;
        seven_segment_show_temperature(temperature_celsius);
        prev_millis1 = t_millis;
        while (t_millis - prev_millis1 < 5000)
    11f6:	40 90 22 01 	lds	r4, 0x0122	; 0x800122 <prev_millis1>
    11fa:	50 90 23 01 	lds	r5, 0x0123	; 0x800123 <prev_millis1+0x1>
    11fe:	60 90 24 01 	lds	r6, 0x0124	; 0x800124 <prev_millis1+0x2>
    1202:	70 90 25 01 	lds	r7, 0x0125	; 0x800125 <prev_millis1+0x3>
    1206:	64 19       	sub	r22, r4
    1208:	75 09       	sbc	r23, r5
    120a:	86 09       	sbc	r24, r6
    120c:	97 09       	sbc	r25, r7
    120e:	68 38       	cpi	r22, 0x88	; 136
    1210:	73 41       	sbci	r23, 0x13	; 19
    1212:	81 05       	cpc	r24, r1
    1214:	91 05       	cpc	r25, r1
    1216:	28 f3       	brcs	.-54     	; 0x11e2 <main+0x5f0>
        {
            t_millis = get_millis();
        }
        temperature_celsius = -32.1;
    1218:	c0 92 18 01 	sts	0x0118, r12	; 0x800118 <temperature_celsius>
    121c:	d0 92 19 01 	sts	0x0119, r13	; 0x800119 <temperature_celsius+0x1>
    1220:	e0 92 1a 01 	sts	0x011A, r14	; 0x80011a <temperature_celsius+0x2>
    1224:	f0 92 1b 01 	sts	0x011B, r15	; 0x80011b <temperature_celsius+0x3>
        seven_segment_show_temperature(temperature_celsius);
    1228:	66 e6       	ldi	r22, 0x66	; 102
    122a:	76 e6       	ldi	r23, 0x66	; 102
    122c:	80 e0       	ldi	r24, 0x00	; 0
    122e:	92 ec       	ldi	r25, 0xC2	; 194
    1230:	0e 94 d3 04 	call	0x9a6	; 0x9a6 <seven_segment_show_temperature>
        prev_millis1 = t_millis;
    1234:	80 91 30 01 	lds	r24, 0x0130	; 0x800130 <t_millis>
    1238:	90 91 31 01 	lds	r25, 0x0131	; 0x800131 <t_millis+0x1>
    123c:	a0 91 32 01 	lds	r26, 0x0132	; 0x800132 <t_millis+0x2>
    1240:	b0 91 33 01 	lds	r27, 0x0133	; 0x800133 <t_millis+0x3>
    1244:	80 93 22 01 	sts	0x0122, r24	; 0x800122 <prev_millis1>
    1248:	90 93 23 01 	sts	0x0123, r25	; 0x800123 <prev_millis1+0x1>
    124c:	a0 93 24 01 	sts	0x0124, r26	; 0x800124 <prev_millis1+0x2>
    1250:	b0 93 25 01 	sts	0x0125, r27	; 0x800125 <prev_millis1+0x3>
        while (t_millis - prev_millis1 < 5000)
        {
            t_millis = get_millis();
    1254:	0e 94 8a 01 	call	0x314	; 0x314 <get_millis>
    1258:	60 93 30 01 	sts	0x0130, r22	; 0x800130 <t_millis>
    125c:	70 93 31 01 	sts	0x0131, r23	; 0x800131 <t_millis+0x1>
    1260:	80 93 32 01 	sts	0x0132, r24	; 0x800132 <t_millis+0x2>
    1264:	90 93 33 01 	sts	0x0133, r25	; 0x800133 <t_millis+0x3>
            t_millis = get_millis();
        }
        temperature_celsius = -32.1;
        seven_segment_show_temperature(temperature_celsius);
        prev_millis1 = t_millis;
        while (t_millis - prev_millis1 < 5000)
    1268:	40 90 22 01 	lds	r4, 0x0122	; 0x800122 <prev_millis1>
    126c:	50 90 23 01 	lds	r5, 0x0123	; 0x800123 <prev_millis1+0x1>
    1270:	60 90 24 01 	lds	r6, 0x0124	; 0x800124 <prev_millis1+0x2>
    1274:	70 90 25 01 	lds	r7, 0x0125	; 0x800125 <prev_millis1+0x3>
    1278:	64 19       	sub	r22, r4
    127a:	75 09       	sbc	r23, r5
    127c:	86 09       	sbc	r24, r6
    127e:	97 09       	sbc	r25, r7
    1280:	68 38       	cpi	r22, 0x88	; 136
    1282:	73 41       	sbci	r23, 0x13	; 19
    1284:	81 05       	cpc	r24, r1
    1286:	91 05       	cpc	r25, r1
    1288:	28 f3       	brcs	.-54     	; 0x1254 <main+0x662>
        {
            t_millis = get_millis();
        }

        // display humidity for 5 seconds
        humidity = 67.8;
    128a:	8a e9       	ldi	r24, 0x9A	; 154
    128c:	99 e9       	ldi	r25, 0x99	; 153
    128e:	a7 e8       	ldi	r26, 0x87	; 135
    1290:	b2 e4       	ldi	r27, 0x42	; 66
    1292:	80 93 1e 01 	sts	0x011E, r24	; 0x80011e <humidity>
    1296:	90 93 1f 01 	sts	0x011F, r25	; 0x80011f <humidity+0x1>
    129a:	a0 93 20 01 	sts	0x0120, r26	; 0x800120 <humidity+0x2>
    129e:	b0 93 21 01 	sts	0x0121, r27	; 0x800121 <humidity+0x3>
        seven_segment_show_humidity(humidity);
    12a2:	bc 01       	movw	r22, r24
    12a4:	cd 01       	movw	r24, r26
    12a6:	0e 94 7b 05 	call	0xaf6	; 0xaf6 <seven_segment_show_humidity>
        prev_millis1 = t_millis;
    12aa:	80 91 30 01 	lds	r24, 0x0130	; 0x800130 <t_millis>
    12ae:	90 91 31 01 	lds	r25, 0x0131	; 0x800131 <t_millis+0x1>
    12b2:	a0 91 32 01 	lds	r26, 0x0132	; 0x800132 <t_millis+0x2>
    12b6:	b0 91 33 01 	lds	r27, 0x0133	; 0x800133 <t_millis+0x3>
    12ba:	80 93 22 01 	sts	0x0122, r24	; 0x800122 <prev_millis1>
    12be:	90 93 23 01 	sts	0x0123, r25	; 0x800123 <prev_millis1+0x1>
    12c2:	a0 93 24 01 	sts	0x0124, r26	; 0x800124 <prev_millis1+0x2>
    12c6:	b0 93 25 01 	sts	0x0125, r27	; 0x800125 <prev_millis1+0x3>
        while (t_millis - prev_millis1 < 5000)
        {
            t_millis = get_millis();
    12ca:	0e 94 8a 01 	call	0x314	; 0x314 <get_millis>
    12ce:	60 93 30 01 	sts	0x0130, r22	; 0x800130 <t_millis>
    12d2:	70 93 31 01 	sts	0x0131, r23	; 0x800131 <t_millis+0x1>
    12d6:	80 93 32 01 	sts	0x0132, r24	; 0x800132 <t_millis+0x2>
    12da:	90 93 33 01 	sts	0x0133, r25	; 0x800133 <t_millis+0x3>

        // display humidity for 5 seconds
        humidity = 67.8;
        seven_segment_show_humidity(humidity);
        prev_millis1 = t_millis;
        while (t_millis - prev_millis1 < 5000)
    12de:	40 90 22 01 	lds	r4, 0x0122	; 0x800122 <prev_millis1>
    12e2:	50 90 23 01 	lds	r5, 0x0123	; 0x800123 <prev_millis1+0x1>
    12e6:	60 90 24 01 	lds	r6, 0x0124	; 0x800124 <prev_millis1+0x2>
    12ea:	70 90 25 01 	lds	r7, 0x0125	; 0x800125 <prev_millis1+0x3>
    12ee:	64 19       	sub	r22, r4
    12f0:	75 09       	sbc	r23, r5
    12f2:	86 09       	sbc	r24, r6
    12f4:	97 09       	sbc	r25, r7
    12f6:	68 38       	cpi	r22, 0x88	; 136
    12f8:	73 41       	sbci	r23, 0x13	; 19
    12fa:	81 05       	cpc	r24, r1
    12fc:	91 05       	cpc	r25, r1
    12fe:	28 f3       	brcs	.-54     	; 0x12ca <main+0x6d8>
        {
            t_millis = get_millis();
        }

        //  turn on all LEDs for 5 seconds
        seven_segment_set_all();
    1300:	0e 94 c4 02 	call	0x588	; 0x588 <seven_segment_set_all>
        prev_millis1 = t_millis;
    1304:	80 91 30 01 	lds	r24, 0x0130	; 0x800130 <t_millis>
    1308:	90 91 31 01 	lds	r25, 0x0131	; 0x800131 <t_millis+0x1>
    130c:	a0 91 32 01 	lds	r26, 0x0132	; 0x800132 <t_millis+0x2>
    1310:	b0 91 33 01 	lds	r27, 0x0133	; 0x800133 <t_millis+0x3>
    1314:	80 93 22 01 	sts	0x0122, r24	; 0x800122 <prev_millis1>
    1318:	90 93 23 01 	sts	0x0123, r25	; 0x800123 <prev_millis1+0x1>
    131c:	a0 93 24 01 	sts	0x0124, r26	; 0x800124 <prev_millis1+0x2>
    1320:	b0 93 25 01 	sts	0x0125, r27	; 0x800125 <prev_millis1+0x3>
        while (t_millis - prev_millis1 < 5000)
        {
            t_millis = get_millis();
    1324:	0e 94 8a 01 	call	0x314	; 0x314 <get_millis>
    1328:	60 93 30 01 	sts	0x0130, r22	; 0x800130 <t_millis>
    132c:	70 93 31 01 	sts	0x0131, r23	; 0x800131 <t_millis+0x1>
    1330:	80 93 32 01 	sts	0x0132, r24	; 0x800132 <t_millis+0x2>
    1334:	90 93 33 01 	sts	0x0133, r25	; 0x800133 <t_millis+0x3>
        }

        //  turn on all LEDs for 5 seconds
        seven_segment_set_all();
        prev_millis1 = t_millis;
        while (t_millis - prev_millis1 < 5000)
    1338:	40 90 22 01 	lds	r4, 0x0122	; 0x800122 <prev_millis1>
    133c:	50 90 23 01 	lds	r5, 0x0123	; 0x800123 <prev_millis1+0x1>
    1340:	60 90 24 01 	lds	r6, 0x0124	; 0x800124 <prev_millis1+0x2>
    1344:	70 90 25 01 	lds	r7, 0x0125	; 0x800125 <prev_millis1+0x3>
    1348:	64 19       	sub	r22, r4
    134a:	75 09       	sbc	r23, r5
    134c:	86 09       	sbc	r24, r6
    134e:	97 09       	sbc	r25, r7
    1350:	68 38       	cpi	r22, 0x88	; 136
    1352:	73 41       	sbci	r23, 0x13	; 19
    1354:	81 05       	cpc	r24, r1
    1356:	91 05       	cpc	r25, r1
    1358:	28 f3       	brcs	.-54     	; 0x1324 <main+0x732>
        {
            t_millis = get_millis();
        }
        // turn off all LEDs for 5 seconds
        seven_segment_clear_all();
    135a:	0e 94 b8 02 	call	0x570	; 0x570 <seven_segment_clear_all>
        prev_millis1 = t_millis;
    135e:	80 91 30 01 	lds	r24, 0x0130	; 0x800130 <t_millis>
    1362:	90 91 31 01 	lds	r25, 0x0131	; 0x800131 <t_millis+0x1>
    1366:	a0 91 32 01 	lds	r26, 0x0132	; 0x800132 <t_millis+0x2>
    136a:	b0 91 33 01 	lds	r27, 0x0133	; 0x800133 <t_millis+0x3>
    136e:	80 93 22 01 	sts	0x0122, r24	; 0x800122 <prev_millis1>
    1372:	90 93 23 01 	sts	0x0123, r25	; 0x800123 <prev_millis1+0x1>
    1376:	a0 93 24 01 	sts	0x0124, r26	; 0x800124 <prev_millis1+0x2>
    137a:	b0 93 25 01 	sts	0x0125, r27	; 0x800125 <prev_millis1+0x3>
        while (t_millis - prev_millis1 < 5000)
        {
            t_millis = get_millis();
    137e:	0e 94 8a 01 	call	0x314	; 0x314 <get_millis>
    1382:	60 93 30 01 	sts	0x0130, r22	; 0x800130 <t_millis>
    1386:	70 93 31 01 	sts	0x0131, r23	; 0x800131 <t_millis+0x1>
    138a:	80 93 32 01 	sts	0x0132, r24	; 0x800132 <t_millis+0x2>
    138e:	90 93 33 01 	sts	0x0133, r25	; 0x800133 <t_millis+0x3>
            t_millis = get_millis();
        }
        // turn off all LEDs for 5 seconds
        seven_segment_clear_all();
        prev_millis1 = t_millis;
        while (t_millis - prev_millis1 < 5000)
    1392:	40 90 22 01 	lds	r4, 0x0122	; 0x800122 <prev_millis1>
    1396:	50 90 23 01 	lds	r5, 0x0123	; 0x800123 <prev_millis1+0x1>
    139a:	60 90 24 01 	lds	r6, 0x0124	; 0x800124 <prev_millis1+0x2>
    139e:	70 90 25 01 	lds	r7, 0x0125	; 0x800125 <prev_millis1+0x3>
    13a2:	64 19       	sub	r22, r4
    13a4:	75 09       	sbc	r23, r5
    13a6:	86 09       	sbc	r24, r6
    13a8:	97 09       	sbc	r25, r7
    13aa:	68 38       	cpi	r22, 0x88	; 136
    13ac:	73 41       	sbci	r23, 0x13	; 19
    13ae:	81 05       	cpc	r24, r1
    13b0:	91 05       	cpc	r25, r1
    13b2:	28 f3       	brcs	.-54     	; 0x137e <main+0x78c>
    13b4:	39 cc       	rjmp	.-1934   	; 0xc28 <main+0x36>
        {
            t_millis = get_millis();
            seven_segment_flashing_loop(t_millis);
            if (t_millis - prev_millis1 > 5000 && t_millis - prev_millis1 < 10000)
            {
                hour = 23;
    13b6:	47 e1       	ldi	r20, 0x17	; 23
    13b8:	50 e0       	ldi	r21, 0x00	; 0
    13ba:	50 93 27 01 	sts	0x0127, r21	; 0x800127 <hour+0x1>
    13be:	40 93 26 01 	sts	0x0126, r20	; 0x800126 <hour>
                minute = 30;
    13c2:	8e e1       	ldi	r24, 0x1E	; 30
    13c4:	90 e0       	ldi	r25, 0x00	; 0
    13c6:	90 93 1d 01 	sts	0x011D, r25	; 0x80011d <minute+0x1>
    13ca:	80 93 1c 01 	sts	0x011C, r24	; 0x80011c <minute>
                seven_segment_show_hour_minute(hour, minute);
    13ce:	6e e1       	ldi	r22, 0x1E	; 30
    13d0:	87 e1       	ldi	r24, 0x17	; 23
    13d2:	0e 94 bf 03 	call	0x77e	; 0x77e <seven_segment_show_hour_minute>
                seven_segment_flash_digits_minutes(1);
    13d6:	81 e0       	ldi	r24, 0x01	; 1
    13d8:	0e 94 b6 03 	call	0x76c	; 0x76c <seven_segment_flash_digits_minutes>
    13dc:	57 cd       	rjmp	.-1362   	; 0xe8c <main+0x29a>
                minute = 00;
                seven_segment_show_hour_minute(hour, minute);
            }
            if (t_millis - prev_millis1 > 10000 && t_millis - prev_millis1 < 15000)
            {
                hour = 23;
    13de:	47 e1       	ldi	r20, 0x17	; 23
    13e0:	50 e0       	ldi	r21, 0x00	; 0
    13e2:	50 93 27 01 	sts	0x0127, r21	; 0x800127 <hour+0x1>
    13e6:	40 93 26 01 	sts	0x0126, r20	; 0x800126 <hour>
                minute = 30;
    13ea:	8e e1       	ldi	r24, 0x1E	; 30
    13ec:	90 e0       	ldi	r25, 0x00	; 0
    13ee:	90 93 1d 01 	sts	0x011D, r25	; 0x80011d <minute+0x1>
    13f2:	80 93 1c 01 	sts	0x011C, r24	; 0x80011c <minute>
                seven_segment_show_hour_minute(hour, minute);
    13f6:	6e e1       	ldi	r22, 0x1E	; 30
    13f8:	87 e1       	ldi	r24, 0x17	; 23
    13fa:	0e 94 bf 03 	call	0x77e	; 0x77e <seven_segment_show_hour_minute>
    13fe:	37 cc       	rjmp	.-1938   	; 0xc6e <main+0x7c>
        {
            t_millis = get_millis();
            seven_segment_flashing_loop(t_millis);
            if (t_millis - prev_millis1 > 5000 && t_millis - prev_millis1 < 10000)
            {
                hour = 20;
    1400:	44 e1       	ldi	r20, 0x14	; 20
    1402:	50 e0       	ldi	r21, 0x00	; 0
    1404:	50 93 27 01 	sts	0x0127, r21	; 0x800127 <hour+0x1>
    1408:	40 93 26 01 	sts	0x0126, r20	; 0x800126 <hour>
                minute = 00;
    140c:	10 92 1d 01 	sts	0x011D, r1	; 0x80011d <minute+0x1>
    1410:	10 92 1c 01 	sts	0x011C, r1	; 0x80011c <minute>
                seven_segment_show_hour_minute(hour, minute);
    1414:	60 e0       	ldi	r22, 0x00	; 0
    1416:	84 e1       	ldi	r24, 0x14	; 20
    1418:	0e 94 bf 03 	call	0x77e	; 0x77e <seven_segment_show_hour_minute>
                seven_segment_flash_digits_hours(1);
    141c:	81 e0       	ldi	r24, 0x01	; 1
    141e:	0e 94 b9 03 	call	0x772	; 0x772 <seven_segment_flash_digits_hours>
    1422:	cb cc       	rjmp	.-1642   	; 0xdba <main+0x1c8>

00001424 <__divmodhi4>:
    1424:	97 fb       	bst	r25, 7
    1426:	07 2e       	mov	r0, r23
    1428:	16 f4       	brtc	.+4      	; 0x142e <__divmodhi4+0xa>
    142a:	00 94       	com	r0
    142c:	07 d0       	rcall	.+14     	; 0x143c <__divmodhi4_neg1>
    142e:	77 fd       	sbrc	r23, 7
    1430:	09 d0       	rcall	.+18     	; 0x1444 <__divmodhi4_neg2>
    1432:	0e 94 31 0a 	call	0x1462	; 0x1462 <__udivmodhi4>
    1436:	07 fc       	sbrc	r0, 7
    1438:	05 d0       	rcall	.+10     	; 0x1444 <__divmodhi4_neg2>
    143a:	3e f4       	brtc	.+14     	; 0x144a <__divmodhi4_exit>

0000143c <__divmodhi4_neg1>:
    143c:	90 95       	com	r25
    143e:	81 95       	neg	r24
    1440:	9f 4f       	sbci	r25, 0xFF	; 255
    1442:	08 95       	ret

00001444 <__divmodhi4_neg2>:
    1444:	70 95       	com	r23
    1446:	61 95       	neg	r22
    1448:	7f 4f       	sbci	r23, 0xFF	; 255

0000144a <__divmodhi4_exit>:
    144a:	08 95       	ret

0000144c <__muluhisi3>:
    144c:	0e 94 45 0a 	call	0x148a	; 0x148a <__umulhisi3>
    1450:	a5 9f       	mul	r26, r21
    1452:	90 0d       	add	r25, r0
    1454:	b4 9f       	mul	r27, r20
    1456:	90 0d       	add	r25, r0
    1458:	a4 9f       	mul	r26, r20
    145a:	80 0d       	add	r24, r0
    145c:	91 1d       	adc	r25, r1
    145e:	11 24       	eor	r1, r1
    1460:	08 95       	ret

00001462 <__udivmodhi4>:
    1462:	aa 1b       	sub	r26, r26
    1464:	bb 1b       	sub	r27, r27
    1466:	51 e1       	ldi	r21, 0x11	; 17
    1468:	07 c0       	rjmp	.+14     	; 0x1478 <__udivmodhi4_ep>

0000146a <__udivmodhi4_loop>:
    146a:	aa 1f       	adc	r26, r26
    146c:	bb 1f       	adc	r27, r27
    146e:	a6 17       	cp	r26, r22
    1470:	b7 07       	cpc	r27, r23
    1472:	10 f0       	brcs	.+4      	; 0x1478 <__udivmodhi4_ep>
    1474:	a6 1b       	sub	r26, r22
    1476:	b7 0b       	sbc	r27, r23

00001478 <__udivmodhi4_ep>:
    1478:	88 1f       	adc	r24, r24
    147a:	99 1f       	adc	r25, r25
    147c:	5a 95       	dec	r21
    147e:	a9 f7       	brne	.-22     	; 0x146a <__udivmodhi4_loop>
    1480:	80 95       	com	r24
    1482:	90 95       	com	r25
    1484:	bc 01       	movw	r22, r24
    1486:	cd 01       	movw	r24, r26
    1488:	08 95       	ret

0000148a <__umulhisi3>:
    148a:	a2 9f       	mul	r26, r18
    148c:	b0 01       	movw	r22, r0
    148e:	b3 9f       	mul	r27, r19
    1490:	c0 01       	movw	r24, r0
    1492:	a3 9f       	mul	r26, r19
    1494:	70 0d       	add	r23, r0
    1496:	81 1d       	adc	r24, r1
    1498:	11 24       	eor	r1, r1
    149a:	91 1d       	adc	r25, r1
    149c:	b2 9f       	mul	r27, r18
    149e:	70 0d       	add	r23, r0
    14a0:	81 1d       	adc	r24, r1
    14a2:	11 24       	eor	r1, r1
    14a4:	91 1d       	adc	r25, r1
    14a6:	08 95       	ret

000014a8 <__cmpsf2>:
    14a8:	0e 94 8f 0a 	call	0x151e	; 0x151e <__fp_cmp>
    14ac:	08 f4       	brcc	.+2      	; 0x14b0 <__cmpsf2+0x8>
    14ae:	81 e0       	ldi	r24, 0x01	; 1
    14b0:	08 95       	ret

000014b2 <__fixsfsi>:
    14b2:	0e 94 60 0a 	call	0x14c0	; 0x14c0 <__fixunssfsi>
    14b6:	68 94       	set
    14b8:	b1 11       	cpse	r27, r1
    14ba:	0c 94 d6 0a 	jmp	0x15ac	; 0x15ac <__fp_szero>
    14be:	08 95       	ret

000014c0 <__fixunssfsi>:
    14c0:	0e 94 bb 0a 	call	0x1576	; 0x1576 <__fp_splitA>
    14c4:	88 f0       	brcs	.+34     	; 0x14e8 <__fixunssfsi+0x28>
    14c6:	9f 57       	subi	r25, 0x7F	; 127
    14c8:	98 f0       	brcs	.+38     	; 0x14f0 <__fixunssfsi+0x30>
    14ca:	b9 2f       	mov	r27, r25
    14cc:	99 27       	eor	r25, r25
    14ce:	b7 51       	subi	r27, 0x17	; 23
    14d0:	b0 f0       	brcs	.+44     	; 0x14fe <__fixunssfsi+0x3e>
    14d2:	e1 f0       	breq	.+56     	; 0x150c <__fixunssfsi+0x4c>
    14d4:	66 0f       	add	r22, r22
    14d6:	77 1f       	adc	r23, r23
    14d8:	88 1f       	adc	r24, r24
    14da:	99 1f       	adc	r25, r25
    14dc:	1a f0       	brmi	.+6      	; 0x14e4 <__fixunssfsi+0x24>
    14de:	ba 95       	dec	r27
    14e0:	c9 f7       	brne	.-14     	; 0x14d4 <__fixunssfsi+0x14>
    14e2:	14 c0       	rjmp	.+40     	; 0x150c <__fixunssfsi+0x4c>
    14e4:	b1 30       	cpi	r27, 0x01	; 1
    14e6:	91 f0       	breq	.+36     	; 0x150c <__fixunssfsi+0x4c>
    14e8:	0e 94 d5 0a 	call	0x15aa	; 0x15aa <__fp_zero>
    14ec:	b1 e0       	ldi	r27, 0x01	; 1
    14ee:	08 95       	ret
    14f0:	0c 94 d5 0a 	jmp	0x15aa	; 0x15aa <__fp_zero>
    14f4:	67 2f       	mov	r22, r23
    14f6:	78 2f       	mov	r23, r24
    14f8:	88 27       	eor	r24, r24
    14fa:	b8 5f       	subi	r27, 0xF8	; 248
    14fc:	39 f0       	breq	.+14     	; 0x150c <__fixunssfsi+0x4c>
    14fe:	b9 3f       	cpi	r27, 0xF9	; 249
    1500:	cc f3       	brlt	.-14     	; 0x14f4 <__fixunssfsi+0x34>
    1502:	86 95       	lsr	r24
    1504:	77 95       	ror	r23
    1506:	67 95       	ror	r22
    1508:	b3 95       	inc	r27
    150a:	d9 f7       	brne	.-10     	; 0x1502 <__fixunssfsi+0x42>
    150c:	3e f4       	brtc	.+14     	; 0x151c <__fixunssfsi+0x5c>
    150e:	90 95       	com	r25
    1510:	80 95       	com	r24
    1512:	70 95       	com	r23
    1514:	61 95       	neg	r22
    1516:	7f 4f       	sbci	r23, 0xFF	; 255
    1518:	8f 4f       	sbci	r24, 0xFF	; 255
    151a:	9f 4f       	sbci	r25, 0xFF	; 255
    151c:	08 95       	ret

0000151e <__fp_cmp>:
    151e:	99 0f       	add	r25, r25
    1520:	00 08       	sbc	r0, r0
    1522:	55 0f       	add	r21, r21
    1524:	aa 0b       	sbc	r26, r26
    1526:	e0 e8       	ldi	r30, 0x80	; 128
    1528:	fe ef       	ldi	r31, 0xFE	; 254
    152a:	16 16       	cp	r1, r22
    152c:	17 06       	cpc	r1, r23
    152e:	e8 07       	cpc	r30, r24
    1530:	f9 07       	cpc	r31, r25
    1532:	c0 f0       	brcs	.+48     	; 0x1564 <__fp_cmp+0x46>
    1534:	12 16       	cp	r1, r18
    1536:	13 06       	cpc	r1, r19
    1538:	e4 07       	cpc	r30, r20
    153a:	f5 07       	cpc	r31, r21
    153c:	98 f0       	brcs	.+38     	; 0x1564 <__fp_cmp+0x46>
    153e:	62 1b       	sub	r22, r18
    1540:	73 0b       	sbc	r23, r19
    1542:	84 0b       	sbc	r24, r20
    1544:	95 0b       	sbc	r25, r21
    1546:	39 f4       	brne	.+14     	; 0x1556 <__fp_cmp+0x38>
    1548:	0a 26       	eor	r0, r26
    154a:	61 f0       	breq	.+24     	; 0x1564 <__fp_cmp+0x46>
    154c:	23 2b       	or	r18, r19
    154e:	24 2b       	or	r18, r20
    1550:	25 2b       	or	r18, r21
    1552:	21 f4       	brne	.+8      	; 0x155c <__fp_cmp+0x3e>
    1554:	08 95       	ret
    1556:	0a 26       	eor	r0, r26
    1558:	09 f4       	brne	.+2      	; 0x155c <__fp_cmp+0x3e>
    155a:	a1 40       	sbci	r26, 0x01	; 1
    155c:	a6 95       	lsr	r26
    155e:	8f ef       	ldi	r24, 0xFF	; 255
    1560:	81 1d       	adc	r24, r1
    1562:	81 1d       	adc	r24, r1
    1564:	08 95       	ret

00001566 <__fp_split3>:
    1566:	57 fd       	sbrc	r21, 7
    1568:	90 58       	subi	r25, 0x80	; 128
    156a:	44 0f       	add	r20, r20
    156c:	55 1f       	adc	r21, r21
    156e:	59 f0       	breq	.+22     	; 0x1586 <__fp_splitA+0x10>
    1570:	5f 3f       	cpi	r21, 0xFF	; 255
    1572:	71 f0       	breq	.+28     	; 0x1590 <__fp_splitA+0x1a>
    1574:	47 95       	ror	r20

00001576 <__fp_splitA>:
    1576:	88 0f       	add	r24, r24
    1578:	97 fb       	bst	r25, 7
    157a:	99 1f       	adc	r25, r25
    157c:	61 f0       	breq	.+24     	; 0x1596 <__fp_splitA+0x20>
    157e:	9f 3f       	cpi	r25, 0xFF	; 255
    1580:	79 f0       	breq	.+30     	; 0x15a0 <__fp_splitA+0x2a>
    1582:	87 95       	ror	r24
    1584:	08 95       	ret
    1586:	12 16       	cp	r1, r18
    1588:	13 06       	cpc	r1, r19
    158a:	14 06       	cpc	r1, r20
    158c:	55 1f       	adc	r21, r21
    158e:	f2 cf       	rjmp	.-28     	; 0x1574 <__fp_split3+0xe>
    1590:	46 95       	lsr	r20
    1592:	f1 df       	rcall	.-30     	; 0x1576 <__fp_splitA>
    1594:	08 c0       	rjmp	.+16     	; 0x15a6 <__fp_splitA+0x30>
    1596:	16 16       	cp	r1, r22
    1598:	17 06       	cpc	r1, r23
    159a:	18 06       	cpc	r1, r24
    159c:	99 1f       	adc	r25, r25
    159e:	f1 cf       	rjmp	.-30     	; 0x1582 <__fp_splitA+0xc>
    15a0:	86 95       	lsr	r24
    15a2:	71 05       	cpc	r23, r1
    15a4:	61 05       	cpc	r22, r1
    15a6:	08 94       	sec
    15a8:	08 95       	ret

000015aa <__fp_zero>:
    15aa:	e8 94       	clt

000015ac <__fp_szero>:
    15ac:	bb 27       	eor	r27, r27
    15ae:	66 27       	eor	r22, r22
    15b0:	77 27       	eor	r23, r23
    15b2:	cb 01       	movw	r24, r22
    15b4:	97 f9       	bld	r25, 7
    15b6:	08 95       	ret

000015b8 <__gesf2>:
    15b8:	0e 94 8f 0a 	call	0x151e	; 0x151e <__fp_cmp>
    15bc:	08 f4       	brcc	.+2      	; 0x15c0 <__gesf2+0x8>
    15be:	8f ef       	ldi	r24, 0xFF	; 255
    15c0:	08 95       	ret

000015c2 <__mulsf3>:
    15c2:	0e 94 f4 0a 	call	0x15e8	; 0x15e8 <__mulsf3x>
    15c6:	0c 94 65 0b 	jmp	0x16ca	; 0x16ca <__fp_round>
    15ca:	0e 94 57 0b 	call	0x16ae	; 0x16ae <__fp_pscA>
    15ce:	38 f0       	brcs	.+14     	; 0x15de <__mulsf3+0x1c>
    15d0:	0e 94 5e 0b 	call	0x16bc	; 0x16bc <__fp_pscB>
    15d4:	20 f0       	brcs	.+8      	; 0x15de <__mulsf3+0x1c>
    15d6:	95 23       	and	r25, r21
    15d8:	11 f0       	breq	.+4      	; 0x15de <__mulsf3+0x1c>
    15da:	0c 94 4e 0b 	jmp	0x169c	; 0x169c <__fp_inf>
    15de:	0c 94 54 0b 	jmp	0x16a8	; 0x16a8 <__fp_nan>
    15e2:	11 24       	eor	r1, r1
    15e4:	0c 94 d6 0a 	jmp	0x15ac	; 0x15ac <__fp_szero>

000015e8 <__mulsf3x>:
    15e8:	0e 94 b3 0a 	call	0x1566	; 0x1566 <__fp_split3>
    15ec:	70 f3       	brcs	.-36     	; 0x15ca <__mulsf3+0x8>

000015ee <__mulsf3_pse>:
    15ee:	95 9f       	mul	r25, r21
    15f0:	c1 f3       	breq	.-16     	; 0x15e2 <__mulsf3+0x20>
    15f2:	95 0f       	add	r25, r21
    15f4:	50 e0       	ldi	r21, 0x00	; 0
    15f6:	55 1f       	adc	r21, r21
    15f8:	62 9f       	mul	r22, r18
    15fa:	f0 01       	movw	r30, r0
    15fc:	72 9f       	mul	r23, r18
    15fe:	bb 27       	eor	r27, r27
    1600:	f0 0d       	add	r31, r0
    1602:	b1 1d       	adc	r27, r1
    1604:	63 9f       	mul	r22, r19
    1606:	aa 27       	eor	r26, r26
    1608:	f0 0d       	add	r31, r0
    160a:	b1 1d       	adc	r27, r1
    160c:	aa 1f       	adc	r26, r26
    160e:	64 9f       	mul	r22, r20
    1610:	66 27       	eor	r22, r22
    1612:	b0 0d       	add	r27, r0
    1614:	a1 1d       	adc	r26, r1
    1616:	66 1f       	adc	r22, r22
    1618:	82 9f       	mul	r24, r18
    161a:	22 27       	eor	r18, r18
    161c:	b0 0d       	add	r27, r0
    161e:	a1 1d       	adc	r26, r1
    1620:	62 1f       	adc	r22, r18
    1622:	73 9f       	mul	r23, r19
    1624:	b0 0d       	add	r27, r0
    1626:	a1 1d       	adc	r26, r1
    1628:	62 1f       	adc	r22, r18
    162a:	83 9f       	mul	r24, r19
    162c:	a0 0d       	add	r26, r0
    162e:	61 1d       	adc	r22, r1
    1630:	22 1f       	adc	r18, r18
    1632:	74 9f       	mul	r23, r20
    1634:	33 27       	eor	r19, r19
    1636:	a0 0d       	add	r26, r0
    1638:	61 1d       	adc	r22, r1
    163a:	23 1f       	adc	r18, r19
    163c:	84 9f       	mul	r24, r20
    163e:	60 0d       	add	r22, r0
    1640:	21 1d       	adc	r18, r1
    1642:	82 2f       	mov	r24, r18
    1644:	76 2f       	mov	r23, r22
    1646:	6a 2f       	mov	r22, r26
    1648:	11 24       	eor	r1, r1
    164a:	9f 57       	subi	r25, 0x7F	; 127
    164c:	50 40       	sbci	r21, 0x00	; 0
    164e:	9a f0       	brmi	.+38     	; 0x1676 <__mulsf3_pse+0x88>
    1650:	f1 f0       	breq	.+60     	; 0x168e <__mulsf3_pse+0xa0>
    1652:	88 23       	and	r24, r24
    1654:	4a f0       	brmi	.+18     	; 0x1668 <__mulsf3_pse+0x7a>
    1656:	ee 0f       	add	r30, r30
    1658:	ff 1f       	adc	r31, r31
    165a:	bb 1f       	adc	r27, r27
    165c:	66 1f       	adc	r22, r22
    165e:	77 1f       	adc	r23, r23
    1660:	88 1f       	adc	r24, r24
    1662:	91 50       	subi	r25, 0x01	; 1
    1664:	50 40       	sbci	r21, 0x00	; 0
    1666:	a9 f7       	brne	.-22     	; 0x1652 <__mulsf3_pse+0x64>
    1668:	9e 3f       	cpi	r25, 0xFE	; 254
    166a:	51 05       	cpc	r21, r1
    166c:	80 f0       	brcs	.+32     	; 0x168e <__mulsf3_pse+0xa0>
    166e:	0c 94 4e 0b 	jmp	0x169c	; 0x169c <__fp_inf>
    1672:	0c 94 d6 0a 	jmp	0x15ac	; 0x15ac <__fp_szero>
    1676:	5f 3f       	cpi	r21, 0xFF	; 255
    1678:	e4 f3       	brlt	.-8      	; 0x1672 <__mulsf3_pse+0x84>
    167a:	98 3e       	cpi	r25, 0xE8	; 232
    167c:	d4 f3       	brlt	.-12     	; 0x1672 <__mulsf3_pse+0x84>
    167e:	86 95       	lsr	r24
    1680:	77 95       	ror	r23
    1682:	67 95       	ror	r22
    1684:	b7 95       	ror	r27
    1686:	f7 95       	ror	r31
    1688:	e7 95       	ror	r30
    168a:	9f 5f       	subi	r25, 0xFF	; 255
    168c:	c1 f7       	brne	.-16     	; 0x167e <__mulsf3_pse+0x90>
    168e:	fe 2b       	or	r31, r30
    1690:	88 0f       	add	r24, r24
    1692:	91 1d       	adc	r25, r1
    1694:	96 95       	lsr	r25
    1696:	87 95       	ror	r24
    1698:	97 f9       	bld	r25, 7
    169a:	08 95       	ret

0000169c <__fp_inf>:
    169c:	97 f9       	bld	r25, 7
    169e:	9f 67       	ori	r25, 0x7F	; 127
    16a0:	80 e8       	ldi	r24, 0x80	; 128
    16a2:	70 e0       	ldi	r23, 0x00	; 0
    16a4:	60 e0       	ldi	r22, 0x00	; 0
    16a6:	08 95       	ret

000016a8 <__fp_nan>:
    16a8:	9f ef       	ldi	r25, 0xFF	; 255
    16aa:	80 ec       	ldi	r24, 0xC0	; 192
    16ac:	08 95       	ret

000016ae <__fp_pscA>:
    16ae:	00 24       	eor	r0, r0
    16b0:	0a 94       	dec	r0
    16b2:	16 16       	cp	r1, r22
    16b4:	17 06       	cpc	r1, r23
    16b6:	18 06       	cpc	r1, r24
    16b8:	09 06       	cpc	r0, r25
    16ba:	08 95       	ret

000016bc <__fp_pscB>:
    16bc:	00 24       	eor	r0, r0
    16be:	0a 94       	dec	r0
    16c0:	12 16       	cp	r1, r18
    16c2:	13 06       	cpc	r1, r19
    16c4:	14 06       	cpc	r1, r20
    16c6:	05 06       	cpc	r0, r21
    16c8:	08 95       	ret

000016ca <__fp_round>:
    16ca:	09 2e       	mov	r0, r25
    16cc:	03 94       	inc	r0
    16ce:	00 0c       	add	r0, r0
    16d0:	11 f4       	brne	.+4      	; 0x16d6 <__fp_round+0xc>
    16d2:	88 23       	and	r24, r24
    16d4:	52 f0       	brmi	.+20     	; 0x16ea <__fp_round+0x20>
    16d6:	bb 0f       	add	r27, r27
    16d8:	40 f4       	brcc	.+16     	; 0x16ea <__fp_round+0x20>
    16da:	bf 2b       	or	r27, r31
    16dc:	11 f4       	brne	.+4      	; 0x16e2 <__fp_round+0x18>
    16de:	60 ff       	sbrs	r22, 0
    16e0:	04 c0       	rjmp	.+8      	; 0x16ea <__fp_round+0x20>
    16e2:	6f 5f       	subi	r22, 0xFF	; 255
    16e4:	7f 4f       	sbci	r23, 0xFF	; 255
    16e6:	8f 4f       	sbci	r24, 0xFF	; 255
    16e8:	9f 4f       	sbci	r25, 0xFF	; 255
    16ea:	08 95       	ret

000016ec <_exit>:
    16ec:	f8 94       	cli

000016ee <__stop_program>:
    16ee:	ff cf       	rjmp	.-2      	; 0x16ee <__stop_program>
